 SE

 Timestamp is 5449f571 (Fri Oct 24 15:45:05 2014)

 Preferred load address is 00400000

 Start         Length     Name                   Class
 0001:00000000 00005370H .text                   CODE
 0001:00005370 00000b3cH .text$di                CODE
 0001:00005eb0 0019f5f0H .text$mn                CODE
 0001:001a54a0 00013360H .text$x                 CODE
 0001:001b8800 00000578H .text$yd                CODE
 0002:00000000 00000b5cH .idata$5                DATA
 0002:00000b5c 00000004H .CRT$XCA                DATA
 0002:00000b60 00000008H .CRT$XCC                DATA
 0002:00000b68 00000014H .CRT$XCL                DATA
 0002:00000b7c 00000288H .CRT$XCU                DATA
 0002:00000e04 00000004H .CRT$XCZ                DATA
 0002:00000e08 00000004H .CRT$XIA                DATA
 0002:00000e0c 00000018H .CRT$XIC                DATA
 0002:00000e24 00000004H .CRT$XIY                DATA
 0002:00000e28 00000004H .CRT$XIZ                DATA
 0002:00000e2c 00000004H .CRT$XPA                DATA
 0002:00000e30 0000000cH .CRT$XPX                DATA
 0002:00000e3c 00000004H .CRT$XPXA               DATA
 0002:00000e40 00000004H .CRT$XPZ                DATA
 0002:00000e44 00000004H .CRT$XTA                DATA
 0002:00000e48 00000004H .CRT$XTZ                DATA
 0002:00000e50 000491f0H .rdata                  DATA
 0002:0004a040 00000068H .rdata$debug            DATA
 0002:0004a0a8 0000c11cH .rdata$r                DATA
 0002:000561d0 000012d0H .rdata$sxdata           DATA
 0002:000574a0 00000004H .rtc$IAA                DATA
 0002:000574a4 00000004H .rtc$IZZ                DATA
 0002:000574a8 00000004H .rtc$TAA                DATA
 0002:000574ac 00000004H .rtc$TZZ                DATA
 0002:000574b0 000146f4H .xdata$x                DATA
 0002:0006bba4 00000000H ATL$__a                 DATA
 0002:0006bba4 00000000H ATL$__z                 DATA
 0002:0006bba4 00000000H .edata                  DATA
 0002:0006bba4 000001b8H .idata$2                DATA
 0002:0006bd5c 00000014H .idata$3                DATA
 0002:0006bd70 00000b5cH .idata$4                DATA
 0002:0006c8cc 0000316eH .idata$6                DATA
 0003:00000000 00002520H .data                   DATA
 0003:00002520 000053f7H .data$r                 DATA
 0003:00007920 00024180H .bss                    DATA
 0004:00000000 00015334H .rsrc$01                DATA
 0004:00015340 001879f0H .rsrc$02                DATA

  Address         Publics by Value              Rva+Base       Lib:Object

 0000:00000000       ___guard_fids_count        00000000     <absolute>
 0000:00000000       ___guard_fids_table        00000000     <absolute>
 0000:00000000       __except_list              00000000     <absolute>
 0000:00000000       ___guard_flags             00000000     <absolute>
 0000:000004b4       ___safe_se_handler_count   000004b4     <absolute>
 0000:00000000       ___ImageBase               00400000     <linker-defined>
 0001:00000000       _compress2                 00401000 f   xzlib:compress.obj
 0001:000000a0       _compress                  004010a0 f   xzlib:compress.obj
 0001:000000c0       _uncompress                004010c0 f   xzlib:uncompr.obj
 0001:00000170       _deflateResetKeep          00401170 f   xzlib:deflate.obj
 0001:00000270       _deflateEnd                00401270 f   xzlib:deflate.obj
 0001:00001650       _deflateReset              00402650 f   xzlib:deflate.obj
 0001:00001680       _deflate                   00402680 f   xzlib:deflate.obj
 0001:00001990       _deflateInit2_             00402990 f   xzlib:deflate.obj
 0001:00001bc0       _deflateInit_              00402bc0 f   xzlib:deflate.obj
 0001:00001bf0       _inflateResetKeep          00402bf0 f   xzlib:inflate.obj
 0001:00001c70       _inflateReset2             00402c70 f   xzlib:inflate.obj
 0001:00001d10       _inflateInit2_             00402d10 f   xzlib:inflate.obj
 0001:00001dd0       _inflateInit_              00402dd0 f   xzlib:inflate.obj
 0001:00001ee0       _inflate                   00402ee0 f   xzlib:inflate.obj
 0001:00002e90       _inflateEnd                00403e90 f   xzlib:inflate.obj
 0001:000040f0       __tr_init                  004050f0 f   xzlib:trees.obj
 0001:000044b0       __tr_stored_block          004054b0 f   xzlib:trees.obj
 0001:00004560       __tr_flush_bits            00405560 f   xzlib:trees.obj
 0001:00004570       __tr_align                 00405570 f   xzlib:trees.obj
 0001:00004670       __tr_flush_block           00405670 f   xzlib:trees.obj
 0001:00004870       _adler32                   00405870 f   xzlib:adler32.obj
 0001:00004ae0       _zcalloc                   00405ae0 f   xzlib:zutil.obj
 0001:00004b00       _zcfree                    00405b00 f   xzlib:zutil.obj
 0001:00004b20       _inflate_fast              00405b20 f   xzlib:inffast.obj
 0001:00004f30       _inflate_table             00405f30 f   xzlib:inftrees.obj
 0001:00005eb0       ?CreateView@XD3DView@@QAEJPAUHWND__@@PAUIDirect3DDevice9@@W4_D3DFORMAT@@@Z 00406eb0 f   d3dView.obj
 0001:00005f60       ??0CD3DApplication@@QAE@XZ 00406f60 f   d3dapp.obj
 0001:000060b0       ?ConfirmDeviceHelper@CD3DApplication@@KA_NPAU_D3DCAPS9@@W4VertexProcessingType@@W4_D3DFORMAT@@2@Z 004070b0 f   d3dapp.obj
 0001:00006100       ?Create@CD3DApplication@@UAEJPAUHINSTANCE__@@@Z 00407100 f   d3dapp.obj
 0001:00006300       ?FindBestWindowedMode@CD3DApplication@@IAE_N_N0@Z 00407300 f   d3dapp.obj
 0001:00006510       ?FindBestFullscreenMode@CD3DApplication@@IAE_N_N0@Z 00407510 f   d3dapp.obj
 0001:000067f0       ?ChooseInitialD3DSettings@CD3DApplication@@IAEJXZ 004077f0 f   d3dapp.obj
 0001:00006840       ?MsgProc@CD3DApplication@@UAEJPAUHWND__@@IIJ@Z 00407840 f   d3dapp.obj
 0001:00006e30       ?HandlePossibleSizeChange@CD3DApplication@@IAEJXZ 00407e30 f   d3dapp.obj
 0001:00006f20       ?Initialize3DEnvironment@CD3DApplication@@IAEJXZ 00407f20 f   d3dapp.obj
 0001:00007330       ?BuildPresentParamsFromSettings@CD3DApplication@@IAEXXZ 00408330 f   d3dapp.obj
 0001:000074a0       ?ClipCursor@CD3DApplication@@QAEXXZ 004084a0 f   d3dapp.obj
 0001:00007500       ?Reset3DEnvironment@CD3DApplication@@IAEJXZ 00408500 f   d3dapp.obj
 0001:00007830       ?ToggleFullscreen@CD3DApplication@@IAEJXZ 00408830 f   d3dapp.obj
 0001:000079c0       ?AdjustWindowForChange@CD3DApplication@@MAEJXZ 004089c0 f   d3dapp.obj
 0001:00007a50       ?UserSelectNewDevice@CD3DApplication@@IAEJXZ 00408a50 f   d3dapp.obj
 0001:00007de0       ?Run@CD3DApplication@@UAEHXZ 00408de0 f   d3dapp.obj
 0001:00007f20       ?Render3DEnvironment@CD3DApplication@@IAEJXZ 00408f20 f   d3dapp.obj
 0001:000082b0       ?OnHideMenuBar@CFrameWnd@@MAEXXZ 004092b0 f   uafxcw:winfrm.obj
 0001:000082b0       ?ToggleAutoHide@CPane@@UAEXXZ 004092b0 f   uafxcw:afxpane.obj
 0001:000082b0       ?CleanUpSizes@CMFCRibbonBaseElement@@UAEXXZ 004092b0 f   uafxcw:afxbaseribbonelement.obj
 0001:000082b0       ?SaveCustomState@CSEApp@@UAEXXZ 004092b0 f   SE.obj
 0001:000082b0       ?OnScrollDown@CMFCOutlookBarTabCtrl@@MAEXXZ 004092b0 f   uafxcw:afxoutlookbartabctrl.obj
 0001:000082b0       ?OnBrowse@CVSListBoxBase@@UAEXXZ 004092b0 f   uafxcw:afxtoolbarstoolspropertypage.obj
 0001:000082b0       ?PostNcDestroy@CWnd@@MAEXXZ 004092b0 f   uafxcw:wincore.obj
 0001:000082b0       ?EndScene@XGraphics@@UAEXXZ 004092b0 f   XGraphicsD3D.obj
 0001:000082b0       ?InitializeSearchContent@CDocument@@UAEXXZ 004092b0 f   SEDoc.obj
 0001:000082b0       ?OnShowMenuBar@CFrameWnd@@MAEXXZ 004092b0 f   uafxcw:winfrm.obj
 0001:000082b0       ?Clear@XBaseLayer@@UAEXXZ  004092b0 f   SprObj.obj
 0001:000082b0       ?OnActivateTasksPanePage@CMFCTasksPane@@MAEXXZ 004092b0 f   uafxcw:afxtaskspane.obj
 0001:000082b0       ?RemoveAll@XSoundMng@@UAEXXZ 004092b0 f   XSoundMng.obj
 0001:000082b0       ?OnRichPreviewTextColorChanged@CDocument@@UAEXXZ 004092b0 f   SEDoc.obj
 0001:000082b0       ?PreSaveState@CWinAppEx@@MAEXXZ 004092b0 f   SE.obj
 0001:000082b0       ?AdjustLayout@CMultiPaneFrameWnd@@UAEXXZ 004092b0 f   uafxcw:afxmultipaneframewnd.obj
 0001:000082b0       ?PreSubclassWindow@CWnd@@UAEXXZ 004092b0 f   uafxcw:wincore.obj
 0001:000082b0       ?OnAddToCustomizePage@CMFCToolBarButton@@UAEXXZ 004092b0 f   uafxcw:afxtoolbarmenubutton.obj
 0001:000082b0       ??1AFX_MAINTAIN_STATE2@@QAE@XZ 004092b0 f   uafxcw:afxstate.obj
 0001:000082b0       ?OnBnClickedButtAddLayer@CMainFrame@@QAEXXZ 004092b0 f   MainFrm.obj
 0001:000082b0       ?OnFolderChange@CFileDialog@@MAEXXZ 004092b0 f   uafxcw:dlgfile.obj
 0001:000082b0       ?OnDragLeave@CMFCBaseTabCtrl@@UAEXXZ 004092b0 f   uafxcw:afxbasetabctrl.obj
 0001:000082b0       ?LoadCustomState@CWinAppEx@@MAEXXZ 004092b0 f   uafxcw:afxwinappex.obj
 0001:000082b0       ?AdjustPaneFrames@CPaneFrameWnd@@UAEXXZ 004092b0 f   uafxcw:afxpaneframewnd.obj
 0001:000082b0       ?OnClose@CSmartDockingHighlighterWnd@@IAEXXZ 004092b0 f   uafxcw:afxsmartdockinghighlighterwnd.obj
 0001:000082b0       ?AdjustLayout@CBasePane@@UAEXXZ 004092b0 f   WndActionList.obj
 0001:000082b0       ?SetRadio@CMFCToolBarButton@@UAEXXZ 004092b0 f   uafxcw:afxmenubar.obj
 0001:000082b0       ?LoadCustomState@CSEApp@@UAEXXZ 004092b0 f   SE.obj
 0001:000082b0       ?Update@XD3DView@@UAEXXZ   004092b0 f   AdjustView.obj
 0001:000082b0       ?OnCancel@CPropertyPage@@UAEXXZ 004092b0 f   uafxcw:dlgprop.obj
 0001:000082b0       ?OnFileOpen@CMainFrame@@QAEXXZ 004092b0 f   MainFrm.obj
 0001:000082b0       ?DuplicateData@CMFCToolBarComboBoxButton@@UAEXXZ 004092b0 f   uafxcw:afxmenubar.obj
 0001:000082b0       ?OnUnloadHandler@CDocument@@UAEXXZ 004092b0 f   uafxcw:doccore.obj
 0001:000082b0       ?PreLoadState@CWinAppEx@@MAEXXZ 004092b0 f   uafxcw:afxwinappex.obj
 0001:000082b0       ?OnAdded@XBaseKey@@UAEXXZ  004092b0 f   Key.obj
 0001:000082b0       ?SetTexture@XSurface@@UAEXXZ 004092b0 f   XGraphicsD3D.obj
 0001:000082b0       ?OnBnClickedMinidump@CCrashDlg@@QAEXXZ 004092b0 f   CrashDlg.obj
 0001:000082b0       ?SaveBarState@CMFCToolBarButton@@UAEXXZ 004092b0 f   uafxcw:afxmenubar.obj
 0001:000082b0       ??3@YAXPAX0@Z              004092b0 f   aldlist.obj
 0001:000082b0       ?OnRichPreviewSiteChanged@CDocument@@UAEXXZ 004092b0 f   SEDoc.obj
 0001:000082b0       ?OnClose@CSmartDockingStandaloneGuideWnd@@IAEXXZ 004092b0 f   uafxcw:afxsmartdockingguide.obj
 0001:000082b0       ?OnToolStop@CMainFrame@@QAEXXZ 004092b0 f   MainFrm.obj
 0001:000082b0       ?OnFileNameChange@CFileDialog@@MAEXXZ 004092b0 f   uafxcw:dlgfile.obj
 0001:000082b0       ?PreInitDialog@CDialog@@MAEXXZ 004092b0 f   uafxcw:dlgcore.obj
 0001:000082b0       ?OnClose@CSmartDockingGroupGuidesWnd@@QAEXXZ 004092b0 f   uafxcw:afxsmartdockingguide.obj
 0001:000082b0       ?OnChangeTabs@CMFCBaseTabCtrl@@UAEXXZ 004092b0 f   uafxcw:afxbasetabctrl.obj
 0001:000082b0       ?OnSysColorChange@CMFCShadowRenderer@@UAEXXZ 004092b0 f   uafxcw:afxcontrolrenderer.obj
 0001:000082b0       ?OnBeforeRichPreviewFontChanged@CDocument@@UAEXXZ 004092b0 f   SEDoc.obj
 0001:000082b0       ?OnReset@CMFCToolBar@@UAEXXZ 004092b0 f   uafxcw:afxtoolbar.obj
 0001:000082b0       ?Unlock@XSurface@@UAEXXZ   004092b0 f   XGraphicsD3D.obj
 0001:000082b0       ?OnDrawCaption@CBasePane@@UAEXXZ 004092b0 f   WndActionList.obj
 0001:000082b0       ?DropDownList@CMFCRibbonEdit@@UAEXXZ 004092b0 f   uafxcw:afxribbonedit.obj
 0001:000082b0       ?OnAfterCreatePopupMenu@CMFCToolBarMenuButton@@UAEXXZ 004092b0 f   uafxcw:afxtoolbarmenubutton.obj
 0001:000082b0       ?StopBGMusic@XSoundMng@@UAEXXZ 004092b0 f   XSoundMng.obj
 0001:000082b0       ?OnCompConverter@CMainFrame@@QAEXXZ 004092b0 f   MainFrm.obj
 0001:000082b0       ?OnInitToolsPage@CMFCToolBarsCustomizeDialog@@MAEXXZ 004092b0 f   uafxcw:afxtoolbarscustomizedialog.obj
 0001:000082b0       ?ClearData@CMFCToolBarComboBoxButton@@UAEXXZ 004092b0 f   uafxcw:afxmenubar.obj
 0001:000082b0       ?OnGlobalFontsChanged@CMFCToolBarButton@@UAEXXZ 004092b0 f   uafxcw:afxtoolbarmenubutton.obj
 0001:000082b0       ?OnOK@CPropertyPage@@UAEXXZ 004092b0 f   uafxcw:dlgprop.obj
 0001:000082b0       ?Close@XBaseRes@@UAEXXZ    004092b0 f   ConstantDefine.obj
 0001:000082b0       ?OnRichPreviewFontChanged@CDocument@@UAEXXZ 004092b0 f   SEDoc.obj
 0001:000082b0       ?InitLibId@CWinApp@@UAEXXZ 004092b0 f   uafxcw:appui2.obj
 0001:000082b0       ?Flush@CMemFile@@UAEXXZ    004092b0 f   uafxcw:filemem.obj
 0001:000082b0       ?PostNcDestroy@COleCntrFrameWnd@@MAEXXZ 004092b0 f   uafxcw:oleipfrm.obj
 0001:000082b0       ?UpdateStats@CD3DApplication@@MAEXXZ 004092b0 f   d3dapp.obj
 0001:000082b0       ?Draw@XMyD3DView@@MAEXXZ   004092b0 f   FrameView.obj
 0001:000082b0       ?OnRichPreviewBackColorChanged@CDocument@@UAEXXZ 004092b0 f   SEDoc.obj
 0001:000082b0       ?OnScrollUp@CMFCOutlookBarTabCtrl@@MAEXXZ 004092b0 f   uafxcw:afxoutlookbartabctrl.obj
 0001:000082b0       ?RecalcLayout@CBasePane@@UAEXXZ 004092b0 f   uafxcw:afxbasepane.obj
 0001:000082b0       ?DeleteContents@CDocument@@UAEXXZ 004092b0 f   uafxcw:doccore.obj
 0001:000082b0       ?OnUpdateSystemColors@CMFCVisualManager@@UAEXXZ 004092b0 f   uafxcw:afxvisualmanager.obj
 0001:000082b0       ?Destroy@CSmartDockingGroupGuide@@UAEXXZ 004092b0 f   uafxcw:afxsmartdockingguide.obj
 0001:000082b0       ?OnNcPaint@CMFCPopupMenuBar@@IAEXXZ 004092b0 f   uafxcw:afxpopupmenubar.obj
 0001:000082b0       ?OnContinueMoving@CDockablePane@@MAEXXZ 004092b0 f   WndActionList.obj
 0001:000082b0       ?CheckGripperVisibility@CPaneFrameWnd@@UAEXXZ 004092b0 f   uafxcw:afxpaneframewnd.obj
 0001:000082b0       ?SaveCustomState@CWinAppEx@@MAEXXZ 004092b0 f   uafxcw:afxwinappex.obj
 0001:000082b0       ?StretchHorizontally@CMFCRibbonBaseElement@@UAEXXZ 004092b0 f   uafxcw:afxribbonbar.obj
 0001:000082b0       ?DestroyCtrl@CMFCRibbonBaseElement@@UAEXXZ 004092b0 f   uafxcw:afxribbonbar.obj
 0001:000082b0       ?OnNcPaint@CMFCOutlookBarToolBar@@QAEXXZ 004092b0 f   uafxcw:afxoutlookbartabctrl.obj
 0001:000082b0       ?PlayBGMusic@XSoundMng@@UAEXXZ 004092b0 f   XSoundMng.obj
 0001:000082b0       ?OnSysColorChange@CMFCCaptionBar@@IAEXXZ 004092b0 f   uafxcw:afxcaptionbar.obj
 0001:000082b0       ?OnSelectionChanged@CVSListBoxBase@@UAEXXZ 004092b0 f   uafxcw:afxvslistbox.obj
 0001:000082b0       ?OnTypeChange@CFileDialog@@MAEXXZ 004092b0 f   uafxcw:dlgfile.obj
 0001:000082b0       ?OnCancelMode@CMFCToolBarButton@@UAEXXZ 004092b0 f   uafxcw:afxmenubar.obj
 0001:000082b0       ?OnMove@CMFCToolBarButton@@UAEXXZ 004092b0 f   uafxcw:afxtoolbarmenubutton.obj
 0001:000082b0       ?OnDragLeave@CView@@UAEXXZ 004092b0 f   uafxcw:viewcore.obj
 0001:000082b0       ?OnBnClickedButtCreateobj@CMainFrame@@QAEXXZ 004092b0 f   MainFrm.obj
 0001:000082c0       ?Pause@CD3DApplication@@UAEX_N@Z 004092c0 f   d3dapp.obj
 0001:00008560       ?Cleanup3DEnvironment@CD3DApplication@@IAEXXZ 00409560 f   d3dapp.obj
 0001:000085b0       ?DisplayErrorMsg@CD3DApplication@@IAEJJK@Z 004095b0 f   d3dapp.obj
 0001:00008900       ?OnDestroy@CTaskDialog@@MAEJXZ 00409900 f i uafxcw:afxtaskdialog.obj
 0001:00008900       ?DeleteDeviceObjects@CMainFrame@@UAEJXZ 00409900 f i MainFrm.obj
 0001:00008900       ?CanBeStretched@CMFCRibbonButtonsGroup@@MAEHXZ 00409900 f i uafxcw:afxribbonquickaccesstoolbar.obj
 0001:00008900       ?InvalidateDeviceObjects@CD3DApplication@@MAEJXZ 00409900 f i d3dapp.obj
 0001:00008900       ?IsOwnerDrawMenuCheck@CMFCVisualManager@@UAEHXZ 00409900 f i uafxcw:afxvisualmanager.obj
 0001:00008900       ?Getc@XBaseRes@@UAEHXZ     00409900 f i ConstantDefine.obj
 0001:00008900       ?HaveHotBorder@CMFCToolBarMenuButtonsButton@@UBEHXZ 00409900 f i uafxcw:afxtoolbarmenubuttonsbutton.obj
 0001:00008900       ?AlwaysSaveSelection@CMFCPopupMenuBar@@MBEHXZ 00409900 f i uafxcw:afxcolorbar.obj
 0001:00008900       ?IsEditable@CMFCCustomizeButton@@UBEHXZ 00409900 f i uafxcw:afxcustomizebutton.obj
 0001:00008900       ?OnColorOK@CColorDialog@@MAEHXZ 00409900 f i uafxcw:dlgclr.obj
 0001:00008900       ?CanFloat@CMFCOutlookBarPane@@MBEHXZ 00409900 f i uafxcw:afxoutlookbarpane.obj
 0001:00008900       ?IsBlank@CDocItem@@UBEHXZ  00409900 f i uafxcw:oledoc1.obj
 0001:00008900       ?GetTypeLibCache@CCmdTarget@@UAEPAVCTypeLibCache@@XZ 00409900 f i uafxcw:cmdtarg.obj
 0001:00008900       ?AllowShowOnList@CMFCPopupMenuBar@@MBEHXZ 00409900 f i uafxcw:afxpopupmenubar.obj
 0001:00008900       ?IsDockingTabHasBorder@CMFCVisualManagerOffice2003@@UAEHXZ 00409900 f i uafxcw:afxvisualmanageroffice2003.obj
 0001:00008900       ?IsTabbed@CMFCOutlookBarToolBar@@UBEHXZ 00409900 f i uafxcw:afxoutlookbartabctrl.obj
 0001:00008900       ?IsOwnerDrawCaption@CMFCVisualManager@@UAEHXZ 00409900 f i uafxcw:afxvisualmanager.obj
 0001:00008900       ?GetApplicationRecoveryParameter@CWinApp@@UAEPAXXZ 00409900 f i SE.obj
 0001:00008900       ?DoesAllowDynInsertBefore@CMFCOutlookBar@@UBEHXZ 00409900 f i uafxcw:afxoutlookbar.obj
 0001:00008900       ?OnFileNameOK@CFileDialog@@MAEHXZ 00409900 f i uafxcw:dlgfile.obj
 0001:00008900       ?HaveHotBorder@CMFCToolBarMenuButton@@UBEHXZ 00409900 f i uafxcw:afxtoolbarmenubutton.obj
 0001:00008900       ?AllowChangeTextLabels@CMFCMenuBar@@UBEHXZ 00409900 f i uafxcw:afxmenubar.obj
 0001:00008900       ?Render@CD3DApplication@@MAEJXZ 00409900 f i d3dapp.obj
 0001:00008900       ?AlwaysHighlight3DTabs@CMFCVisualManager@@UBEHXZ 00409900 f i uafxcw:afxvisualmanager.obj
 0001:00008900       ?HasCompactMode@CMFCRibbonBaseElement@@UBEHXZ 00409900 f i uafxcw:afxbaseribbonelement.obj
 0001:00008900       ?InitInstance@CWinThread@@UAEHXZ 00409900 f i uafxcw:thrdcore.obj
 0001:00008900       ?OnClickUp@CMFCToolBarButton@@UAEHXZ 00409900 f i uafxcw:afxmenubar.obj
 0001:00008900       ?HasButton@CMFCToolBarMenuButton@@UBEHXZ 00409900 f i uafxcw:afxtoolbarmenubutton.obj
 0001:00008900       ?OnAutoRepeat@CMFCRibbonBaseElement@@UAEHXZ 00409900 f i uafxcw:afxribbonbar.obj
 0001:00008900       ?AllowShowOnPaneMenu@CMFCPrintPreviewToolBar@@MBEHXZ 00409900 f i uafxcw:afxpreviewviewex.obj
 0001:00008900       ?IsOffsetPressedButton@CMFCVisualManagerOffice2003@@UBEHXZ 00409900 f i uafxcw:afxvisualmanageroffice2003.obj
 0001:00008900       ?HasMenu@CMFCRibbonBaseElement@@UBEHXZ 00409900 f i uafxcw:afxbaseribbonelement.obj
 0001:00008900       ?CanBeStored@CMFCCustomizeButton@@UBEHXZ 00409900 f i uafxcw:afxcustomizebutton.obj
 0001:00008900       ?OnNavigatePage@CTaskDialog@@MAEJXZ 00409900 f i uafxcw:afxtaskdialog.obj
 0001:00008900       ?IsDockBar@CControlBar@@UBEHXZ 00409900 f i uafxcw:barcore.obj
 0001:00008900       __matherr                  00409900 f i libcmt:matherr.obj
 0001:00008900       ?GetParentWnd@CMFCBaseAccessibleObject@@UBEPAVCWnd@@XZ 00409900 f i uafxcw:afxbaseribbonelement.obj
 0001:00008900       ?AllowShowOnList@CMFCOutlookBarToolBar@@UBEHXZ 00409900 f i uafxcw:afxoutlookbartabctrl.obj
 0001:00008900       ?IsGalleryIcon@CMFCRibbonBaseElement@@UBEHXZ 00409900 f i uafxcw:afxribbonbar.obj
 0001:00008900       ?IsRibbonPanelInRegularMode@CMFCPopupMenuBar@@UBEHXZ 00409900 f i uafxcw:afxcolorbar.obj
 0001:00008900       ?CanBeStretched@CMFCToolBarButton@@UBEHXZ 00409900 f i uafxcw:afxtoolbarmenubutton.obj
 0001:00008900       ?IsButtonExtraSizeAvailable@CMFCMenuBar@@UBEHXZ 00409900 f i uafxcw:afxmenubar.obj
 0001:00008900       ?AllowShowOnPaneMenu@CMFCOutlookBarToolBar@@UBEHXZ 00409900 f i uafxcw:afxoutlookbartabctrl.obj
 0001:00008900       ?AllowShowOnPaneMenu@CAutoHideDockSite@@UBEHXZ 00409900 f i uafxcw:afxautohidedocksite.obj
 0001:00008900       ?CanBeStored@CMFCToolBarSystemMenuButton@@UBEHXZ 00409900 f i uafxcw:afxtoolbarsystemmenubutton.obj
 0001:00008900       ?AllowSelectDisabled@CMFCToolBar@@MBEHXZ 00409900 f i uafxcw:afxtoolbar.obj
 0001:00008900       ?HaveHotBorder@CMFCToolBarSystemMenuButton@@UBEHXZ 00409900 f i uafxcw:afxtoolbarsystemmenubutton.obj
 0001:00008900       ?AllowShowOnPaneMenu@CMFCPopupMenuBar@@MBEHXZ 00409900 f i uafxcw:afxcolorbar.obj
 0001:00008900       ?CanBeTabbedDocument@CBasePane@@UBEHXZ 00409900 f i uafxcw:afxbasepane.obj
 0001:00008900       ?DoesAllowDynInsertBefore@CMFCCaptionBar@@UBEHXZ 00409900 f i uafxcw:afxcaptionbar.obj
 0001:00008900       ?IsButtonExtraSizeAvailable@CMFCPopupMenuBar@@MBEHXZ 00409900 f i uafxcw:afxcolorbar.obj
 0001:00008900       ?IsFixedSize@CMFCRibbonPanel@@MBEHXZ 00409900 f i uafxcw:afxribbonpanel.obj
 0001:00008900       ?IsExclusive@CMFCToolBarMenuButton@@UBEHXZ 00409900 f i uafxcw:afxtoolbarmenubutton.obj
 0001:00008900       ?CanBeStretched@CMFCRibbonEdit@@UAEHXZ 00409900 f i uafxcw:afxribbonedit.obj
 0001:00008900       ?HasLargeMode@CMFCRibbonBaseElement@@UBEHXZ 00409900 f i uafxcw:afxbaseribbonelement.obj
 0001:00008900       ?GetApplicationRestartFlags@CWinApp@@UAEKXZ 00409900 f i SE.obj
 0001:00008900       ?AllowShowOnPaneMenu@CMFCMenuBar@@UBEHXZ 00409900 f i uafxcw:afxmenubar.obj
 0001:00008900       ?IsButtonExtraSizeAvailable@CMFCImageEditorPaletteBar@@EBEHXZ 00409900 f i uafxcw:afximageeditordialog.obj
 0001:00008900       ?CanFocus@CMFCToolBar@@UBEHXZ 00409900 f i uafxcw:afxtoolbar.obj
 0001:00008900       ?GetDockingPaneCaptionExtraHeight@CMFCVisualManagerWindows@@UBEHXZ 00409900 f i uafxcw:afxvisualmanagerwindows.obj
 0001:00008900       ?IsEditable@CHelpComboBoxButton@@UBEHXZ 00409900 f i uafxcw:afxmenubar.obj
 0001:00008900       ?GetHwnd@CMFCToolBarButton@@UAEPAUHWND__@@XZ 00409900 f i uafxcw:afxtoolbarmenubutton.obj
 0001:00008900       ?OnClickMenuItem@CMFCToolBarMenuButton@@UAEHXZ 00409900 f i uafxcw:afxtoolbarmenubutton.obj
 0001:00008900       ?EditDialog@XKeyImage@@UAEHXZ 00409900 f i SprDat.obj
 0001:00008900       ?AllowChangeTextLabels@CMFCColorBar@@MBEHXZ 00409900 f i uafxcw:afxcolorbar.obj
 0001:00008900       ?IsFlatFrame@CMFCBaseTabCtrl@@UBEHXZ 00409900 f i uafxcw:afxbasetabctrl.obj
 0001:00008900       ?InitDeviceObjects@CMainFrame@@UAEJXZ 00409900 f i MainFrm.obj
 0001:00008900       ?IsLayeredRibbonKeyTip@CMFCVisualManager@@UBEHXZ 00409900 f i uafxcw:afxvisualmanager.obj
 0001:00008900       ?IsWindowsThemingSupported@CMFCVisualManager@@UBEHXZ 00409900 f i uafxcw:afxvisualmanager.obj
 0001:00008900       ?IsEndOfRes@XBaseRes@@UAEHXZ 00409900 f i ConstantDefine.obj
 0001:00008900       ?IsAlignByColumn@CMFCRibbonButtonsGroup@@MBEHXZ 00409900 f i uafxcw:afxribbonquickaccesstoolbar.obj
 0001:00008900       ?IsEmptyMenuAllowed@CMFCToolBarMenuButton@@UBEHXZ 00409900 f i uafxcw:afxtoolbarmenubutton.obj
 0001:00008900       ?IsAlwaysClose@CMFCPopupMenu@@UBEHXZ 00409900 f i uafxcw:afxpopupmenu.obj
 0001:00008900       ?IsBorder@CMFCToolBarSystemMenuButton@@UBEHXZ 00409900 f i uafxcw:afxtoolbarsystemmenubutton.obj
 0001:00008900       ?OnWizardBack@CPropertyPage@@UAEJXZ 00409900 f i uafxcw:dlgprop.obj
 0001:00008900       ?FinalCleanup@CD3DApplication@@MAEJXZ 00409900 f i d3dapp.obj
 0001:00008900       ?GetOccDialogInfo@CWnd@@MAEPAU_AFX_OCC_DIALOG_INFO@@XZ 00409900 f i uafxcw:wincore.obj
 0001:00008900       ?InitDeviceObjects@CD3DApplication@@MAEJXZ 00409900 f i d3dapp.obj
 0001:00008900       ?IsLeftRightRounded@CMFCBaseTabCtrl@@UBEHXZ 00409900 f i uafxcw:afxbasetabctrl.obj
 0001:00008900       ?IsAccessibilityCompatible@CDockSite@@UAEHXZ 00409900 f i uafxcw:afxautohidedocksite.obj
 0001:00008900       ?IsTabStop@CRibbonUndoLabel@@UBEHXZ 00409900 f i uafxcw:afxribbonundobutton.obj
 0001:00008900       ?IsFlatTab@CMFCBaseTabCtrl@@UBEHXZ 00409900 f i uafxcw:afxbasetabctrl.obj
 0001:00008900       ?IsWholeRowHeight@CMFCRibbonBaseElement@@UBEHXZ 00409900 f i uafxcw:afxribbonbar.obj
 0001:00008900       ?OnWizardNext@CPropertyPage@@UAEJXZ 00409900 f i uafxcw:dlgprop.obj
 0001:00008900       ?GetPopupMenuGap@CMFCVisualManagerOfficeXP@@MBEHXZ 00409900 f i uafxcw:afxvisualmanagerofficexp.obj
 0001:00008900       ?IsButtonExtraSizeAvailable@CMFCTasksPaneToolBar@@UBEHXZ 00409900 f i uafxcw:afxtaskspane.obj
 0001:00008900       ?IsDefaultPanelButton@CMFCRibbonButton@@UBEHXZ 00409900 f i uafxcw:afxribbonbar.obj
 0001:00008900       ?IsShowTooltipOnBottom@CMFCRibbonTab@@UBEHXZ 00409900 f i uafxcw:afxribboncategory.obj
 0001:00008900       ?IsShowTooltipOnBottom@CMFCRibbonCaptionButton@@MBEHXZ 00409900 f i uafxcw:afxribbonbar.obj
 0001:00008900       ?FrameMove@CD3DApplication@@MAEJXZ 00409900 f i d3dapp.obj
 0001:00008900       ?IsDroppedDown@CMFCToolBarButton@@UBEHXZ 00409900 f i uafxcw:afxmenubar.obj
 0001:00008900       ?AllowShowOnPaneMenu@CMFCStatusBar@@MBEHXZ 00409900 f i uafxcw:afxstatusbar.obj
 0001:00008900       ?AlwaysSaveSelection@CMFCToolBar@@MBEHXZ 00409900 f i uafxcw:afxtoolbar.obj
 0001:00008900       ?IsTabbedMDIChild@CMDIChildWnd@@UAEHXZ 00409900 f i uafxcw:winmdi.obj
 0001:00008900       ?AllowShowOnList@CMFCOutlookBarPane@@MBEHXZ 00409900 f i uafxcw:afxoutlookbarpane.obj
 0001:00008900       ?IsItemMenuLook@CMFCRibbonGallery@@MBEHXZ 00409900 f i uafxcw:afxribbonpalettegallery.obj
 0001:00008900       ?CanBeClosed@CMFCMenuBar@@UBEHXZ 00409900 f i uafxcw:afxmenubar.obj
 0001:00008900       ?IsActiveTabCloseButton@CMFCBaseTabCtrl@@UBEHXZ 00409900 f i uafxcw:afxbasetabctrl.obj
 0001:00008900       ?IsResizable@CDockSite@@UBEHXZ 00409900 f i uafxcw:afxautohidedocksite.obj
 0001:00008900       ?GetRibbonQuickAccessToolBarRightMargin@CMFCVisualManager@@UAEHXZ 00409900 f i uafxcw:afxvisualmanager.obj
 0001:00008900       ?IsBGMusic@XSoundMng@@UAEHXZ 00409900 f i XSoundMng.obj
 0001:00008900       ?IsResizable@CPane@@UBEHXZ 00409900 f i uafxcw:afxpane.obj
 0001:00008900       ?IsMainPanel@CMFCRibbonPanel@@UBEHXZ 00409900 f i uafxcw:afxribbonpanel.obj
 0001:00008900       ?IsTabStop@CMFCRibbonLabel@@MBEHXZ 00409900 f i uafxcw:afxribbonlabel.obj
 0001:00008900       ?DoesAllowDynInsertBefore@CMFCStatusBar@@UBEHXZ 00409900 f i uafxcw:afxstatusbar.obj
 0001:00008900       ?IsCaptionButton@CMFCRibbonBaseElement@@MBEHXZ 00409900 f i uafxcw:afxribbonbar.obj
 0001:00008900       ?EditDialog@XBaseKey@@UAEHXZ 00409900 f i Key.obj
 0001:00008900       ?IsSeparator@CMFCRibbonBaseElement@@UBEHXZ 00409900 f i uafxcw:afxribbonbar.obj
 0001:00008900       ?GetGroupOffset@CMFCRibbonGallery@@UBEHXZ 00409900 f i uafxcw:afxribbonpalettegallery.obj
 0001:00008900       ?IsRibbonMiniToolBar@CMFCPopupMenu@@MBEHXZ 00409900 f i uafxcw:afxpopupmenu.obj
 0001:00008900       ?AllowAltCustomization@CMFCPopupMenuBar@@MBEHXZ 00409900 f i uafxcw:afxcolorbar.obj
 0001:00008900       ?AllowShowOnList@CMFCTasksPaneToolBar@@UBEHXZ 00409900 f i uafxcw:afxtaskspane.obj
 0001:00008900       ?HideInPrintPreviewMode@CMFCStatusBar@@MBEHXZ 00409900 f i uafxcw:afxstatusbar.obj
 0001:00008900       ?OnInit@CTaskDialog@@MAEJXZ 00409900 f i uafxcw:afxtaskdialog.obj
 0001:00008900       ?AllowShowOnPaneMenu@CMFCOutlookBarPane@@MBEHXZ 00409900 f i uafxcw:afxoutlookbarpane.obj
 0001:00008900       ?GetRibbonQuickAccessToolBarChevronOffset@CMFCVisualManager@@UAEHXZ 00409900 f i uafxcw:afxvisualmanager.obj
 0001:00008900       ?IsQuickAccessToolBar@CMFCRibbonButtonsGroup@@MBEHXZ 00409900 f i uafxcw:afxribbonmainpanel.obj
 0001:00008900       ?GetDefaultAccelerator@CDocument@@UAEPAUHACCEL__@@XZ 00409900 f i uafxcw:doccore.obj
 0001:00008900       ?HasAutoHideMode@CBaseTabbedPane@@UBEHXZ 00409900 f i uafxcw:afxbasetabbedpane.obj
 0001:00008900       ?IsOneNoteStyle@CMFCBaseTabCtrl@@UBEHXZ 00409900 f i uafxcw:afxbasetabctrl.obj
 0001:00008900       ?GetTypeInfoCount@CCmdTarget@@UAEIXZ 00409900 f i uafxcw:cmdtarg.obj
 0001:00008900       ?AllowShowOnPaneMenu@CMFCDropDownToolBar@@UBEHXZ 00409900 f i uafxcw:afxdropdowntoolbar.obj
 0001:00008900       ?AllowShowOnPaneMenu@CMFCAutoHideBar@@UBEHXZ 00409900 f i uafxcw:afxautohidebar.obj
 0001:00008900       ?HasFocus@CMFCRibbonBaseElement@@UBEHXZ 00409900 f i uafxcw:afxribbonbar.obj
 0001:00008900       ?CanBeAttached@CBasePane@@UBEHXZ 00409900 f i uafxcw:afxbasepane.obj
 0001:00008900       ?CanBeStretchedHorizontally@CMFCRibbonBaseElement@@UAEHXZ 00409900 f i uafxcw:afxribbonbar.obj
 0001:00008900       ?IsTabStop@CMFCRibbonSeparator@@MBEHXZ 00409900 f i uafxcw:afxbaseribbonelement.obj
 0001:00008900       ?GetDefaultMenu@CDocument@@UAEPAUHMENU__@@XZ 00409900 f i uafxcw:doccore.obj
 0001:00008900       ?OneTimeSceneInit@CMainFrame@@UAEJXZ 00409900 f i MainFrm.obj
 0001:00008900       ?IsInFloatingMultiPaneFrameWnd@CPane@@UBEHXZ 00409900 f i uafxcw:afxpane.obj
 0001:00008900       ?GetDockingPaneCaptionExtraHeight@CMFCVisualManager@@UBEHXZ 00409900 f i uafxcw:afxvisualmanager.obj
 0001:00008900       ?GetCaptionHeight@CBasePane@@UBEHXZ 00409900 f i uafxcw:afxbasepane.obj
 0001:00008900       ?IsReadOnly@CMDIChildWndEx@@UAEHXZ 00409900 f i uafxcw:afxmdichildwndex.obj
 0001:00008900       ?IsAutoHideMode@CBasePane@@UBEHXZ 00409900 f i uafxcw:afxbasepane.obj
 0001:00008900       ?IsAccessibilityCompatible@CDockablePane@@UAEHXZ 00409900 f i WndActionList.obj
 0001:00008900       ?IsApplicationButton@CMFCRibbonButton@@UBEHXZ 00409900 f i uafxcw:afxribbonbar.obj
 0001:00008900       ?DeleteDeviceObjects@CD3DApplication@@MAEJXZ 00409900 f i d3dapp.obj
 0001:00008900       ?CanBeAddedToQuickAccessToolBar@CMFCRibbonLabel@@MBEHXZ 00409900 f i uafxcw:afxribbonlabel.obj
 0001:00008900       ?HasLargeMode@CMFCRibbonEdit@@UBEHXZ 00409900 f i uafxcw:afxribbonedit.obj
 0001:00008900       ?IsVS2005Style@CMFCBaseTabCtrl@@UBEHXZ 00409900 f i uafxcw:afxbasetabctrl.obj
 0001:00008900       ?IsInFloatingMultiPaneFrameWnd@CBasePane@@UBEHXZ 00409900 f i uafxcw:afxbasepane.obj
 0001:00008900       ?HasOverlappedAutoHideButtons@CMFCVisualManager@@UBEHXZ 00409900 f i uafxcw:afxvisualmanager.obj
 0001:00008900       ?IsFrameWnd@CWnd@@UBEHXZ   00409900 f i uafxcw:wincore.obj
 0001:00008900       ?AllowShowOnPaneMenu@CMFCTasksPaneToolBar@@UBEHXZ 00409900 f i uafxcw:afxtaskspane.obj
 0001:00008900       ?DoesAllowDynInsertBefore@CDockSite@@UBEHXZ 00409900 f i uafxcw:afxautohidedocksite.obj
 0001:00008900       ?Printf@XBaseRes@@UAAHPB_WZZ 00409900 f i ConstantDefine.obj
 0001:00008900       ?RestoreDeviceObjects@CMainFrame@@UAEJXZ 00409900 f i MainFrm.obj
 0001:00008900       ?IsRibbonPanel@CMFCPopupMenuBar@@UBEHXZ 00409900 f i uafxcw:afxcolorbar.obj
 0001:00008900       ?RestoreDeviceObjects@CD3DApplication@@MAEJXZ 00409900 f i d3dapp.obj
 0001:00008900       ?CanBeStored@CMFCToolBarMenuButtonsButton@@UBEHXZ 00409900 f i uafxcw:afxtoolbarmenubuttonsbutton.obj
 0001:00008900       ?OnCreate@CTaskDialog@@MAEJXZ 00409900 f i uafxcw:afxtaskdialog.obj
 0001:00008900       ?OneTimeSceneInit@CD3DApplication@@MAEJXZ 00409900 f i d3dapp.obj
 0001:00008900       ?IsHighlightWholeMenuItem@CMFCVisualManager@@UAEHXZ 00409900 f i uafxcw:afxvisualmanager.obj
 0001:00008900       ?IsToolBox@CMFCTasksPane@@UBEHXZ 00409900 f i uafxcw:afxtaskspane.obj
 0001:00008900       ?IsHighlightOneNoteTabs@CMFCVisualManager@@UBEHXZ 00409900 f i uafxcw:afxvisualmanager.obj
 0001:00008910       ?GetBufferPtr@CFile@@UAEIIIPAPAX0@Z 00409910 f i uafxcw:filecore.obj
 0001:00008910       ?OnDragOver@CMFCTabCtrl@@UAEKPAVCOleDataObject@@KVCPoint@@@Z 00409910 f i uafxcw:afxtabctrl.obj
 0001:00008910       ?OnUpdateToolTip@CMFCToolBarButton@@UAEHPAVCWnd@@HAAVCToolTipCtrl@@AAV?$CStringT@_WV?$StrTraitMFC@_WV?$ChTraitsCRT@_W@ATL@@@@@ATL@@@Z 00409910 f i uafxcw:afxtoolbarmenubutton.obj
 0001:00008910       ?OnGestureRotate@CWnd@@MAEHVCPoint@@N@Z 00409910 f i uafxcw:wincore.obj
 0001:00008910       ?OnDrop@CView@@UAEHPAVCOleDataObject@@KVCPoint@@@Z 00409910 f i uafxcw:viewcore.obj
 0001:00008910       ?OnGesturePan@CWnd@@MAEHVCPoint@@0@Z 00409910 f i uafxcw:wincore.obj
 0001:00008910       ?OnDragEnter@CMFCBaseTabCtrl@@UAEKPAVCOleDataObject@@KVCPoint@@@Z 00409910 f i uafxcw:afxbasetabctrl.obj
 0001:00008910       ?CreateDefaultMiniframe@CBasePane@@UAEPAVCPaneFrameWnd@@VCRect@@@Z 00409910 f i uafxcw:afxbasepane.obj
 0001:00008910       ?OnDragOver@CView@@UAEKPAVCOleDataObject@@KVCPoint@@@Z 00409910 f i uafxcw:viewcore.obj
 0001:00008910       ?NotifyControlCommand@CMFCRibbonBaseElement@@MAEHHHIJ@Z 00409910 f i uafxcw:afxbaseribbonelement.obj
 0001:00008910       ?ConfirmDevice@CD3DApplication@@UAEJPAU_D3DCAPS9@@KW4_D3DFORMAT@@1@Z 00409910 f i d3dapp.obj
 0001:00008910       ?OnDrop@CMFCBaseTabCtrl@@UAEHPAVCOleDataObject@@KVCPoint@@@Z 00409910 f i uafxcw:afxbasetabctrl.obj
 0001:00008910       ?OnDragOver@CMFCBaseTabCtrl@@UAEKPAVCOleDataObject@@KVCPoint@@@Z 00409910 f i uafxcw:afxbasetabctrl.obj
 0001:00008910       ?OnDragEnter@CView@@UAEKPAVCOleDataObject@@KVCPoint@@@Z 00409910 f i uafxcw:viewcore.obj
 0001:00008920       ??_ECD3DApplication@@UAEPAXI@Z 00409920 f i * CIL library *:* CIL module *
 0001:00008920       ??_GCD3DApplication@@UAEPAXI@Z 00409920 f i d3dapp.obj
 0001:00008950       ??1CD3DApplication@@UAE@XZ 00409950 f i d3dapp.obj
 0001:000089d0       ??1D3DAdapterInfo@@QAE@XZ  004099d0 f   d3denumeration.obj
 0001:00008a70       ??1D3DDeviceInfo@@QAE@XZ   00409a70 f   d3denumeration.obj
 0001:00008af0       ??1D3DDeviceCombo@@QAE@XZ  00409af0 f   d3denumeration.obj
 0001:00008bc0       ??1CD3DEnumeration@@QAE@XZ 00409bc0 f   d3denumeration.obj
 0001:00008cb0       ?Enumerate@CD3DEnumeration@@QAEJXZ 00409cb0 f   d3denumeration.obj
 0001:00009060       ?EnumerateDevices@CD3DEnumeration@@AAEJPAUD3DAdapterInfo@@PAVCArrayList@@@Z 0040a060 f   d3denumeration.obj
 0001:000091d0       ?EnumerateDeviceCombos@CD3DEnumeration@@AAEJPAUD3DDeviceInfo@@PAVCArrayList@@@Z 0040a1d0 f   d3denumeration.obj
 0001:00009590       ?BuildDepthStencilFormatList@CD3DEnumeration@@AAEXPAUD3DDeviceCombo@@@Z 0040a590 f   d3denumeration.obj
 0001:000096e0       ?BuildMultiSampleTypeList@CD3DEnumeration@@AAEXPAUD3DDeviceCombo@@@Z 0040a6e0 f   d3denumeration.obj
 0001:00009850       ?BuildDSMSConflictList@CD3DEnumeration@@AAEXPAUD3DDeviceCombo@@@Z 0040a850 f   d3denumeration.obj
 0001:00009910       ?BuildVertexProcessingTypeList@CD3DEnumeration@@AAEXPAUD3DDeviceInfo@@PAUD3DDeviceCombo@@@Z 0040a910 f   d3denumeration.obj
 0001:00009a00       ?BuildPresentIntervalList@CD3DEnumeration@@AAEXPAUD3DDeviceInfo@@PAUD3DDeviceCombo@@@Z 0040aa00 f   d3denumeration.obj
 0001:00009b40       ?MultisampleTypeToString@@YAPA_WW4_D3DMULTISAMPLE_TYPE@@@Z 0040ab40 f   d3dsettings.obj
 0001:00009c00       ?DialogProcHelper@@YGHPAUHWND__@@IIJ@Z 0040ac00 f   d3dsettings.obj
 0001:00009c10       ?ComboBoxAdd@CD3DSettingsDialog@@AAEXHPAXPA_W@Z 0040ac10 f   d3dsettings.obj
 0001:00009c50       ?ComboBoxSelect@CD3DSettingsDialog@@AAEXHPAX@Z 0040ac50 f   d3dsettings.obj
 0001:00009ce0       ?ComboBoxSelectIndex@CD3DSettingsDialog@@AAEXHH@Z 0040ace0 f   d3dsettings.obj
 0001:00009d30       ?ComboBoxClear@CD3DSettingsDialog@@AAEXH@Z 0040ad30 f   d3dsettings.obj
 0001:00009d60       ?ComboBoxContainsText@CD3DSettingsDialog@@AAE_NHPA_W@Z 0040ad60 f   d3dsettings.obj
 0001:00009e30       ?DialogProc@CD3DSettingsDialog@@QAEHPAUHWND__@@IIJ@Z 0040ae30 f   d3dsettings.obj
 0001:0000a240       ?AdapterChanged@CD3DSettingsDialog@@AAEXXZ 0040b240 f   d3dsettings.obj
 0001:0000a3f0       ?DeviceChanged@CD3DSettingsDialog@@AAEXXZ 0040b3f0 f   d3dsettings.obj
 0001:0000a4e0       ?WindowedFullscreenChanged@CD3DSettingsDialog@@AAEXXZ 0040b4e0 f   d3dsettings.obj
 0001:0000a8d0       ?AdapterFormatChanged@CD3DSettingsDialog@@AAEXXZ 0040b8d0 f   d3dsettings.obj
 0001:0000ad10       ?ResolutionChanged@CD3DSettingsDialog@@AAEXXZ 0040bd10 f   d3dsettings.obj
 0001:0000af50       ?RefreshRateChanged@CD3DSettingsDialog@@AAEXXZ 0040bf50 f   d3dsettings.obj
 0001:0000afa0       ?BackBufferFormatChanged@CD3DSettingsDialog@@AAEXXZ 0040bfa0 f   d3dsettings.obj
 0001:0000b550       ?DepthStencilBufferFormatChanged@CD3DSettingsDialog@@AAEXXZ 0040c550 f   d3dsettings.obj
 0001:0000b710       ?MultisampleTypeChanged@CD3DSettingsDialog@@AAEXXZ 0040c710 f   d3dsettings.obj
 0001:0000b8f0       ?MultisampleQualityChanged@CD3DSettingsDialog@@AAEXXZ 0040c8f0 f   d3dsettings.obj
 0001:0000b940       ?VertexProcessingChanged@CD3DSettingsDialog@@AAEXXZ 0040c940 f   d3dsettings.obj
 0001:0000b990       ?PresentIntervalChanged@CD3DSettingsDialog@@AAEXXZ 0040c990 f   d3dsettings.obj
 0001:0000b9e0       ?D3DUtil_SetDeviceCursor@@YAJPAUIDirect3DDevice9@@PAUHICON__@@H@Z 0040c9e0 f   d3dutil.obj
 0001:0000bd30       ?D3DUtil_D3DFormatToString@@YAPA_WW4_D3DFORMAT@@_N@Z 0040cd30 f   d3dutil.obj
 0001:0000c020       ?DXUtil_Timer@@YGMW4TIMER_COMMAND@@@Z 0040d020 f   dxutil.obj
 0001:0000c3f0       ?DXUtil_ConvertAnsiStringToWideCch@@YAJPA_WPBDH@Z 0040d3f0 f   dxutil.obj
 0001:0000c430       ??1CArrayList@@QAE@XZ      0040d430 f   dxutil.obj
 0001:0000c440       ?Add@CArrayList@@QAEJPAX@Z 0040d440 f   dxutil.obj
 0001:0000c500       ?GetPtr@CArrayList@@QAEPAXI@Z 0040d500 f   dxutil.obj
 0001:0000c530       ?Contains@CArrayList@@QAE_NPAX@Z 0040d530 f   dxutil.obj
 0001:0000c5c0       ?DrawTextLine@CDXUTTextHelper@@QAEJPB_W@Z 0040d5c0 f   DXUTText.obj
 0001:0000c790       ?DrawTextLine@CDXUTTextHelper@@QAEJAAUtagRECT@@KPB_W@Z 0040d790 f   DXUTText.obj
 0001:0000c920       ?Begin@CDXUTTextHelper@@QAEXXZ 0040d920 f   DXUTText.obj
 0001:0000ca80       ?End@CDXUTTextHelper@@QAEXXZ 0040da80 f   DXUTText.obj
 0001:0000cb60       ?GetMessageMap@XMyD3DView@@MBEPBUAFX_MSGMAP@@XZ 0040db60 f   XMyD3DView.obj
 0001:0000cb70       ?OnMouseActivate@CThumbView@@QAEHPAVCWnd@@II@Z 0040db70 f   ThumbView.obj
 0001:0000cb70       ?OnMouseActivate@XMyD3DView@@QAEHPAVCWnd@@II@Z 0040db70 f   XMyD3DView.obj
 0001:0000cb70       ?OnMouseActivate@XViewSpline@@QAEHPAVCWnd@@II@Z 0040db70 f   XViewSpline.obj
 0001:0000cb70       ?OnMouseActivate@CAdjustView@@QAEHPAVCWnd@@II@Z 0040db70 f   AdjustView.obj
 0001:0000cbd0       ?OnInitialUpdate@XMyD3DView@@MAEXXZ 0040dbd0 f   XMyD3DView.obj
 0001:0000cbd0       ?OnInitialUpdate@XViewGraph@@UAEXXZ 0040dbd0 f   XViewGraph.obj
 0001:0000cc00       ?OnSize@XViewSpline@@QAEXIHH@Z 0040dc00 f   XViewSpline.obj
 0001:0000cc00       ?OnSize@XViewGraph@@QAEXIHH@Z 0040dc00 f   XViewGraph.obj
 0001:0000cc00       ?OnSize@XMyD3DView@@QAEXIHH@Z 0040dc00 f   XMyD3DView.obj
 0001:0000cc00       ?OnSize@CFrameView@@QAEXIHH@Z 0040dc00 f   FrameView.obj
 0001:0000cc50       ?OnDraw@XMyD3DView@@MAEXPAVCDC@@@Z 0040dc50 f   XMyD3DView.obj
 0001:0000cd50       ?Load@CDefine@@QAE?AW4tagxRESULT@@PB_W@Z 0040dd50 f   ConstantDefine.obj
 0001:0000cf30       ?Find@CDefine@@QAEPAUDEFINE@1@PB_W@Z 0040df30 f   ConstantDefine.obj
 0001:0000cfa0       ?AddDefine@CDefine@@QAE?AW4tagxRESULT@@PB_WH0@Z 0040dfa0 f   ConstantDefine.obj
 0001:0000d210       ??1XResFile@@UAE@XZ        0040e210 f i ConstantDefine.obj
 0001:0000d280       ?WriteString@XBaseRes@@UAEHPA_W@Z 0040e280 f i ConstantDefine.obj
 0001:0000d2d0       ?ReadString@XBaseRes@@UAEHPA_W@Z 0040e2d0 f i ConstantDefine.obj
 0001:0000d320       ?LuaWrite@XBaseRes@@UAEXH@Z 0040e320 f i ConstantDefine.obj
 0001:0000d370       ?LuaRead@XBaseRes@@UAEHXZ  0040e370 f i ConstantDefine.obj
 0001:0000d3c0       ??1XBaseRes@@QAE@XZ        0040e3c0 f i ConstantDefine.obj
 0001:0000d3d0       ??_GXCrypto@@UAEPAXI@Z     0040e3d0 f i ConstantDefine.obj
 0001:0000d3d0       ??_EXCrypto@@UAEPAXI@Z     0040e3d0 f i * CIL library *:* CIL module *
 0001:0000d400       ??1XCrypto@@UAE@XZ         0040e400 f i ConstantDefine.obj
 0001:0000d410       ?Seek@XResFile@@UAEHJH@Z   0040e410 f i ConstantDefine.obj
 0001:0000d430       ?Getc@XResFile@@UAEHXZ     0040e430 f i ConstantDefine.obj
 0001:0000d440       ?IsEndOfRes@XResFile@@UAEHXZ 0040e440 f i ConstantDefine.obj
 0001:0000d460       ?LuaWrite@XResFile@@UAEXH@Z 0040e460 f i ConstantDefine.obj
 0001:0000d480       ?LuaRead@XResFile@@UAEHXZ  0040e480 f i ConstantDefine.obj
 0001:0000d4a0       ??_GXResFile@@UAEPAXI@Z    0040e4a0 f i ConstantDefine.obj
 0001:0000d4a0       ??_EXResFile@@UAEPAXI@Z    0040e4a0 f i * CIL library *:* CIL module *
 0001:0000d519       ??_EXResFile@@WMAI@AEPAXI@Z 0040e519 f i ConstantDefine.obj
 0001:0000d530       ??1CToken@@UAE@XZ          0040e530 f i ConstantDefine.obj
 0001:0000d570       ??_ECToken@@UAEPAXI@Z      0040e570 f i * CIL library *:* CIL module *
 0001:0000d570       ??_GCToken@@UAEPAXI@Z      0040e570 f i ConstantDefine.obj
 0001:0000d5c0       ?Init@CToken@@AAEXXZ       0040e5c0 f i ConstantDefine.obj
 0001:0000d660       ?XAlert@@YAHHPB_WZZ        0040e660 f   Alert.obj
 0001:0000d6d0       ?XConsole@@YAXPB_WZZ       0040e6d0 f i Alert.obj
 0001:0000d730       ?_CreateConvertUTF16ToEUCKR@@YAPADPB_W@Z 0040e730 f   ConvertString.obj
 0001:0000d880       ?_ConvertUTF16ToEUCKR@@YAPADPADHPB_W@Z 0040e880 f   ConvertString.obj
 0001:0000d9f0       ?_ConvertEUCKRToUTF16@@YAPA_WPA_WHPBD@Z 0040e9f0 f   ConvertString.obj
 0001:0000daf0       ??1?$CSimpleStringT@D$0A@@ATL@@QAE@XZ 0040eaf0 f i ConvertString.obj
 0001:0000daf0       ??1?$CStringT@DV?$StrTraitMFC@DV?$ChTraitsCRT@D@ATL@@@@@ATL@@QAE@XZ 0040eaf0 f i ConvertString.obj
 0001:0000daf0       ??1?$CSimpleStringT@_W$0A@@ATL@@QAE@XZ 0040eaf0 f i ConvertString.obj
 0001:0000daf0       ??1?$CStringT@_WV?$StrTraitMFC@_WV?$ChTraitsCRT@_W@ATL@@@@@ATL@@QAE@XZ 0040eaf0 f i ConvertString.obj
 0001:0000db10       ??0?$CSimpleStringT@_W$0A@@ATL@@QAE@PAUIAtlStringMgr@1@@Z 0040eb10 f i ConvertString.obj
 0001:0000db10       ??0?$CSimpleStringT@D$0A@@ATL@@QAE@PAUIAtlStringMgr@1@@Z 0040eb10 f i ConvertString.obj
 0001:0000db40       ?PrepareWrite@?$CSimpleStringT@D$0A@@ATL@@AAEPADH@Z 0040eb40 f i ConvertString.obj
 0001:0000db80       ?SetLength@?$CSimpleStringT@D$0A@@ATL@@AAEXH@Z 0040eb80 f i ConvertString.obj
 0001:0000dbb0       ?PrepareWrite2@?$CSimpleStringT@D$0A@@ATL@@AAEXH@Z 0040ebb0 f i ConvertString.obj
 0001:0000dc20       ?ThrowMemoryException@?$CSimpleStringT@D$0A@@ATL@@KAXXZ 0040ec20 f i ConvertString.obj
 0001:0000dc20       ?ThrowMemoryException@?$CSimpleStringT@_W$0A@@ATL@@KAXXZ 0040ec20 f i Debug.obj
 0001:0000dc30       ?Fork@?$CSimpleStringT@D$0A@@ATL@@AAEXH@Z 0040ec30 f i ConvertString.obj
 0001:0000dcb0       ?Reallocate@?$CSimpleStringT@D$0A@@ATL@@AAEXH@Z 0040ecb0 f i ConvertString.obj
 0001:0000dcf0       ?AtlThrowImpl@ATL@@YGXJ@Z  0040ecf0 f i ConvertString.obj
 0001:0000dd10       ?Release@CStringData@ATL@@QAEXXZ 0040ed10 f i ConvertString.obj
 0001:0000dd30       ??0?$CStringT@_WV?$StrTraitMFC@_WV?$ChTraitsCRT@_W@ATL@@@@@ATL@@QAE@XZ 0040ed30 f i ConvertString.obj
 0001:0000dd70       ?__xLog@@YAHHPB_WZZ        0040ed70 f   Debug.obj
 0001:0000e080       ??Y?$CStringT@_WV?$StrTraitMFC@_WV?$ChTraitsCRT@_W@ATL@@@@@ATL@@QAEAAV01@PBD@Z 0040f080 f i Debug.obj
 0001:0000e120       ??0?$CStringT@_WV?$StrTraitMFC@_WV?$ChTraitsCRT@_W@ATL@@@@@ATL@@QAE@PBDPAUIAtlStringMgr@1@@Z 0040f120 f i Debug.obj
 0001:0000e1c0       ??$sprintf_s@$0CAAA@@@YAHAAY0CAAA@DPBDZZ 0040f1c0 f i Debug.obj
 0001:0000e1e0       ??4?$CStringT@_WV?$StrTraitMFC@_WV?$ChTraitsCRT@_W@ATL@@@@@ATL@@QAEAAV01@PBD@Z 0040f1e0 f i Debug.obj
 0001:0000e270       ?Append@?$CSimpleStringT@_W$0A@@ATL@@QAEXPB_WH@Z 0040f270 f i Debug.obj
 0001:0000e340       ?GetManager@?$CStringT@_WV?$StrTraitMFC@_WV?$ChTraitsCRT@_W@ATL@@@@@ATL@@QBEPAUIAtlStringMgr@2@XZ 0040f340 f i Debug.obj
 0001:0000e360       ?_AtlGetStringResourceImage@ATL@@YAPBUATLSTRINGRESOURCEIMAGE@1@PAUHINSTANCE__@@PAUHRSRC__@@I@Z 0040f360 f i Debug.obj
 0001:0000e3d0       ?AtlGetStringResourceImage@ATL@@YAPBUATLSTRINGRESOURCEIMAGE@1@PAUHINSTANCE__@@I@Z 0040f3d0 f i Debug.obj
 0001:0000e400       ?AfxCrtErrorCheck@@YAHH@Z  0040f400 f i Debug.obj
 0001:0000e490       ?LoadStringW@?$CStringT@_WV?$StrTraitMFC@_WV?$ChTraitsCRT@_W@ATL@@@@@ATL@@QAEHPAUHINSTANCE__@@I@Z 0040f490 f i Debug.obj
 0001:0000e560       ?LoadStringW@?$CStringT@_WV?$StrTraitMFC@_WV?$ChTraitsCRT@_W@ATL@@@@@ATL@@QAEHI@Z 0040f560 f i Debug.obj
 0001:0000e590       ?CheckImplicitLoad@?$CStringT@_WV?$StrTraitMFC@_WV?$ChTraitsCRT@_W@ATL@@@@@ATL@@AAE_NPBX@Z 0040f590 f i Debug.obj
 0001:0000e5d0       ?Empty@?$CSimpleStringT@_W$0A@@ATL@@QAEXXZ 0040f5d0 f i Debug.obj
 0001:0000e630       ?Fork@?$CSimpleStringT@_W$0A@@ATL@@AAEXH@Z 0040f630 f i Debug.obj
 0001:0000e6b0       ?Reallocate@?$CSimpleStringT@_W$0A@@ATL@@AAEXH@Z 0040f6b0 f i Debug.obj
 0001:0000e6f0       ?PrepareWrite2@?$CSimpleStringT@_W$0A@@ATL@@AAEXH@Z 0040f6f0 f i Debug.obj
 0001:0000e760       ?PrepareWrite@?$CSimpleStringT@_W$0A@@ATL@@AAEPA_WH@Z 0040f760 f i Debug.obj
 0001:0000e7a0       ?SetLength@?$CSimpleStringT@_W$0A@@ATL@@AAEXH@Z 0040f7a0 f i Debug.obj
 0001:0000e7d0       ?SetString@?$CSimpleStringT@_W$0A@@ATL@@QAEXPB_WH@Z 0040f7d0 f i Debug.obj
 0001:0000e890       ?SetString@?$CSimpleStringT@_W$0A@@ATL@@QAEXPB_W@Z 0040f890 f i Debug.obj
 0001:0000e8d0       ??4?$CStringT@_WV?$StrTraitMFC@_WV?$ChTraitsCRT@_W@ATL@@@@@ATL@@QAEAAV01@PB_W@Z 0040f8d0 f i Debug.obj
 0001:0000e920       ??0?$CStringT@_WV?$StrTraitMFC@_WV?$ChTraitsCRT@_W@ATL@@@@@ATL@@QAE@PB_W@Z 0040f920 f i Debug.obj
 0001:0000e9e0       ?SetWorkDir@XE@@YAPB_WPB_W@Z 0040f9e0 f   path.obj
 0001:0000ea90       ?MakePath@XE@@YAPBDPBD0@Z  0040fa90 f   path.obj
 0001:0000eb40       ?LoadFile@CToken@@QAE?AW4tagxRESULT@@PB_WW4xtENCODING@@@Z 0040fb40 f   Token.obj
 0001:0000eeb0       ?SkipSpaceAndRemark@CToken@@QAEXAAPB_WAAH@Z 0040feb0 f   Token.obj
 0001:0000efe0       ?GetToken@CToken@@QAEPB_WXZ 0040ffe0 f   Token.obj
 0001:0000f440       ?GetNumber@CToken@@UAEHXZ  00410440 f   Token.obj
 0001:0000f630       ?IsNumeric@CToken@@QAE?AW4xTYPE@1@PB_W@Z 00410630 f   Token.obj
 0001:0000f6c0       ?CreateGetBlock@CToken@@QAEPADPBD@Z 004106c0 f   Token.obj
 0001:0000f810       ?Init@XGraphics@@AAEXXZ    00410810 f i XGraphics.obj
 0001:0000f880       ?Init@XGraphics@@QAEXHHW4xPixelFormat@@@Z 00410880 f   XGraphics.obj
 0001:0000f900       ?AlignPow2Width@XGraphics@@SAHH@Z 00410900 f   XGraphics.obj
 0001:0000f900       ?AlignPow2Height@XGraphics@@SAHH@Z 00410900 f   XGraphics.obj
 0001:0000f970       ?AlignPowSize@XGraphics@@SAHPAH0@Z 00410970 f   XGraphics.obj
 0001:0000fa40       ?ClippingLine@XGraphics@@QAEHPAUVEC2@XE@@PBU23@HMMMM@Z 00410a40 f   XGraphics.obj
 0001:0000fbc0       ?GetPixel@XSurface@@QAEKMMPAE000@Z 00410bc0 f   XSurface.obj
 0001:0000fe40       ?CopyRectTo@XSurface@@UAEXPAKHHHH@Z 00410e40 f   XSurface.obj
 0001:00010090       ?xRandom@@YAKK@Z           00411090 f   xUtil.obj
 0001:00010100       ?CalcFPS@@YAHXZ            00411100 f   xUtil.obj
 0001:000101b0       ?GetFilePath@XE@@YAPB_WPB_W@Z 004111b0 f   xUtil.obj
 0001:00010250       ?GetFileName@XE@@YAPB_WPB_W@Z 00411250 f   xUtil.obj
 0001:000102b0       ?ConvertBlockARGB_To_ABGR@XE@@YAXPAKH@Z 004112b0 f   xUtil.obj
 0001:000102b0       ?ConvertBlockABGR_To_ARGB@XE@@YAXPAKH@Z 004112b0 f   xUtil.obj
 0001:00010300       ?GetScreenWidth@XGraphics@@QAEHXZ 00411300 f i XFontDatDX.obj
 0001:00010360       ?GetScreenHeight@XGraphics@@QAEHXZ 00411360 f i XFontDatDX.obj
 0001:000103c0       ?CreateFontObj@XFontDatDX@@UAEPAVXBaseFontObj@@XZ 004113c0 f   XFontDatDX.obj
 0001:00010430       ?Create@XFontDatDX@@QAEHPB_WM@Z 00411430 f   XFontDatDX.obj
 0001:00010570       ?DrawString@XFontDatDX@@UAEMMMPB_WKW4xtStyle@xFONT@@@Z 00411570 f   XFontDatDX.obj
 0001:000107d0       ??1XBaseFontObj@@UAE@XZ    004117d0 f i XFontObjDX.obj
 0001:000107f0       ?GetLayoutSize@XBaseFontObj@@UAE?AUVEC2@XE@@PB_W@Z 004117f0 f i XFontObjDX.obj
 0001:00010850       ?CreateFontObj@XBaseFontObj@@UAEPAV1@PAVXBaseFontDat@@@Z 00411850 f i XFontObjDX.obj
 0001:000108a0       ??_EXBaseFontObj@@UAEPAXI@Z 004118a0 f i * CIL library *:* CIL module *
 0001:000108a0       ??_GXBaseFontObj@@UAEPAXI@Z 004118a0 f i XFontObjDX.obj
 0001:000108e0       ??1XFontObjDX@@UAE@XZ      004118e0 f i XFontObjDX.obj
 0001:00010990       ?GetFontHeight@XFontObjDX@@UAEMXZ 00411990 f i XFontObjDX.obj
 0001:000109a0       ?GetFontWidth@XFontObjDX@@UAEMXZ 004119a0 f i XFontObjDX.obj
 0001:000109b0       ??_EXFontObjDX@@UAEPAXI@Z  004119b0 f i * CIL library *:* CIL module *
 0001:000109b0       ??_GXFontObjDX@@UAEPAXI@Z  004119b0 f i XFontObjDX.obj
 0001:000109e0       ??0XFontObjDX@@QAE@PAVXBaseFontDat@@@Z 004119e0 f   XFontObjDX.obj
 0001:00010ab0       ?SetAlign@XBaseFontObj@@UAEXW4xAlign@@@Z 00411ab0 f   XBaseFontObj.obj
 0001:00010ab0       ?SetAlign@XFontObjDX@@UAEXW4xAlign@@@Z 00411ab0 f   XFontObjDX.obj
 0001:00010ad0       ?SetLineLength@XBaseFontObj@@UAEXM@Z 00411ad0 f   XBaseFontObj.obj
 0001:00010ad0       ?SetLineLength@XFontObjDX@@UAEXM@Z 00411ad0 f   XFontObjDX.obj
 0001:00010b00       ?SetColor@XFontObjDX@@UAEXK@Z 00411b00 f   XFontObjDX.obj
 0001:00010b00       ?SetColor@XBaseFontObj@@UAEXK@Z 00411b00 f   XBaseFontObj.obj
 0001:00010b20       ?GetLengthPixel@XFontObjDX@@UAEMPB_W@Z 00411b20 f   XFontObjDX.obj
 0001:00010b70       ?GetLayoutSize@XFontObjDX@@UAE?AUVEC2@XE@@PB_W@Z 00411b70 f   XFontObjDX.obj
 0001:00010c10       ?_RenderText@XFontObjDX@@UAEMMMPB_W@Z 00411c10 f   XFontObjDX.obj
 0001:00010f50       ?Init@XSurface@@AAEXXZ     00411f50 f i XGraphicsD3D.obj
 0001:00011000       ?ValueAssign@XSurfaceD3D@@UAEXPBVXSurface@@@Z 00412000 f i XGraphicsD3D.obj
 0001:00011000       ?ValueAssign@XSurface@@UAEXPBV1@@Z 00412000 f i XGraphicsD3D.obj
 0001:00011020       ??1XSurface@@UAE@XZ        00412020 f i XGraphicsD3D.obj
 0001:00011050       ?Create@XSurface@@UAE?AW4tagxRESULT@@MM@Z 00412050 f i XGraphicsD3D.obj
 0001:00011090       ?LoadTexture@XSurface@@UAE?AW4tagxRESULT@@PBDK@Z 00412090 f i XGraphicsD3D.obj
 0001:00011090       ?OnTearOffMenu@CFrameWndEx@@UAEHPAVCMFCPopupMenu@@PAVCPane@@@Z 00412090 f i MainFrm.obj
 0001:000110a0       ?DoRedo@XUndoKey@@UAEHXZ   004120a0 f i AnimationView.obj
 0001:000110a0       ?DoUndo@XUndoKey@@UAEHXZ   004120a0 f i AnimationView.obj
 0001:000110a0       ?CanBeAttached@CDockablePane@@UBEHXZ 004120a0 f i WndActionList.obj
 0001:000110a0       ?CanFocus@CBasePane@@UBEHXZ 004120a0 f i WndActionList.obj
 0001:000110a0       ?IsResizable@CDockablePane@@UBEHXZ 004120a0 f i WndActionList.obj
 0001:000110a0       ?HasAutoHideMode@CDockablePane@@UBEHXZ 004120a0 f i WndActionList.obj
 0001:000110a0       ?BeginScene@XGraphics@@UAE?AW4tagxRESULT@@XZ 004120a0 f i XGraphicsD3D.obj
 0001:000110a0       ?Restore@XSurface@@UAEHXZ  004120a0 f i XGraphicsD3D.obj
 0001:000110a0       ?IsTabLocationBottom@CDockablePane@@UBEHXZ 004120a0 f i WndActionList.obj
 0001:000110a0       ?DoUndo@XUndoObjAct@@UAEHXZ 004120a0 f i ActionListView.obj
 0001:000110a0       ?AllowShowOnPaneMenu@CPane@@UBEHXZ 004120a0 f i WndActionList.obj
 0001:000110a0       ?HideInPrintPreviewMode@CBasePane@@UBEHXZ 004120a0 f i WndActionList.obj
 0001:000110a0       ?DoRedo@XUndoObjAct@@UAEHXZ 004120a0 f i ActionListView.obj
 0001:000110a0       ?DoRedo@XUndoLayer@@UAEHXZ 004120a0 f i AnimationView.obj
 0001:000110a0       ?DoUndo@XUndoLayer@@UAEHXZ 004120a0 f i AnimationView.obj
 0001:000110b0       ?OnMenuButtonToolHitTest@CFrameWndEx@@UAEHPAVCMFCToolBarButton@@PAUtagTOOLINFOW@@@Z 004120b0 f i MainFrm.obj
 0001:000110b0       ?Create@CMFCShadowRenderer@@MAEHABVCMFCControlRendererInfo@@H@Z 004120b0 f i uafxcw:afxcontrolrenderer.obj
 0001:000110b0       ?OnMenuButtonToolHitTest@COleIPFrameWndEx@@UAEHPAVCMFCToolBarButton@@PAUtagTOOLINFOW@@@Z 004120b0 f i uafxcw:afxoleipframewndex.obj
 0001:000110b0       ?OnPostPreviewFrame@CFrameWndEx@@QAEJIJ@Z 004120b0 f i uafxcw:afxframewndex.obj
 0001:000110b0       ?OnGetIconicLivePreviewBitmap@CMDIChildWndEx@@UAEPAUHBITMAP__@@HAAVCPoint@@@Z 004120b0 f i uafxcw:afxmdichildwndex.obj
 0001:000110b0       ?GetPixel@XGraphics@@UAEHHH@Z 004120b0 f i XGraphicsD3D.obj
 0001:000110b0       ?OnRenderGlobalData@COleDataSource@@UAEHPAUtagFORMATETC@@PAPAX@Z 004120b0 f i uafxcw:oledobj2.obj
 0001:000110b0       ?OnClick@CMFCToolBarButton@@UAEHPAVCWnd@@H@Z 004120b0 f i uafxcw:afxcolorbar.obj
 0001:000110b0       ?OnGetIconicThumbnail@CMDIChildWndEx@@UAEPAUHBITMAP__@@HH@Z 004120b0 f i uafxcw:afxmdichildwndex.obj
 0001:000110b0       ?OnUserToolTip@CMFCPopupMenuBar@@MBEHPAVCMFCToolBarButton@@AAV?$CStringT@_WV?$StrTraitMFC@_WV?$ChTraitsCRT@_W@ATL@@@@@ATL@@@Z 004120b0 f i uafxcw:afxcolorbar.obj
 0001:000110b0       ?OnGestureTwoFingerTap@CWnd@@MAEHVCPoint@@@Z 004120b0 f i uafxcw:wincore.obj
 0001:000110b0       ?OnShowWindow@XOleClientSite@COleControlSite@@UAGJH@Z 004120b0 f i uafxcw:occsite.obj
 0001:000110b0       ?OnMenuButtonToolHitTest@CMDIFrameWndEx@@UAEHPAVCMFCToolBarButton@@PAUtagTOOLINFOW@@@Z 004120b0 f i uafxcw:afxmdiframewndex.obj
 0001:000110b0       ?OnClickPaletteSubItem@CMFCRibbonGallery@@MAEHPAVCMFCRibbonButton@@PAVCMFCRibbonPanelMenuBar@@@Z 004120b0 f i uafxcw:afxribbonpalettegallery.obj
 0001:000110b0       ?SetACCData@CMFCBaseAccessibleObject@@UAEHPAVCWnd@@AAVCAccessibilityData@@@Z 004120b0 f i uafxcw:afxbaseribbonelement.obj
 0001:000110b0       ?EnableModeless@XOleIPFrame@COleControlContainer@@UAGJH@Z 004120b0 f i uafxcw:occcont.obj
 0001:000110b0       ?OnFocus@XOleControlSite@COleControlSite@@UAGJH@Z 004120b0 f i uafxcw:occsite.obj
 0001:000110b0       ?OnNcActivate@CMFCVisualManager@@UAEHPAVCWnd@@H@Z 004120b0 f i uafxcw:afxvisualmanager.obj
 0001:000110b0       ?GetToolbarButtonToolTipText@CMDIFrameWndEx@@UAEHPAVCMFCToolBarButton@@AAV?$CStringT@_WV?$StrTraitMFC@_WV?$ChTraitsCRT@_W@ATL@@@@@ATL@@@Z 004120b0 f i uafxcw:afxmdiframewndex.obj
 0001:000110b0       ?OnShowControlBarMenu@CMFCBaseToolBar@@MAEHVCPoint@@@Z 004120b0 f i uafxcw:afxtoolbar.obj
 0001:000110b0       ?GetToolbarButtonToolTipText@CMDIChildWndEx@@UAEHPAVCMFCToolBarButton@@AAV?$CStringT@_WV?$StrTraitMFC@_WV?$ChTraitsCRT@_W@ATL@@@@@ATL@@@Z 004120b0 f i uafxcw:afxmdichildwndex.obj
 0001:000110b0       ?ReplaceByID@CMFCRibbonBaseElement@@MAEHIPAV1@@Z 004120b0 f i uafxcw:afxbaseribbonelement.obj
 0001:000110b0       ?GetToolbarButtonToolTipText@COleIPFrameWndEx@@UAEHPAVCMFCToolBarButton@@AAV?$CStringT@_WV?$StrTraitMFC@_WV?$ChTraitsCRT@_W@ATL@@@@@ATL@@@Z 004120b0 f i uafxcw:afxoleipframewndex.obj
 0001:000110b0       ?GetToolbarButtonToolTipText@CFrameWndEx@@UAEHPAVCMFCToolBarButton@@AAV?$CStringT@_WV?$StrTraitMFC@_WV?$ChTraitsCRT@_W@ATL@@@@@ATL@@@Z 004120b0 f i MainFrm.obj
 0001:000110b0       ?GetToolbarButtonToolTipText@COleDocIPFrameWndEx@@UAEHPAVCMFCToolBarButton@@AAV?$CStringT@_WV?$StrTraitMFC@_WV?$ChTraitsCRT@_W@ATL@@@@@ATL@@@Z 004120b0 f i uafxcw:afxoledocipframewndex.obj
 0001:000110b0       ?CreateDocumentWindow@CMDIFrameWndEx@@UAEPAVCMDIChildWndEx@@PB_WPAVCObject@@@Z 004120b0 f i uafxcw:afxmdiframewndex.obj
 0001:000110b0       ?GetWindow@CAccessibleProxy@ATL@@UAGJPAPAUHWND__@@@Z 004120b0 f i uafxcw:wincore.obj
 0001:000110b0       ?OnCtlColor@CMFCToolBarButton@@UAEPAUHBRUSH__@@PAVCDC@@I@Z 004120b0 f i uafxcw:afxtoolbarmenubutton.obj
 0001:000110b0       ?OnShowControlBarMenu@CMFCCaptionBar@@MAEHVCPoint@@@Z 004120b0 f i uafxcw:afxcaptionbar.obj
 0001:000110b0       ?OnRenderFileData@COleDataSource@@UAEHPAUtagFORMATETC@@PAVCFile@@@Z 004120b0 f i uafxcw:oledobj2.obj
 0001:000110b0       ?Lock@XSurface@@UAEPAXPAHH@Z 004120b0 f i XGraphicsD3D.obj
 0001:000110b0       ?OnMenuButtonToolHitTest@COleDocIPFrameWndEx@@UAEHPAVCMFCToolBarButton@@PAUtagTOOLINFOW@@@Z 004120b0 f i uafxcw:afxoledocipframewndex.obj
 0001:000110b0       ?OnPostPreviewFrame@CMDIFrameWndEx@@IAEJIJ@Z 004120b0 f i uafxcw:afxmdiframewndex.obj
 0001:000110b0       ?OnShowControlBarMenu@CMFCAutoHideBar@@UAEHVCPoint@@@Z 004120b0 f i uafxcw:afxautohidebar.obj
 0001:000110c0       ?OnEnable@CMFCRibbonBaseElement@@MAEXH@Z 004120c0 f i uafxcw:afxribbonbar.obj
 0001:000110c0       ?DrawItem@CListCtrl@@UAEXPAUtagDRAWITEMSTRUCT@@@Z 004120c0 f i uafxcw:winctrl2.obj
 0001:000110c0       ?OnSetFocus@CMFCRibbonBaseElement@@MAEXH@Z 004120c0 f i uafxcw:afxribbonbar.obj
 0001:000110c0       ?OnPressButtons@CDockablePane@@MAEXI@Z 004120c0 f i WndActionList.obj
 0001:000110c0       ?MeasureItem@CMenu@@UAEXPAUtagMEASUREITEMSTRUCT@@@Z 004120c0 f i uafxcw:winmenu.obj
 0001:000110c0       ?Serialize@CObject@@UAEXAAVCArchive@@@Z 004120c0 f i ActionListView.obj
 0001:000110c0       ?OnDrawBorder@CMFCPropertyGridCtrl@@MAEXPAVCDC@@@Z 004120c0 f i uafxcw:afxpropertygridctrl.obj
 0001:000110c0       ?Serialize@CMFCToolBarSystemMenuButton@@UAEXAAVCArchive@@@Z 004120c0 f i uafxcw:afxtoolbarsystemmenubutton.obj
 0001:000110c0       ?OnRTLChanged@CMFCRibbonBaseElement@@UAEXH@Z 004120c0 f i uafxcw:afxribbonbar.obj
 0001:000110c0       ?DeleteItem@CListBox@@UAEXPAUtagDELETEITEMSTRUCT@@@Z 004120c0 f i uafxcw:winctrl1.obj
 0001:000110c0       ?AdjustSizeImmediate@CMFCPopupMenuBar@@UAEXH@Z 004120c0 f i uafxcw:afxcolorbar.obj
 0001:000110c0       ?DeleteItem@CComboBox@@UAEXPAUtagDELETEITEMSTRUCT@@@Z 004120c0 f i uafxcw:winctrl1.obj
 0001:000110c0       ?OnShow@CMFCRibbonBaseElement@@UAEXH@Z 004120c0 f i uafxcw:afxribbonbar.obj
 0001:000110c0       ?DoPaint@CDummyDockablePane@@EAEXPAVCDC@@@Z 004120c0 f i uafxcw:afxdragframeimpl.obj
 0001:000110c0       ?SetText@CTestCmdUI@@UAEXPB_W@Z 004120c0 f i uafxcw:wincore.obj
 0001:000110c0       ?Serialize@CMFCToolBarMenuButtonsButton@@UAEXAAVCArchive@@@Z 004120c0 f i uafxcw:afxtoolbarmenubuttonsbutton.obj
 0001:000110c0       ?SetPos@XBaseKey@@UAEXABUVEC2@XE@@@Z 004120c0 f i Key.obj
 0001:000110c0       ?MoveFrame@XBaseLayer@@UAEXM@Z 004120c0 f i SprObj.obj
 0001:000110c0       ?SetPos@XBaseElem@@UAEXABUVEC2@XE@@@Z 004120c0 f i ActionListView.obj
 0001:000110c0       ?OnAfterChangeParent@CMFCBaseToolBar@@UAEXPAVCWnd@@@Z 004120c0 f i uafxcw:afxbasetoolbar.obj
 0001:000110c0       ?Fill@XSurfaceD3D@@UAEXK@Z 004120c0 f i XSurfaceD3D.obj
 0001:000110c0       ?DrawItem@CStatic@@UAEXPAUtagDRAWITEMSTRUCT@@@Z 004120c0 f i uafxcw:winctrl1.obj
 0001:000110c0       ?DoDataExchange@CWnd@@MAEXPAVCDataExchange@@@Z 004120c0 f i ActionListView.obj
 0001:000110c0       ?MeasureItem@CListBox@@UAEXPAUtagMEASUREITEMSTRUCT@@@Z 004120c0 f i uafxcw:winctrl1.obj
 0001:000110c0       ?DoDataExchange@CAnimationView@@MAEXPAVCDataExchange@@@Z 004120c0 f i AnimationView.obj
 0001:000110c0       ?OnHighlight@CMFCRibbonBaseElement@@MAEXH@Z 004120c0 f i uafxcw:afxribbonbar.obj
 0001:000110c0       ?OnCalcTextSize@CMFCRibbonBaseElement@@UAEXPAVCDC@@@Z 004120c0 f i uafxcw:afxbaseribbonelement.obj
 0001:000110c0       ?OnButtonClicked@CFileDialog@@MAEXK@Z 004120c0 f i uafxcw:dlgfile.obj
 0001:000110c0       ?OnResizePane@CDockingPanesRow@@UAEXPAVCBasePane@@@Z 004120c0 f i uafxcw:afxdockingpanesrow.obj
 0001:000110c0       ?AdjustTabTextRect@CMFCVisualManager@@UAEXAAVCRect@@@Z 004120c0 f i uafxcw:afxvisualmanager.obj
 0001:000110c0       ?AccNotifyObjectFocusEvent@CBasePane@@UAEXH@Z 004120c0 f i WndActionList.obj
 0001:000110c0       ?OnCheck@CMFCRibbonBaseElement@@MAEXH@Z 004120c0 f i uafxcw:afxribbonbar.obj
 0001:000110c0       ?CopySurface@XSurfaceD3D@@UAEXPAVXSurface@@@Z 004120c0 f i XSurfaceD3D.obj
 0001:000110c0       ?OnAfterStretch@CPane@@MAEXH@Z 004120c0 f i WndActionList.obj
 0001:000110c0       ?DrawItem@CListBox@@UAEXPAUtagDRAWITEMSTRUCT@@@Z 004120c0 f i uafxcw:winctrl1.obj
 0001:000110c0       ?Show@CSmartDockingGroupGuide@@UAEXH@Z 004120c0 f i uafxcw:afxsmartdockingguide.obj
 0001:000110c0       ?DrawItem@CComboBox@@UAEXPAUtagDRAWITEMSTRUCT@@@Z 004120c0 f i uafxcw:winctrl1.obj
 0001:000110c0       ?OnSetFont@CDialog@@UAEXPAVCFont@@@Z 004120c0 f i uafxcw:dlgcore.obj
 0001:000110c0       ?CloseSound@XSoundMng@@UAEXH@Z 004120c0 f i XSoundMng.obj
 0001:000110c0       ?SetRadio@CTestCmdUI@@UAEXH@Z 004120c0 f i uafxcw:wincore.obj
 0001:000110c0       ?OnAfterMoveItemUp@CVSListBoxBase@@UAEXH@Z 004120c0 f i uafxcw:afxvslistbox.obj
 0001:000110c0       ?OnBeforeChangeTool@CMFCToolBarsCustomizeDialog@@MAEXPAVCUserTool@@@Z 004120c0 f i uafxcw:afxtoolbarscustomizedialog.obj
 0001:000110c0       ?OnBeforeStretch@CPane@@MAEXAAH@Z 004120c0 f i WndActionList.obj
 0001:000110c0       ?UndockPane@CBasePane@@UAEXH@Z 004120c0 f i uafxcw:afxbasepane.obj
 0001:000110c0       ?DoDataExchange@CAdjustView@@MAEXPAVCDataExchange@@@Z 004120c0 f i AdjustView.obj
 0001:000110c0       ?DrawItem@CMenu@@UAEXPAUtagDRAWITEMSTRUCT@@@Z 004120c0 f i uafxcw:winmenu.obj
 0001:000110c0       ?DoDataExchange@CFrameView@@MAEXPAVCDataExchange@@@Z 004120c0 f i FrameView.obj
 0001:000110c0       ?OnUpdateDelSelLayer@CFrameView@@QAEXPAVCCmdUI@@@Z 004120c0 f i FrameView.obj
 0001:000110c0       ?CopySurface@XSurface@@UAEXPAV1@@Z 004120c0 f i XGraphicsD3D.obj
 0001:000110c0       ?DrawItem@CHeaderCtrl@@UAEXPAUtagDRAWITEMSTRUCT@@@Z 004120c0 f i uafxcw:winctrl2.obj
 0001:000110c0       ?SetCheck@CMFCTasksPaneToolBarCmdUI@@UAEXH@Z 004120c0 f i uafxcw:afxtaskspane.obj
 0001:000110c0       ?OnAfterRenameItem@CVSListBoxBase@@UAEXH@Z 004120c0 f i uafxcw:afxvslistbox.obj
 0001:000110c0       ?SetCheck@CTestCmdUI@@UAEXH@Z 004120c0 f i uafxcw:wincore.obj
 0001:000110c0       ?SetRadio@CMFCTasksPaneToolBarCmdUI@@UAEXH@Z 004120c0 f i uafxcw:afxtaskspane.obj
 0001:000110c0       ?OnControlActivating@CFileDialog@@MAEXK@Z 004120c0 f i uafxcw:dlgfile.obj
 0001:000110c0       ?OnActivateTab@CBaseTabbedPane@@MAEXH@Z 004120c0 f i uafxcw:afxbasetabbedpane.obj
 0001:000110c0       ?MeasureItem@CCheckListBox@@UAEXPAUtagMEASUREITEMSTRUCT@@@Z 004120c0 f i uafxcw:winctrl3.obj
 0001:000110c0       ?MeasureItem@CComboBox@@UAEXPAUtagMEASUREITEMSTRUCT@@@Z 004120c0 f i uafxcw:winctrl1.obj
 0001:000110c0       ?OnAfterAnimation@CMFCOutlookBar@@UAEXH@Z 004120c0 f i uafxcw:afxoutlookbar.obj
 0001:000110c0       ?OnAfterChangeTool@CMFCToolBarsCustomizeDialog@@MAEXPAVCUserTool@@@Z 004120c0 f i uafxcw:afxtoolbarscustomizedialog.obj
 0001:000110c0       ?PreCloseFrame@CDocument@@UAEXPAVCFrameWnd@@@Z 004120c0 f i uafxcw:doccore.obj
 0001:000110c0       ?StoreRecentDockSiteInfo@CPaneFrameWnd@@UAEXPAVCPane@@@Z 004120c0 f i uafxcw:afxpaneframewnd.obj
 0001:000110c0       ?SetActive@CMFCRibbonPanelMenu@@UAEXH@Z 004120c0 f i uafxcw:afxribbonminitoolbar.obj
 0001:000110c0       ?StopSound@XSoundMng@@UAEXH@Z 004120c0 f i XSoundMng.obj
 0001:000110c0       ?OnAfterAddItem@CVSListBoxBase@@UAEXH@Z 004120c0 f i uafxcw:afxvslistbox.obj
 0001:000110c0       ?MoveFrame@XLayerMove@@UAEXM@Z 004120c0 f i SprObj.obj
 0001:000110c0       ?OnChangeHot@CMFCPopupMenu@@MAEXH@Z 004120c0 f i uafxcw:afxpopupmenu.obj
 0001:000110c0       ?EnableGripper@CBasePane@@UAEXH@Z 004120c0 f i uafxcw:afxbasepane.obj
 0001:000110c0       ?OnShow@CMFCToolBarButton@@UAEXH@Z 004120c0 f i uafxcw:afxtoolbarmenubutton.obj
 0001:000110c0       ?Serialize@CSEDoc@@UAEXAAVCArchive@@@Z 004120c0 f i SEDoc.obj
 0001:000110c0       ?OnSize@CMFCToolBarButton@@UAEXH@Z 004120c0 f i uafxcw:afxtoolbarmenubutton.obj
 0001:000110c0       ?OnDefaultMenuLoaded@CMFCMenuBar@@UAEXPAUHMENU__@@@Z 004120c0 f i uafxcw:afxmenubar.obj
 0001:000110c0       ?OnFillBackground@CMFCToolBar@@UAEXPAVCDC@@@Z 004120c0 f i uafxcw:afxtoolbar.obj
 0001:000110c0       ?OnSelected@XLayerMove@@UAEXH@Z 004120c0 f i SprObj.obj
 0001:000110c0       ?PlaySoundW@XSoundMng@@UAEXH@Z 004120c0 f i XSoundMng.obj
 0001:000110c0       ?ClearScreen@XGraphics@@UAEXK@Z 004120c0 f i XGraphicsD3D.obj
 0001:000110c0       ?OnChooseItem@CMFCPopupMenu@@MAEXI@Z 004120c0 f i uafxcw:afxpopupmenu.obj
 0001:000110c0       ?ConvertToTabbedDocument@CPane@@UAEXH@Z 004120c0 f i uafxcw:afxpane.obj
 0001:000110c0       ?DoDataExchange@CAboutDlg@@MAEXPAVCDataExchange@@@Z 004120c0 f i SE.obj
 0001:000110c0       ?OnDblClk@CMFCToolBarButton@@UAEXPAVCWnd@@@Z 004120c0 f i uafxcw:afxmenubar.obj
 0001:000110c0       ?OnAfterMoveItemDown@CVSListBoxBase@@UAEXH@Z 004120c0 f i uafxcw:afxvslistbox.obj
 0001:000110c0       ?OnRemoveFromMiniFrame@CBasePane@@UAEXPAVCPaneFrameWnd@@@Z 004120c0 f i WndActionList.obj
 0001:000110c0       ?DoPaint@CDockBar@@UAEXPAVCDC@@@Z 004120c0 f i uafxcw:bardock.obj
 0001:000110c0       ?OnAfterChangeParent@CBasePane@@UAEXPAVCWnd@@@Z 004120c0 f i uafxcw:afxbasepane.obj
 0001:000110c0       ?DrawItem@CButton@@UAEXPAUtagDRAWITEMSTRUCT@@@Z 004120c0 f i uafxcw:winctrl1.obj
 0001:000110c0       ?OnShowEditbox@CMFCToolBarEditBoxButton@@MAEXH@Z 004120c0 f i uafxcw:afxtoolbareditboxbutton.obj
 0001:000110c0       ?OnMovePaneDivider@CBasePane@@UAEXPAVCPaneDivider@@@Z 004120c0 f i WndActionList.obj
 0001:000110c0       ?OnScroll@CMFCOutlookBar@@UAEXH@Z 004120c0 f i uafxcw:afxoutlookbar.obj
 0001:000110c0       ?OnSelected@XBaseLayer@@UAEXH@Z 004120c0 f i SprObj.obj
 0001:000110d0       ?DrawRect@XGraphics@@UAEXMMMMK@Z 004120d0 f i XGraphicsD3D.obj
 0001:000110d0       ?CopyRect@XSurface@@UAEXHHPAKHH@Z 004120d0 f i XGraphicsD3D.obj
 0001:000110e0       ?Draw@XSurface@@UAEXMM@Z   004120e0 f i XGraphicsD3D.obj
 0001:00011130       ?DrawLocal@XSurface@@UAEXMMMM@Z 00412130 f i XGraphicsD3D.obj
 0001:00011180       ?DrawSub@XSurface@@UAEXMMPBUtagRECT@@@Z 00412180 f i XGraphicsD3D.obj
 0001:000111d0       ?Fill@XSurface@@UAEXK@Z    004121d0 f i XGraphicsD3D.obj
 0001:00011220       ??4XSurface@@QAEAAV0@ABV0@@Z 00412220 f i XGraphicsD3D.obj
 0001:000112f0       ??_EXSurface@@UAEPAXI@Z    004122f0 f i * CIL library *:* CIL module *
 0001:000112f0       ??_GXSurface@@UAEPAXI@Z    004122f0 f i XGraphicsD3D.obj
 0001:00011330       ??1XGraphics@@UAE@XZ       00412330 f i XGraphicsD3D.obj
 0001:00011390       ?GetScreenPtr@XGraphics@@UAEPAXXZ 00412390 f i XGraphicsD3D.obj
 0001:000113e0       ?LockBackBufferPtr@XGraphics@@UAEPAXPAHH@Z 004123e0 f i XGraphicsD3D.obj
 0001:00011430       ?GetWorkBufferPtr@XGraphics@@UAEPAXXZ 00412430 f i XGraphicsD3D.obj
 0001:00011480       ?ReadBackBuffer@XGraphics@@UAEPAXHHPAX@Z 00412480 f i XGraphicsD3D.obj
 0001:000114d0       ?UnlockBackBufferPtr@XGraphics@@UAEXXZ 004124d0 f i XGraphicsD3D.obj
 0001:00011520       ?ScreenToSurface@XGraphics@@UAEXHHHHPAVXSurface@@@Z 00412520 f i XGraphicsD3D.obj
 0001:00011570       ?ScreenToSurface@XGraphics@@UAEXHPAVXSurface@@@Z 00412570 f i XGraphicsD3D.obj
 0001:000115c0       ?CreateScreenToSurface@XGraphics@@UAEPAVXSurface@@H@Z 004125c0 f i XGraphicsD3D.obj
 0001:00011610       ?SetDrawTarget@XGraphics@@UAEXPAVXSurface@@@Z 00412610 f i XGraphicsD3D.obj
 0001:00011660       ?ReleaseDrawTarget@XGraphics@@UAEXXZ 00412660 f i XGraphicsD3D.obj
 0001:000116b0       ?SetViewport@XGraphics@@UAEXHHHH@Z 004126b0 f i XGraphicsD3D.obj
 0001:000116d0       ?RestoreViewport@XGraphics@@UAEXXZ 004126d0 f i XGraphicsD3D.obj
 0001:000116f0       ?OnSizeParent@CDockSite@@UAEXAAVCRect@@IHH@Z 004126f0 f i uafxcw:afxautohidedocksite.obj
 0001:000116f0       ?AdjustPos@CSmartDockingGroupGuide@@UAEXVCRect@@@Z 004126f0 f i uafxcw:afxsmartdockingguide.obj
 0001:000116f0       ?DrawPoint@XGraphics@@UAEXMMMK@Z 004126f0 f i XGraphicsD3D.obj
 0001:00011700       ?FillRect@XGraphics@@UAEXMMMMK@Z 00412700 f i XGraphicsD3D.obj
 0001:00011750       ?FillRect@XGraphics@@UAEXMMMMKKKK@Z 00412750 f i XGraphicsD3D.obj
 0001:000117a0       ?DrawLine@XGraphics@@UAEXMMMMK@Z 004127a0 f i XGraphicsD3D.obj
 0001:000117f0       ?DrawLine@XGraphics@@UAEXMMMMKK@Z 004127f0 f i XGraphicsD3D.obj
 0001:00011840       ?DrawLine@XGraphics@@QAEXABUVEC2@XE@@0K@Z 00412840 f i XGraphicsD3D.obj
 0001:00011890       ?DrawCircle@XGraphics@@UAEXMMMK@Z 00412890 f i XGraphicsD3D.obj
 0001:000118e0       ?DrawPie@XGraphics@@UAEXMMMMMKH@Z 004128e0 f i XGraphicsD3D.obj
 0001:00011940       ?DrawPieClip@XGraphics@@UAEXPBUVEC2@XE@@HMMMMMKH@Z 00412940 f i XGraphicsD3D.obj
 0001:000119a0       ?DrawLineList@XGraphics@@UAEXPAUVEC2@XE@@HK@Z 004129a0 f i XGraphicsD3D.obj
 0001:000119f0       ?DrawLineList@XGraphics@@UAEXPAUxVERTEX@1@H@Z 004129f0 f i XGraphicsD3D.obj
 0001:00011a40       ?DrawSplineCatmullRom@XGraphics@@UAEXABUVEC2@XE@@000HKW4xtLine@1@@Z 00412a40 f i XGraphicsD3D.obj
 0001:00011a90       ?DrawSplineCatmullRom@XGraphics@@UAEXPAUVEC2@XE@@HHKW4xtLine@1@@Z 00412a90 f i XGraphicsD3D.obj
 0001:00011ae0       ?CreateSurface@XGraphics@@UAEPAVXSurface@@HPBDKH@Z 00412ae0 f i XGraphicsD3D.obj
 0001:00011b30       ?CreateSurface@XGraphics@@UAEPAVXSurface@@HMMMMPAGKH@Z 00412b30 f i XGraphicsD3D.obj
 0001:00011b80       ?CreateSurface@XGraphics@@UAEPAVXSurface@@HHHHHMMMMPAKH@Z 00412b80 f i XGraphicsD3D.obj
 0001:00011bd0       ?CreateSurface@XGraphics@@UAEPAVXSurface@@HPB_WH@Z 00412bd0 f i XGraphicsD3D.obj
 0001:00011c20       ?CreateSurface@XGraphics@@UAEPAVXSurface@@HHHHHHPAKH@Z 00412c20 f i XGraphicsD3D.obj
 0001:00011c70       ?LoadImg@XGraphics@@UAEHPB_WPAH1PAPAK@Z 00412c70 f i XGraphicsD3D.obj
 0001:00011cc0       ??_GXGraphics@@UAEPAXI@Z   00412cc0 f i XGraphicsD3D.obj
 0001:00011cc0       ??_EXGraphics@@UAEPAXI@Z   00412cc0 f i * CIL library *:* CIL module *
 0001:00011d30       ??0XSurfaceD3D@@QAE@H@Z    00412d30 f i XGraphicsD3D.obj
 0001:00011da0       ??0XSurfaceD3D@@QAE@HHHHHMMMMPAXH@Z 00412da0 f i XGraphicsD3D.obj
 0001:00011e90       ??0XSurfaceD3D@@QAE@HHHHHHPAKH@Z 00412e90 f i XGraphicsD3D.obj
 0001:00012040       ??1XSurfaceD3D@@UAE@XZ     00413040 f i XGraphicsD3D.obj
 0001:000120f0       ?Draw@XSurfaceD3D@@UAEXMM@Z 004130f0 f i XGraphicsD3D.obj
 0001:000121b0       ?DrawLocal@XSurfaceD3D@@UAEXMMMM@Z 004131b0 f i XGraphicsD3D.obj
 0001:00012290       ??_EXSurfaceD3D@@UAEPAXI@Z 00413290 f i * CIL library *:* CIL module *
 0001:00012290       ??_GXSurfaceD3D@@UAEPAXI@Z 00413290 f i XGraphicsD3D.obj
 0001:000122c0       ?_Init@XGraphicsD3D@@AAEXXZ 004132c0 f i XGraphicsD3D.obj
 0001:00012320       ??1XGraphicsD3D@@UAE@XZ    00413320 f i XGraphicsD3D.obj
 0001:000123e0       ?CreateSurface@XGraphicsD3D@@UAEPAVXSurface@@HHHHHHPAKH@Z 004133e0 f i XGraphicsD3D.obj
 0001:00012470       ?LoadImg@XGraphicsD3D@@UAEHPB_WPAH1PAPAK@Z 00413470 f i XGraphicsD3D.obj
 0001:000124c0       ??_GXGraphicsD3D@@UAEPAXI@Z 004134c0 f i XGraphicsD3D.obj
 0001:000124c0       ??_EXGraphicsD3D@@UAEPAXI@Z 004134c0 f i * CIL library *:* CIL module *
 0001:000124f0       ?SetProjection@XE@@YAXHH@Z 004134f0 f   XGraphicsD3D.obj
 0001:000125c0       ??0XGraphicsD3D@@QAE@HHW4xPixelFormat@@@Z 004135c0 f   XGraphicsD3D.obj
 0001:00012690       ?Initialize@XGraphicsD3D@@QAEXPAUIDirect3DDevice9@@@Z 00413690 f   XGraphicsD3D.obj
 0001:000127d0       ?CreateSurface@XGraphicsD3D@@UAEPAVXSurface@@HHHHHMMMMPAKH@Z 004137d0 f   XGraphicsD3D.obj
 0001:00012880       ?CreateScreenToSurface@XGraphicsD3D@@UAEPAVXSurface@@H@Z 00413880 f   XGraphicsD3D.obj
 0001:000128d0       ?OnDrawDragRect@CPane@@MAEXPBUtagRECT@@0@Z 004138d0 f   uafxcw:afxpane.obj
 0001:000128d0       ?OnMouseMove@XMovableInterface@@UAEXMM@Z 004138d0 f   AnimationView.obj
 0001:000128d0       ?OnUpdateCmdUI@CDockBar@@MAEXPAVCFrameWnd@@H@Z 004138d0 f   uafxcw:bardock.obj
 0001:000128d0       ?OnBarStyleChange@CControlBar@@UAEXKK@Z 004138d0 f   uafxcw:barcore.obj
 0001:000128d0       ?OnMouseMove@CMFCRibbonBaseElement@@MAEXVCPoint@@@Z 004138d0 f   uafxcw:afxbaseribbonelement.obj
 0001:000128d0       ?OnUpdateCmdUI@CMFCCaptionBar@@MAEXPAVCFrameWnd@@H@Z 004138d0 f   uafxcw:afxcaptionbar.obj
 0001:000128d0       ?ScrollChild@CMFCTasksPane@@MAEXPAUHWND__@@H@Z 004138d0 f   uafxcw:afxtaskspane.obj
 0001:000128d0       ?Create@CSmartDockingGroupGuide@@UAEXW4SDMarkerPlace@CSmartDockingStandaloneGuide@@PAVCWnd@@@Z 004138d0 f   uafxcw:afxsmartdockingguide.obj
 0001:000128d0       ?OnSizeMDIClient@CMDIFrameWndEx@@UAEXABVCRect@@0@Z 004138d0 f   uafxcw:afxmdiframewndex.obj
 0001:000128d0       ?OnLButtonUp@CMFCRibbonLabel@@MAEXVCPoint@@@Z 004138d0 f   uafxcw:afxribbonlabel.obj
 0001:000128d0       ?OnLButtonUp@CMFCRibbonBaseElement@@MAEXVCPoint@@@Z 004138d0 f   uafxcw:afxbaseribbonelement.obj
 0001:000128d0       ?OnDrawMenuBorder@CMFCRibbonPanel@@MAEXPAVCDC@@PAVCMFCRibbonPanelMenuBar@@@Z 004138d0 f   uafxcw:afxribbonpanel.obj
 0001:000128d0       ?OnBeginPrinting@CView@@MAEXPAVCDC@@PAUCPrintInfo@@@Z 004138d0 f   uafxcw:viewcore.obj
 0001:000128d0       ?ScreenToSurface@XGraphicsD3D@@UAEXHPAVXSurface@@@Z 004138d0 f   XGraphicsD3D.obj
 0001:000128d0       ?OnActivateFrame@CView@@MAEXIPAVCFrameWnd@@@Z 004138d0 f   uafxcw:viewcore.obj
 0001:000128d0       ?OnChangeSelection@CMFCPropertyGridCtrl@@UAEXPAVCMFCPropertyGridProperty@@0@Z 004138d0 f   uafxcw:afxpropertygridctrl.obj
 0001:000128d0       ?StoreRecentTabRelatedInfo@CPaneFrameWnd@@UAEXPAVCDockablePane@@0@Z 004138d0 f   uafxcw:afxpaneframewnd.obj
 0001:000128d0       ?OnItemSelected@CFileDialog@@MAEXKK@Z 004138d0 f   uafxcw:dlgfile.obj
 0001:000128d0       ?OnCheckButtonToggled@CFileDialog@@MAEXKH@Z 004138d0 f   uafxcw:dlgfile.obj
 0001:000128d0       ?OnActivateApp@CMFCVisualManager@@UAEXPAVCWnd@@H@Z 004138d0 f   uafxcw:afxvisualmanager.obj
 0001:000128d0       ?OnDrawThumbnail@CDocument@@UAEXAAVCDC@@PAUtagRECT@@@Z 004138d0 f   uafxcw:doccore.obj
 0001:000128d0       ?OnBeforeChangeParent@CBasePane@@UAEXPAVCWnd@@H@Z 004138d0 f   uafxcw:afxbasepane.obj
 0001:000128d0       ?OnShowPane@CPaneFrameWnd@@UAEXPAVCDockablePane@@H@Z 004138d0 f   uafxcw:afxpaneframewnd.obj
 0001:000128d0       ?OnLButtonDblClk@CMFCRibbonBaseElement@@MAEXVCPoint@@@Z 004138d0 f   uafxcw:afxribbonbar.obj
 0001:000128d0       ?DrawToolTip@XBaseKey@@UAEXMM@Z 004138d0 f   Key.obj
 0001:000128d0       ?OnNcCalcSize@CMFCPopupMenuBar@@IAEXHPAUtagNCCALCSIZE_PARAMS@@@Z 004138d0 f   uafxcw:afxpopupmenubar.obj
 0001:000128d0       ?OnLButtonUp@CMFCRibbonEdit@@UAEXVCPoint@@@Z 004138d0 f   uafxcw:afxribbonedit.obj
 0001:000128d0       ?OnNcCalcSize@CMFCOutlookBarToolBar@@QAEXHPAUtagNCCALCSIZE_PARAMS@@@Z 004138d0 f   uafxcw:afxoutlookbartabctrl.obj
 0001:000128d0       ?OnEndPrinting@CView@@MAEXPAVCDC@@PAUCPrintInfo@@@Z 004138d0 f   uafxcw:viewcore.obj
 0001:000128d0       ?OnChangeMenuHighlight@CMFCRibbonBaseElement@@UAEXPAVCMFCRibbonPanelMenuBar@@PAV1@@Z 004138d0 f   uafxcw:afxribbonbar.obj
 0001:000128d0       ?OnDrawMenuBorder@CMFCRibbonCategory@@UAEXPAVCDC@@PAVCMFCRibbonPanelMenuBar@@@Z 004138d0 f   uafxcw:afxribboncategory.obj
 0001:000128d0       ?OnUpdateCmdUI@CBasePane@@UAEXPAVCFrameWnd@@H@Z 004138d0 f   uafxcw:afxbasepane.obj
 0001:000128e0       ?SetViewport@XGraphicsD3D@@UAEXHHHH@Z 004138e0 f   XGraphicsD3D.obj
 0001:00012960       ?RestoreViewport@XGraphicsD3D@@UAEXXZ 00413960 f   XGraphicsD3D.obj
 0001:00012980       ?ClearScreen@XGraphicsD3D@@UAEXK@Z 00413980 f   XGraphicsD3D.obj
 0001:000129b0       ?DrawRect@XGraphicsD3D@@UAEXMMMMK@Z 004139b0 f   XGraphicsD3D.obj
 0001:00012be0       ?FillRect@XGraphicsD3D@@UAEXMMMMK@Z 00413be0 f   XGraphicsD3D.obj
 0001:00012e20       ?FillRect@XGraphicsD3D@@UAEXMMMMKKKK@Z 00413e20 f   XGraphicsD3D.obj
 0001:00013090       ?DrawPie@XGraphicsD3D@@UAEXMMMMMKH@Z 00414090 f   XGraphicsD3D.obj
 0001:000133d0       ?DrawPieClip@XGraphicsD3D@@UAEXPBUVEC2@XE@@HMMMMMKH@Z 004143d0 f   XGraphicsD3D.obj
 0001:000138e0       ?DrawLine@XGraphicsD3D@@UAEXMMMMK@Z 004148e0 f   XGraphicsD3D.obj
 0001:00013a40       ?DrawLine@XGraphicsD3D@@UAEXMMMMKK@Z 00414a40 f   XGraphicsD3D.obj
 0001:00013cb0       ?DrawLineList@XGraphicsD3D@@UAEXPAUxVERTEX@XGraphics@@H@Z 00414cb0 f   XGraphicsD3D.obj
 0001:00013dd0       ?DrawPoint@XGraphicsD3D@@UAEXMMMK@Z 00414dd0 f   XGraphicsD3D.obj
 0001:00013f00       ?DrawLineList@XGraphicsD3D@@UAEXPAUVEC2@XE@@HK@Z 00414f00 f   XGraphicsD3D.obj
 0001:00013f70       ?DrawSplineCatmullRom@XGraphicsD3D@@UAEXABUVEC2@XE@@000HKW4xtLine@XGraphics@@@Z 00414f70 f   XGraphicsD3D.obj
 0001:00014170       ?DrawSplineCatmullRom@XGraphicsD3D@@UAEXPAUVEC2@XE@@HHKW4xtLine@XGraphics@@@Z 00415170 f   XGraphicsD3D.obj
 0001:00014250       ?DrawCircle@XGraphicsD3D@@UAEXMMMK@Z 00415250 f   XGraphicsD3D.obj
 0001:00014480       ??0XSurfaceD3D@@QAE@HMMMMPAKH@Z 00415480 f i XGraphicsD3DTool.obj
 0001:00014590       ?Init@XGraphicsD3DTool@@AAEXXZ 00415590 f   XGraphicsD3DTool.obj
 0001:00014620       ?CreateSurface@XGraphicsD3DTool@@UAEPAVXSurface@@HPB_WH@Z 00415620 f   XGraphicsD3DTool.obj
 0001:00014710       ?LoadImg@XGraphicsD3DTool@@UAEHPB_WPAH1PAPAK@Z 00415710 f   XGraphicsD3DTool.obj
 0001:00014a30       ?DestroySrcImg@XSurface@@QAEXXZ 00415a30 f i XSurfaceD3D.obj
 0001:00014a50       ?Init@XE@@YAHPAUIDirect3DDevice9@@HHPAUID3DXEffect@@@Z 00415a50 f   XSurfaceD3D.obj
 0001:00014b30       ?ChangeAdjust@XSurfaceD3D@@QAE?AW4tagxRESULT@@MM@Z 00415b30 f   XSurfaceD3D.obj
 0001:00014db0       ?SetImage@XSurfaceD3D@@QAEHMMMMPAK@Z 00415db0 f   XSurfaceD3D.obj
 0001:00014e80       ?Create@XSurfaceD3D@@UAE?AW4tagxRESULT@@HHHHMMMMPAXHH@Z 00415e80 f   XSurfaceD3D.obj
 0001:00015400       ?Create@XSurfaceD3D@@UAE?AW4tagxRESULT@@MMMMW4xAlpha@@PBXHKH@Z 00416400 f   XSurfaceD3D.obj
 0001:000158b0       ?DrawCore@XSurfaceD3D@@QAEXH@Z 004168b0 f   XSurfaceD3D.obj
 0001:00015a70       ?DrawCoreSub@XSurfaceD3D@@QAEXXZ 00416a70 f   XSurfaceD3D.obj
 0001:00015c30       ?DrawLocal@XSurfaceD3D@@UAEXMMMMABUD3DXMATRIX@@@Z 00416c30 f   XSurfaceD3D.obj
 0001:00015f50       ?Draw@XSurfaceD3D@@QAEXMMABUD3DXMATRIX@@@Z 00416f50 f   XSurfaceD3D.obj
 0001:00016280       ?DrawSub@XSurfaceD3D@@UAEXMMPBUtagRECT@@@Z 00417280 f   XSurfaceD3D.obj
 0001:00016710       ?dobuffer@lua_tinker@@YAXPAUlua_State@@PBDI@Z 00417710 f   lua_tinker.obj
 0001:00016840       ?on_error@lua_tinker@@YAHPAUlua_State@@@Z 00417840 f   lua_tinker.obj
 0001:00016900       ?print_error@lua_tinker@@YAXPAUlua_State@@PBDZZ 00417900 f   lua_tinker.obj
 0001:00016ab0       ?meta_get@lua_tinker@@YAHPAUlua_State@@@Z 00417ab0 f   lua_tinker.obj
 0001:00016b90       ?meta_set@lua_tinker@@YAHPAUlua_State@@@Z 00417b90 f   lua_tinker.obj
 0001:00016c20       ?member_isfunction@lua_tinker@@YA_NPAUlua_State@@PBD1@Z 00417c20 f   lua_tinker.obj
 0001:00016cd0       ??$sprintf_s@$0EA@@@YAHAAY0EA@DPBDZZ 00417cd0 f i lua_tinker.obj
 0001:00016cf0       ?Open@XResFile@@UAEHPB_WW4xRWTYPE@XBaseRes@@@Z 00417cf0 f   ResMng.obj
 0001:00016f00       ?Open@XResFile@@UAEHPBDW4xRWTYPE@XBaseRes@@@Z 00417f00 f   ResMng.obj
 0001:00017100       ?Close@XResFile@@EAEXXZ    00418100 f   ResMng.obj
 0001:00017150       ?Read@XResFile@@UAEHPAXII@Z 00418150 f   ResMng.obj
 0001:00017200       ?Write@XResFile@@UAEHPAXII@Z 00418200 f   ResMng.obj
 0001:000173b0       ?Size@XResFile@@UAEJXZ     004183b0 f   ResMng.obj
 0001:00017440       ?Printf@XResFile@@UAAHPB_WZZ 00418440 f   ResMng.obj
 0001:000174a0       ?WriteString@XResFile@@UAEHPA_W@Z 004184a0 f   ResMng.obj
 0001:000175d0       ?ReadString@XResFile@@UAEHPA_W@Z 004185d0 f   ResMng.obj
 0001:000176f0       ??$sprintf_s@$0EAA@@@YAHAAY0EAA@DPBDZZ 004186f0 f i ResMng.obj
 0001:00017710       ?Init@XOgg@@AAEXXZ         00418710 f   XOgg.obj
 0001:000177e0       ?InitVorbisFile@XOgg@@QAEXXZ 004187e0 f   XOgg.obj
 0001:000178a0       ?Destroy@XOggObj@@AAEXXZ   004188a0 f   XOgg.obj
 0001:00017900       ?Load@XOggObj@@QAEHPBD@Z   00418900 f   XOgg.obj
 0001:00017b70       ?DecodeOggVorbis@XOggObj@@QAEKPAUOggVorbis_File@@PADKK@Z 00418b70 f   XOgg.obj
 0001:00017c30       ?ov_read_func@@YAIPAXII0@Z 00418c30 f   XOgg.obj
 0001:00017c40       ?ov_seek_func@@YAHPAX_JH@Z 00418c40 f   XOgg.obj
 0001:00017c60       ?ov_close_func@@YAHPAX@Z   00418c60 f   XOgg.obj
 0001:00017c70       ?ov_tell_func@@YAJPAX@Z    00418c70 f   XOgg.obj
 0001:00017c80       ??0ALDeviceList@@QAE@XZ    00418c80 f   aldlist.obj
 0001:000182c0       ??1ALDEVICEINFO@@QAE@XZ    004192c0 f i aldlist.obj
 0001:000182c0       ??1?$basic_string@DU?$char_traits@D@std@@V?$allocator@D@2@@std@@QAE@XZ 004192c0 f i aldlist.obj
 0001:000182f0       ??1ALDeviceList@@QAE@XZ    004192f0 f   aldlist.obj
 0001:00018420       ?ResetFilters@ALDeviceList@@QAEXXZ 00419420 f   aldlist.obj
 0001:000184a0       ?GetMaxNumSources@ALDeviceList@@AAEIXZ 004194a0 f   aldlist.obj
 0001:00018550       ??1?$vector@UALDEVICEINFO@@V?$allocator@UALDEVICEINFO@@@std@@@std@@QAE@XZ 00419550 f i aldlist.obj
 0001:00018590       ?push_back@?$vector@UALDEVICEINFO@@V?$allocator@UALDEVICEINFO@@@std@@@std@@QAEXABUALDEVICEINFO@@@Z 00419590 f i aldlist.obj
 0001:00018680       ?push_back@?$vector@V?$basic_string@DU?$char_traits@D@std@@V?$allocator@D@2@@std@@V?$allocator@V?$basic_string@DU?$char_traits@D@std@@V?$allocator@D@2@@std@@@2@@std@@QAEX$$QAV?$basic_string@DU?$char_traits@D@std@@V?$allocator@D@2@@2@@Z 00419680 f i aldlist.obj
 0001:00018700       ?_Reallocate@?$vector@UALDEVICEINFO@@V?$allocator@UALDEVICEINFO@@@std@@@std@@IAEXI@Z 00419700 f i aldlist.obj
 0001:000187f0       ?_Reserve@?$vector@UALDEVICEINFO@@V?$allocator@UALDEVICEINFO@@@std@@@std@@IAEXI@Z 004197f0 f i aldlist.obj
 0001:00018890       ?_Reserve@?$vector@V?$basic_string@DU?$char_traits@D@std@@V?$allocator@D@2@@std@@V?$allocator@V?$basic_string@DU?$char_traits@D@std@@V?$allocator@D@2@@std@@@2@@std@@IAEXI@Z 00419890 f i aldlist.obj
 0001:00018930       ?_Destroy@?$vector@UALDEVICEINFO@@V?$allocator@UALDEVICEINFO@@@std@@@std@@IAEXPAUALDEVICEINFO@@0@Z 00419930 f i aldlist.obj
 0001:00018970       ?_Destroy@?$vector@V?$basic_string@DU?$char_traits@D@std@@V?$allocator@D@2@@std@@V?$allocator@V?$basic_string@DU?$char_traits@D@std@@V?$allocator@D@2@@std@@@2@@std@@IAEXPAV?$basic_string@DU?$char_traits@D@std@@V?$allocator@D@2@@2@0@Z 00419970 f i aldlist.obj
 0001:000189b0       ?_Reallocate@?$vector@V?$basic_string@DU?$char_traits@D@std@@V?$allocator@D@2@@std@@V?$allocator@V?$basic_string@DU?$char_traits@D@std@@V?$allocator@D@2@@std@@@2@@std@@IAEXI@Z 004199b0 f i aldlist.obj
 0001:00018a50       ??$destroy@UALDEVICEINFO@@@?$_Wrap_alloc@V?$allocator@UALDEVICEINFO@@@std@@@std@@QAEXPAUALDEVICEINFO@@@Z 00419a50 f i aldlist.obj
 0001:00018a80       ??$_Uninit_move@PAUALDEVICEINFO@@PAU1@V?$allocator@UALDEVICEINFO@@@std@@U1@@std@@YAPAUALDEVICEINFO@@PAU1@00AAU?$_Wrap_alloc@V?$allocator@UALDEVICEINFO@@@std@@@0@0U_Nonscalar_ptr_iterator_tag@0@@Z 00419a80 f i aldlist.obj
 0001:00018b50       ??$_Uninit_move@PAV?$basic_string@DU?$char_traits@D@std@@V?$allocator@D@2@@std@@PAV12@V?$allocator@V?$basic_string@DU?$char_traits@D@std@@V?$allocator@D@2@@std@@@2@V12@@std@@YAPAV?$basic_string@DU?$char_traits@D@std@@V?$allocator@D@2@@0@PAV10@00AAU?$_Wrap_alloc@V?$allocator@V?$basic_string@DU?$char_traits@D@std@@V?$allocator@D@2@@std@@@std@@@0@0U_Nonscalar_ptr_iterator_tag@0@@Z 00419b50 f i aldlist.obj
 0001:00018be0       ??0?$basic_string@DU?$char_traits@D@std@@V?$allocator@D@2@@std@@QAE@$$QAV01@@Z 00419be0 f i aldlist.obj
 0001:00018c50       ?erase@?$basic_string@DU?$char_traits@D@std@@V?$allocator@D@2@@std@@QAEAAV12@II@Z 00419c50 f i aldlist.obj
 0001:00018cf0       ?assign@?$basic_string@DU?$char_traits@D@std@@V?$allocator@D@2@@std@@QAEAAV12@ABV12@II@Z 00419cf0 f i aldlist.obj
 0001:00018e20       ?allocate@?$_Wrap_alloc@V?$allocator@D@std@@@std@@QAEPADI@Z 00419e20 f i aldlist.obj
 0001:00018e50       ?_Copy@?$basic_string@DU?$char_traits@D@std@@V?$allocator@D@2@@std@@QAEXII@Z 00419e50 f i aldlist.obj
 0001:00018fa0       ?assign@?$basic_string@DU?$char_traits@D@std@@V?$allocator@D@2@@std@@QAEAAV12@PBDI@Z 00419fa0 f i aldlist.obj
 0001:000190a0       ??0?$basic_string@DU?$char_traits@D@std@@V?$allocator@D@2@@std@@QAE@PBD@Z 0041a0a0 f i aldlist.obj
 0001:00019100       ??_ECWaves@@UAEPAXI@Z      0041a100 f i * CIL library *:* CIL module *
 0001:00019100       ??_GCWaves@@UAEPAXI@Z      0041a100 f i CWaves.obj
 0001:00019130       ??1CWaves@@UAE@XZ          0041a130 f   CWaves.obj
 0001:00019190       ?LoadWaveFile@CWaves@@QAE?AW4WAVERESULT@@PBDPAH@Z 0041a190 f   CWaves.obj
 0001:00019280       ?ParseFile@CWaves@@AAE?AW4WAVERESULT@@PBDPAUWAVEFILEINFO@@@Z 0041a280 f   CWaves.obj
 0001:000194d0       ?DeleteWaveFile@CWaves@@QAE?AW4WAVERESULT@@H@Z 0041a4d0 f   CWaves.obj
 0001:00019540       ?GetWaveData@CWaves@@QAE?AW4WAVERESULT@@HPAPAX@Z 0041a540 f   CWaves.obj
 0001:00019580       ?GetWaveFrequency@CWaves@@QAE?AW4WAVERESULT@@HPAK@Z 0041a580 f   CWaves.obj
 0001:000195c0       ?GetWaveALBufferFormat@CWaves@@QAE?AW4WAVERESULT@@HP6AHPBD@ZPAK@Z 0041a5c0 f   CWaves.obj
 0001:000197a0       ?ALFWInitOpenAL@@YADXZ     0041a7a0 f   Framework.obj
 0001:000199d0       ?ALFWLoadWaveToBuffer@@YADPBDIH@Z 0041a9d0 f   Framework.obj
 0001:00019aa0       ?ALFWprintf@@YAXPBDZZ      0041aaa0 f   Framework.obj
 0001:00019ac0       ?LoadOAL10Library@@YADPADPAUOPENALFNTABLE@@@Z 0041aac0 f   LoadOAL.obj
 0001:0001a490       ?Init@XOpenAL@@QAEHXZ      0041b490 f   XOpenAL.obj
 0001:0001a550       ?Load@XOALObj@@QAEHPBD@Z   0041b550 f   XOpenAL.obj
 0001:0001a620       ?Stop@XOALObj@@QAEXXZ      0041b620 f   XOpenAL.obj
 0001:0001a670       ?SetBGMVolume@XSoundMng@@UAEXM@Z 0041b670 f i XSoundMngOpenAL.obj
 0001:0001a690       ?GetBGMMute@XSoundMng@@UAEHXZ 0041b690 f i XSoundMngOpenAL.obj
 0001:0001a6a0       ?SetSoundVolume@XSoundMng@@UAEXM@Z 0041b6a0 f i XSoundMngOpenAL.obj
 0001:0001a6c0       ?GetSoundVolume@XSoundMng@@UAEMXZ 0041b6c0 f i XSoundMngOpenAL.obj
 0001:0001a6d0       ??_EXOALObj@@UAEPAXI@Z     0041b6d0 f i * CIL library *:* CIL module *
 0001:0001a6d0       ??_GXOALObj@@UAEPAXI@Z     0041b6d0 f i XSoundMngOpenAL.obj
 0001:0001a710       ??_EXOgg@@UAEPAXI@Z        0041b710 f i * CIL library *:* CIL module *
 0001:0001a710       ??_GXOgg@@UAEPAXI@Z        0041b710 f i XSoundMngOpenAL.obj
 0001:0001a750       ??0XOggObj@@QAE@PBD@Z      0041b750 f i XSoundMngOpenAL.obj
 0001:0001a7d0       ??_EXOggObj@@UAEPAXI@Z     0041b7d0 f i * CIL library *:* CIL module *
 0001:0001a7d0       ??_GXOggObj@@UAEPAXI@Z     0041b7d0 f i XSoundMngOpenAL.obj
 0001:0001a800       ??0XSoundMngOpenAL@@QAE@XZ 0041b800 f   XSoundMngOpenAL.obj
 0001:0001a950       ??_GXSoundMngOpenAL@@UAEPAXI@Z 0041b950 f i XSoundMngOpenAL.obj
 0001:0001a950       ??_EXSoundMngOpenAL@@UAEPAXI@Z 0041b950 f i * CIL library *:* CIL module *
 0001:0001a980       ??1XSoundMngOpenAL@@UAE@XZ 0041b980 f   XSoundMngOpenAL.obj
 0001:0001aa70       ??_GXOpenAL@@QAEPAXI@Z     0041ba70 f i XSoundMngOpenAL.obj
 0001:0001aae0       ?OpenBGMusic@XSoundMngOpenAL@@UAEHPBDH@Z 0041bae0 f   XSoundMngOpenAL.obj
 0001:0001ac20       ?SetBGMVolume@XSoundMngOpenAL@@UAEXM@Z 0041bc20 f   XSoundMngOpenAL.obj
 0001:0001ac70       ?PlayBGMusic@XSoundMngOpenAL@@UAEXXZ 0041bc70 f   XSoundMngOpenAL.obj
 0001:0001aca0       ?StopBGMusic@XSoundMngOpenAL@@UAEXXZ 0041bca0 f   XSoundMngOpenAL.obj
 0001:0001ace0       ?FadeOutBGM@XSoundMngOpenAL@@UAEXM@Z 0041bce0 f   XSoundMngOpenAL.obj
 0001:0001ad40       ?IsBGMusic@XSoundMngOpenAL@@UAEHXZ 0041bd40 f   XSoundMngOpenAL.obj
 0001:0001ad50       ?OpenSound@XSoundMngOpenAL@@UAEHH@Z 0041bd50 f   XSoundMngOpenAL.obj
 0001:0001ae90       ?CloseSound@XSoundMngOpenAL@@UAEXH@Z 0041be90 f   XSoundMngOpenAL.obj
 0001:0001af10       ?PlaySoundW@XSoundMngOpenAL@@UAEXH@Z 0041bf10 f   XSoundMngOpenAL.obj
 0001:0001af90       ?StopSound@XSoundMngOpenAL@@UAEXH@Z 0041bf90 f   XSoundMngOpenAL.obj
 0001:0001aff0       ?RemoveAll@XSoundMngOpenAL@@UAEXXZ 0041bff0 f   XSoundMngOpenAL.obj
 0001:0001b0d0       ??1?$list@PAVXMovableInterface@@V?$allocator@PAVXMovableInterface@@@std@@@std@@QAE@XZ 0041c0d0 f i AnimationView.obj
 0001:0001b0d0       ??1?$list@PAVXBaseKey@@V?$allocator@PAVXBaseKey@@@std@@@std@@QAE@XZ 0041c0d0 f i ActionListView.obj
 0001:0001b0d0       ??1?$list@PAVXBaseLayer@@V?$allocator@PAVXBaseLayer@@@std@@@std@@QAE@XZ 0041c0d0 f i ActionListView.obj
 0001:0001b0d0       ??1?$list@PAVXSprDat@@V?$allocator@PAVXSprDat@@@std@@@std@@QAE@XZ 0041c0d0 f i Tool.obj
 0001:0001b0d0       ??1?$list@PAUUSE_SPROBJ@@V?$allocator@PAUUSE_SPROBJ@@@std@@@std@@QAE@XZ 0041c0d0 f i Tool.obj
 0001:0001b0d0       ??1?$list@PAULAYER_INFO@@V?$allocator@PAULAYER_INFO@@@std@@@std@@QAE@XZ 0041c0d0 f i ActionListView.obj
 0001:0001b0d0       ??1?$list@PAVXSprite@@V?$allocator@PAVXSprite@@@std@@@std@@QAE@XZ 0041c0d0 f i SprMng.obj
 0001:0001b0d0       ??1?$list@PAUST_SOUND@@V?$allocator@PAUST_SOUND@@@std@@@std@@QAE@XZ 0041c0d0 f i XSoundMngOpenAL.obj
 0001:0001b0d0       ??1?$list@PAVXBaseElem@@V?$allocator@PAVXBaseElem@@@std@@@std@@QAE@XZ 0041c0d0 f i FrameView.obj
 0001:0001b0d0       ??1?$list@PAVXObjAct@@V?$allocator@PAVXObjAct@@@std@@@std@@QAE@XZ 0041c0d0 f i Tool.obj
 0001:0001b0d0       ??1?$list@PAVXAniAction@@V?$allocator@PAVXAniAction@@@std@@@std@@QAE@XZ 0041c0d0 f i SprMng.obj
 0001:0001b0d0       ??1?$list@UtagRECT@@V?$allocator@UtagRECT@@@std@@@std@@QAE@XZ 0041c0d0 f i Tool.obj
 0001:0001b110       ?push_back@?$list@PAUST_SOUND@@V?$allocator@PAUST_SOUND@@@std@@@std@@QAEXABQAUST_SOUND@@@Z 0041c110 f i XSoundMngOpenAL.obj
 0001:0001b110       ?push_back@?$list@PAVXBaseKey@@V?$allocator@PAVXBaseKey@@@std@@@std@@QAEXABQAVXBaseKey@@@Z 0041c110 f i SprDat.obj
 0001:0001b160       ?_Buynode0@?$_List_alloc@$0A@U?$_List_base_types@PAVXAniAction@@V?$allocator@PAVXAniAction@@@std@@@std@@@std@@QAEPAU?$_List_node@PAVXAniAction@@PAX@2@PAU32@0@Z 0041c160 f i SprMng.obj
 0001:0001b160       ?_Buynode0@?$_List_alloc@$0A@U?$_List_base_types@PAVXMovableInterface@@V?$allocator@PAVXMovableInterface@@@std@@@std@@@std@@QAEPAU?$_List_node@PAVXMovableInterface@@PAX@2@PAU32@0@Z 0041c160 f i AnimationView.obj
 0001:0001b160       ?_Buynode0@?$_List_alloc@$0A@U?$_List_base_types@PAVXSprite@@V?$allocator@PAVXSprite@@@std@@@std@@@std@@QAEPAU?$_List_node@PAVXSprite@@PAX@2@PAU32@0@Z 0041c160 f i SprMng.obj
 0001:0001b160       ?_Buynode0@?$_List_alloc@$0A@U?$_List_base_types@PAVXObjAct@@V?$allocator@PAVXObjAct@@@std@@@std@@@std@@QAEPAU?$_List_node@PAVXObjAct@@PAX@2@PAU32@0@Z 0041c160 f i Tool.obj
 0001:0001b160       ?_Buynode0@?$_List_alloc@$0A@U?$_List_base_types@PAUST_SOUND@@V?$allocator@PAUST_SOUND@@@std@@@std@@@std@@QAEPAU?$_List_node@PAUST_SOUND@@PAX@2@PAU32@0@Z 0041c160 f i XSoundMngOpenAL.obj
 0001:0001b160       ?_Buynode0@?$_List_alloc@$0A@U?$_List_base_types@PAUUSE_SPROBJ@@V?$allocator@PAUUSE_SPROBJ@@@std@@@std@@@std@@QAEPAU?$_List_node@PAUUSE_SPROBJ@@PAX@2@PAU32@0@Z 0041c160 f i Tool.obj
 0001:0001b160       ?_Buynode0@?$_List_alloc@$0A@U?$_List_base_types@PAVXKeyPos@@V?$allocator@PAVXKeyPos@@@std@@@std@@@std@@QAEPAU?$_List_node@PAVXKeyPos@@PAX@2@PAU32@0@Z 0041c160 f i FrameView.obj
 0001:0001b160       ?_Buynode0@?$_List_alloc@$0A@U?$_List_base_types@PAULAYER_INFO@@V?$allocator@PAULAYER_INFO@@@std@@@std@@@std@@QAEPAU?$_List_node@PAULAYER_INFO@@PAX@2@PAU32@0@Z 0041c160 f i UndoAction.obj
 0001:0001b160       ?_Buynode0@?$_List_alloc@$0A@U?$_List_base_types@PAVXBaseKey@@V?$allocator@PAVXBaseKey@@@std@@@std@@@std@@QAEPAU?$_List_node@PAVXBaseKey@@PAX@2@PAU32@0@Z 0041c160 f i UndoAction.obj
 0001:0001b160       ?_Buynode0@?$_List_alloc@$0A@U?$_List_base_types@PAVXBaseElem@@V?$allocator@PAVXBaseElem@@@std@@@std@@@std@@QAEPAU?$_List_node@PAVXBaseElem@@PAX@2@PAU32@0@Z 0041c160 f i AnimationView.obj
 0001:0001b160       ?_Buynode0@?$_List_alloc@$0A@U?$_List_base_types@V?$CStringT@_WV?$StrTraitMFC@_WV?$ChTraitsCRT@_W@ATL@@@@@ATL@@V?$allocator@V?$CStringT@_WV?$StrTraitMFC@_WV?$ChTraitsCRT@_W@ATL@@@@@ATL@@@std@@@std@@@std@@QAEPAU?$_List_node@V?$CStringT@_WV?$StrTraitMFC@_WV?$ChTraitsCRT@_W@ATL@@@@@ATL@@PAX@2@PAU32@0@Z 0041c160 f i ThumbView.obj
 0001:0001b160       ?_Buynode0@?$_List_alloc@$0A@U?$_List_base_types@PAVXBaseLayer@@V?$allocator@PAVXBaseLayer@@@std@@@std@@@std@@QAEPAU?$_List_node@PAVXBaseLayer@@PAX@2@PAU32@0@Z 0041c160 f i Tool.obj
 0001:0001b160       ?_Buynode0@?$_List_alloc@$0A@U?$_List_base_types@KV?$allocator@K@std@@@std@@@std@@QAEPAU?$_List_node@KPAX@2@PAU32@0@Z 0041c160 f i AnimationView.obj
 0001:0001b160       ?_Buynode0@?$_List_alloc@$0A@U?$_List_base_types@PAVXSprDat@@V?$allocator@PAVXSprDat@@@std@@@std@@@std@@QAEPAU?$_List_node@PAVXSprDat@@PAX@2@PAU32@0@Z 0041c160 f i SprMng.obj
 0001:0001b1a0       ??$sprintf_s@$0GE@@@YAHAAY0GE@DPBDZZ 0041c1a0 f i XSoundMngOpenAL.obj
 0001:0001b1c0       ??$_Buynode@ABK@?$_List_buy@KV?$allocator@K@std@@@std@@QAEPAU?$_List_node@KPAX@1@PAU21@0ABK@Z 0041c1c0 f i XDragSelect.obj
 0001:0001b1c0       ??$_Buynode@ABQAVXSprDat@@@?$_List_buy@PAVXSprDat@@V?$allocator@PAVXSprDat@@@std@@@std@@QAEPAU?$_List_node@PAVXSprDat@@PAX@1@PAU21@0ABQAVXSprDat@@@Z 0041c1c0 f i SprMng.obj
 0001:0001b1c0       ??$_Buynode@ABQAUST_SOUND@@@?$_List_buy@PAUST_SOUND@@V?$allocator@PAUST_SOUND@@@std@@@std@@QAEPAU?$_List_node@PAUST_SOUND@@PAX@1@PAU21@0ABQAUST_SOUND@@@Z 0041c1c0 f i XSoundMngOpenAL.obj
 0001:0001b1c0       ??$_Buynode@ABQAVXBaseElem@@@?$_List_buy@PAVXBaseElem@@V?$allocator@PAVXBaseElem@@@std@@@std@@QAEPAU?$_List_node@PAVXBaseElem@@PAX@1@PAU21@0ABQAVXBaseElem@@@Z 0041c1c0 f i AnimationView.obj
 0001:0001b1c0       ??$_Buynode@ABQAVXAniAction@@@?$_List_buy@PAVXAniAction@@V?$allocator@PAVXAniAction@@@std@@@std@@QAEPAU?$_List_node@PAVXAniAction@@PAX@1@PAU21@0ABQAVXAniAction@@@Z 0041c1c0 f i SprDat.obj
 0001:0001b1c0       ??$_Buynode@ABQAUUSE_SPROBJ@@@?$_List_buy@PAUUSE_SPROBJ@@V?$allocator@PAUUSE_SPROBJ@@@std@@@std@@QAEPAU?$_List_node@PAUUSE_SPROBJ@@PAX@1@PAU21@0ABQAUUSE_SPROBJ@@@Z 0041c1c0 f i SprObj.obj
 0001:0001b1c0       ??$_Buynode@ABQAVXBaseLayer@@@?$_List_buy@PAVXBaseLayer@@V?$allocator@PAVXBaseLayer@@@std@@@std@@QAEPAU?$_List_node@PAVXBaseLayer@@PAX@1@PAU21@0ABQAVXBaseLayer@@@Z 0041c1c0 f i UndoAction.obj
 0001:0001b1c0       ??$_Buynode@ABQAVXBaseKey@@@?$_List_buy@PAVXBaseKey@@V?$allocator@PAVXBaseKey@@@std@@@std@@QAEPAU?$_List_node@PAVXBaseKey@@PAX@1@PAU21@0ABQAVXBaseKey@@@Z 0041c1c0 f i UndoAction.obj
 0001:0001b1c0       ??$_Buynode@ABQAVXKeyPos@@@?$_List_buy@PAVXKeyPos@@V?$allocator@PAVXKeyPos@@@std@@@std@@QAEPAU?$_List_node@PAVXKeyPos@@PAX@1@PAU21@0ABQAVXKeyPos@@@Z 0041c1c0 f i FrameView.obj
 0001:0001b1c0       ??$_Buynode@ABQAULAYER_INFO@@@?$_List_buy@PAULAYER_INFO@@V?$allocator@PAULAYER_INFO@@@std@@@std@@QAEPAU?$_List_node@PAULAYER_INFO@@PAX@1@PAU21@0ABQAULAYER_INFO@@@Z 0041c1c0 f i UndoAction.obj
 0001:0001b1c0       ??$_Buynode@ABQAVXMovableInterface@@@?$_List_buy@PAVXMovableInterface@@V?$allocator@PAVXMovableInterface@@@std@@@std@@QAEPAU?$_List_node@PAVXMovableInterface@@PAX@1@PAU21@0ABQAVXMovableInterface@@@Z 0041c1c0 f i Layer.obj
 0001:0001b1c0       ??$_Buynode@ABQAVXSprite@@@?$_List_buy@PAVXSprite@@V?$allocator@PAVXSprite@@@std@@@std@@QAEPAU?$_List_node@PAVXSprite@@PAX@1@PAU21@0ABQAVXSprite@@@Z 0041c1c0 f i SprDat.obj
 0001:0001b1c0       ??$_Buynode@ABQAVXObjAct@@@?$_List_buy@PAVXObjAct@@V?$allocator@PAVXObjAct@@@std@@@std@@QAEPAU?$_List_node@PAVXObjAct@@PAX@1@PAU21@0ABQAVXObjAct@@@Z 0041c1c0 f i SprObj.obj
 0001:0001b1e0       ?Init@XSprDat@@AAEXXZ      0041c1e0 f i SprMng.obj
 0001:0001b250       ??0XSprDat@@QAE@XZ         0041c250 f i SprMng.obj
 0001:0001b300       ??1XSprDat@@QAE@XZ         0041c300 f i SprMng.obj
 0001:0001b3e0       ?Destroy@XSprMng@@AAEXXZ   0041c3e0 f   SprMng.obj
 0001:0001b460       ?Release@XSprMng@@QAEXPAVXSprDat@@@Z 0041c460 f   SprMng.obj
 0001:0001b520       ?Find@XSprMng@@QAEPAVXSprDat@@PB_WH@Z 0041c520 f   SprMng.obj
 0001:0001b570       ?Load@XSprMng@@QAEPAVXSprDat@@PB_WHH@Z 0041c570 f   SprMng.obj
 0001:0001b6d0       ?New@XSprMng@@QAEPAVXSprDat@@XZ 0041c6d0 f   SprMng.obj
 0001:0001b780       ??0?$list@PAVXBaseElem@@V?$allocator@PAVXBaseElem@@@std@@@std@@QAE@XZ 0041c780 f i FrameView.obj
 0001:0001b780       ??0?$list@V?$CStringT@_WV?$StrTraitMFC@_WV?$ChTraitsCRT@_W@ATL@@@@@ATL@@V?$allocator@V?$CStringT@_WV?$StrTraitMFC@_WV?$ChTraitsCRT@_W@ATL@@@@@ATL@@@std@@@std@@QAE@XZ 0041c780 f i ThumbView.obj
 0001:0001b780       ??0?$list@PAVXSprite@@V?$allocator@PAVXSprite@@@std@@@std@@QAE@XZ 0041c780 f i SprMng.obj
 0001:0001b780       ??0?$list@PAVXBaseLayer@@V?$allocator@PAVXBaseLayer@@@std@@@std@@QAE@XZ 0041c780 f i Tool.obj
 0001:0001b780       ??0?$list@PAVXBaseKey@@V?$allocator@PAVXBaseKey@@@std@@@std@@QAE@XZ 0041c780 f i SprDat.obj
 0001:0001b7a0       ??0XBaseFontObj@@QAE@PAVXBaseFontDat@@@Z 0041c7a0 f   XBaseFontObj.obj
 0001:0001b860       ?WriteHeader@XCrypto@@QAEXPAU_iobuf@@@Z 0041c860 f   XCrypto.obj
 0001:0001b900       ?ReadHeader@XCrypto@@QAEXPAU_iobuf@@@Z 0041c900 f   XCrypto.obj
 0001:0001b9a0       ?Encrypt@XCrypto@@QAEHPAEH0H@Z 0041c9a0 f   XCrypto.obj
 0001:0001bb20       ?Decrypt@XCrypto@@QAEHPAEH@Z 0041cb20 f   XCrypto.obj
 0001:0001bc00       ?WriteCheckSum@XCrypto@@QAEXKPAU_iobuf@@@Z 0041cc00 f   XCrypto.obj
 0001:0001bd00       ?CheckCheckSum@XCrypto@@QAEHPAU_iobuf@@@Z 0041cd00 f   XCrypto.obj
 0001:0001bf70       ?GenerateID@XE@@YAKXZ      0041cf70 f   XE.obj
 0001:0001bfa0       ??_EXLuaSprObj@@UAEPAXI@Z  0041cfa0 f i * CIL library *:* CIL module *
 0001:0001bfa0       ??_GXLuaSprObj@@UAEPAXI@Z  0041cfa0 f i Tool.obj
 0001:0001bfa0       ??_GXLua@@UAEPAXI@Z        0041cfa0 f i XFactory.obj
 0001:0001bfa0       ??_EXLua@@UAEPAXI@Z        0041cfa0 f i * CIL library *:* CIL module *
 0001:0001bfd0       ??1XRefRes@@UAE@XZ         0041cfd0 f i XFactory.obj
 0001:0001bfe0       ??_GXRefRes@@UAEPAXI@Z     0041cfe0 f i XFactory.obj
 0001:0001bfe0       ??_EXRefRes@@UAEPAXI@Z     0041cfe0 f i * CIL library *:* CIL module *
 0001:0001c010       ??0XBaseFontDat@@QAE@PB_WMMK@Z 0041d010 f i XFactory.obj
 0001:0001c110       ??1XBaseFontDat@@UAE@XZ    0041d110 f i XFactory.obj
 0001:0001c180       ?GetFontHeight@XBaseFontDat@@UAEMXZ 0041d180 f i XFactory.obj
 0001:0001c180       ?GetFontHeight@XFontDatDX@@UAEMXZ 0041d180 f i XFactory.obj
 0001:0001c180       ?GetFontWidth@XBaseFontDat@@UAEMXZ 0041d180 f i XFactory.obj
 0001:0001c180       ?GetFontWidth@XFontDatDX@@UAEMXZ 0041d180 f i XFactory.obj
 0001:0001c190       ??_GXBaseFontDat@@UAEPAXI@Z 0041d190 f i XFactory.obj
 0001:0001c190       ??_EXBaseFontDat@@UAEPAXI@Z 0041d190 f i * CIL library *:* CIL module *
 0001:0001c210       ?Destroy@XFontDatDX@@AAEXXZ 0041d210 f i XFactory.obj
 0001:0001c280       ?CreateFontDat@XFontDatDX@@UAEPAVXBaseFontDat@@PB_WMM@Z 0041d280 f i XFactory.obj
 0001:0001c340       ??_GXFontDatDX@@UAEPAXI@Z  0041d340 f i XFactory.obj
 0001:0001c340       ??_EXFontDatDX@@UAEPAXI@Z  0041d340 f i * CIL library *:* CIL module *
 0001:0001c3d0       ?Release@XFontMng@@QAEXPAVXBaseFontDat@@@Z 0041d3d0 f   XFontMng.obj
 0001:0001c460       ?Del@?$XList@PAVXBaseFontDat@@@@QAEXPAVXBaseFontDat@@@Z 0041d460 f i XFontMng.obj
 0001:0001c4b0       ?GetNextClear@?$XList@PAVXBaseFontDat@@@@QAE?AVItor@1@XZ 0041d4b0 f i XFontMng.obj
 0001:0001c4e0       ??1Itor@?$XList@PAVXBaseFontDat@@@@UAE@XZ 0041d4e0 f i XFontMng.obj
 0001:0001c4f0       ??_EItor@?$XList@PAVXBaseFontDat@@@@UAEPAXI@Z 0041d4f0 f i * CIL library *:* CIL module *
 0001:0001c4f0       ??_GItor@?$XList@PAVXBaseFontDat@@@@UAEPAXI@Z 0041d4f0 f i XFontMng.obj
 0001:0001c520       ?DoString@XLua@@QAEHPBD@Z  0041d520 f i XLua.obj
 0001:0001c590       ?show_error@@YAXPBD@Z      0041d590 f   XLua.obj
 0001:0001c5b0       ?invoke@?$functor@XPBDXXXXXX@lua_tinker@@SAHPAUlua_State@@@Z 0041d5b0 f i XLua.obj
 0001:0001c5e0       ?OpenBGMusic@XSoundMng@@UAEHPBDH@Z 0041d5e0 f i XSoundMng.obj
 0001:0001c600       ?OnCloseMiniFrame@CFrameWndEx@@UAEHPAVCPaneFrameWnd@@@Z 0041d600 f i MainFrm.obj
 0001:0001c600       ?OnBeforeShowPaneMenu@CPane@@MAEHAAVCMenu@@@Z 0041d600 f i WndActionList.obj
 0001:0001c600       ?OpenSound@XSoundMng@@UAEHH@Z 0041d600 f i XSoundMng.obj
 0001:0001c600       ?OnAfterShowPaneMenu@CPane@@MAEHH@Z 0041d600 f i WndActionList.obj
 0001:0001c600       ?OnCloseDockingPane@CFrameWndEx@@UAEHPAVCDockablePane@@@Z 0041d600 f i MainFrm.obj
 0001:0001c610       ??_EXSoundMng@@UAEPAXI@Z   0041d610 f i * CIL library *:* CIL module *
 0001:0001c610       ??_GXSoundMng@@UAEPAXI@Z   0041d610 f i XSoundMng.obj
 0001:0001c640       ??1XSoundMng@@UAE@XZ       0041d640 f   XSoundMng.obj
 0001:0001c650       ?FadeOutBGM@XSoundMng@@UAEXM@Z 0041d650 f   XSoundMng.obj
 0001:0001c680       ?SetBGMMute@XSoundMng@@UAEXH@Z 0041d680 f   XSoundMng.obj
 0001:0001c6b0       ?CreateCompressMem@XSYSTEM@@YAHPAPAEPAKPAEK@Z 0041d6b0 f   XSystem.obj
 0001:0001c8c0       ?UnCompressMem@XSYSTEM@@YAHPAPAEKPAEK@Z 0041d8c0 f   XSystem.obj
 0001:0001cb30       ??1XBaseKeyDynamic@@UAE@XZ 0041db30 f i Key.obj
 0001:0001cb30       ??1XBaseElem@@UAE@XZ       0041db30 f i ActionListView.obj
 0001:0001cb40       ?GetPos@XBaseElem@@UAE?AUVEC2@XE@@XZ 0041db40 f i ActionListView.obj
 0001:0001cb40       ?GetPos@XBaseKey@@UAE?AUVEC2@XE@@XZ 0041db40 f i Key.obj
 0001:0001cb60       ?SetvDrawPos@XBaseElem@@UAEXABUVEC2@XE@@@Z 0041db60 f i ActionListView.obj
 0001:0001cb80       ??_EXBaseElem@@UAEPAXI@Z   0041db80 f i * CIL library *:* CIL module *
 0001:0001cb80       ??_GXBaseElem@@UAEPAXI@Z   0041db80 f i ActionListView.obj
 0001:0001cbb0       ??1XAniAction@@QAE@XZ      0041dbb0 f i ActionListView.obj
 0001:0001cc90       ??1XObjAct@@QAE@XZ         0041dc90 f i ActionListView.obj
 0001:0001cd20       ?AddDummyLayer@XObjAct@@UAEPAVXLayerDummy@@XZ 0041dd20 f i ActionListView.obj
 0001:0001ce30       ?DrawLayerLabel@XObjAct@@UAEXMMPAVXBaseLayer@@@Z 0041de30 f i ActionListView.obj
 0001:0001ce80       ??0XBaseUndo@@QAE@PAVXSprObj@@PB_W@Z 0041de80 f i ActionListView.obj
 0001:0001cf40       ??1XUndoAction@@UAE@XZ     0041df40 f i ActionListView.obj
 0001:0001cf40       ??1XBaseUndo@@UAE@XZ       0041df40 f i ActionListView.obj
 0001:0001cf70       ?GetText@XBaseUndo@@UAE?AV?$CStringT@_WV?$StrTraitMFC@_WV?$ChTraitsCRT@_W@ATL@@@@@ATL@@XZ 0041df70 f i ActionListView.obj
 0001:0001cfa0       ??_GXBaseUndo@@UAEPAXI@Z   0041dfa0 f i ActionListView.obj
 0001:0001cfa0       ??_EXBaseUndo@@UAEPAXI@Z   0041dfa0 f i * CIL library *:* CIL module *
 0001:0001cff0       ??1XUndoObjAct@@UAE@XZ     0041dff0 f i ActionListView.obj
 0001:0001d0b0       ??_EXUndoObjAct@@UAEPAXI@Z 0041e0b0 f i * CIL library *:* CIL module *
 0001:0001d0b0       ??_GXUndoObjAct@@UAEPAXI@Z 0041e0b0 f i ActionListView.obj
 0001:0001d0e0       ??0XUndoDelAction@@QAE@PAVXSprObj@@PAVXObjAct@@PB_W@Z 0041e0e0 f i ActionListView.obj
 0001:0001d1b0       ??_GXUndoDelAction@@UAEPAXI@Z 0041e1b0 f i ActionListView.obj
 0001:0001d1b0       ??_EXUndoDelAction@@UAEPAXI@Z 0041e1b0 f i * CIL library *:* CIL module *
 0001:0001d1e0       ?CreateObject@CActionListView@@SGPAVCObject@@XZ 0041e1e0 f   ActionListView.obj
 0001:0001d290       ?GetRuntimeClass@CActionListView@@UBEPAUCRuntimeClass@@XZ 0041e290 f   ActionListView.obj
 0001:0001d2a0       ??_GCActionListView@@MAEPAXI@Z 0041e2a0 f i ActionListView.obj
 0001:0001d2a0       ??_ECActionListView@@MAEPAXI@Z 0041e2a0 f i * CIL library *:* CIL module *
 0001:0001d320       ?DoDataExchange@CActionListView@@MAEXPAVCDataExchange@@@Z 0041e320 f   ActionListView.obj
 0001:0001d340       ?GetMessageMap@CActionListView@@MBEPBUAFX_MSGMAP@@XZ 0041e340 f   ActionListView.obj
 0001:0001d350       ?CreateOne@CActionListView@@SAPAV1@PAVCWnd@@@Z 0041e350 f   ActionListView.obj
 0001:0001d440       ?OnInitialUpdate@CActionListView@@UAEXXZ 0041e440 f   ActionListView.obj
 0001:0001d560       ?OnSize@CActionListView@@QAEXIHH@Z 0041e560 f   ActionListView.obj
 0001:0001d5a0       ?AddAction@CActionListView@@QAEXPB_WK@Z 0041e5a0 f   ActionListView.obj
 0001:0001d6b0       ?Update@CActionListView@@QAEXXZ 0041e6b0 f   ActionListView.obj
 0001:0001d740       ?OnLvnItemchangingList1@CActionListView@@QAEXPAUtagNMHDR@@PAJ@Z 0041e740 f   ActionListView.obj
 0001:0001d770       ?OnDelAction@CActionListView@@QAEXXZ 0041e770 f   ActionListView.obj
 0001:0001d800       ?OnRButtonUp@CActionListView@@QAEXIVCPoint@@@Z 0041e800 f   ActionListView.obj
 0001:0001d820       ?OnNMRClickList1@CActionListView@@QAEXPAUtagNMHDR@@PAJ@Z 0041e820 f   ActionListView.obj
 0001:0001d8f0       ?OnRenameAction@CActionListView@@QAEXXZ 0041e8f0 f   ActionListView.obj
 0001:0001da40       ?OnAddAction@CActionListView@@QAEXXZ 0041ea40 f   ActionListView.obj
 0001:0001da80       ?OnCopyaddAction@CActionListView@@QAEXXZ 0041ea80 f   ActionListView.obj
 0001:0001da90       ?FrameMove@XBaseLayer@@UAEXMMPAVXSprObj@@@Z 0041ea90 f   SprObj.obj
 0001:0001da90       ?CalcBoundBox@XBaseLayer@@UAEXMMPAVXSprObj@@@Z 0041ea90 f   SprObj.obj
 0001:0001da90       ?AddRemoveSeparator@CMFCOutlookBarPane@@MAEXPBVCMFCToolBarButton@@ABVCPoint@@1@Z 0041ea90 f   uafxcw:afxoutlookbarpane.obj
 0001:0001da90       ?OnContextMenu@CActionListView@@QAEXPAVCWnd@@VCPoint@@@Z 0041ea90 f   ActionListView.obj
 0001:0001da90       ?OnDrawMenuLogo@COleIPFrameWndEx@@UAEXPAVCDC@@PAVCMFCPopupMenu@@ABVCRect@@@Z 0041ea90 f   uafxcw:afxoleipframewndex.obj
 0001:0001da90       ?OnLBSelChangedNotify@CFileDialog@@MAEXIII@Z 0041ea90 f   uafxcw:dlgfile.obj
 0001:0001da90       ?OnDrawMenuLogo@CFrameWndEx@@UAEXPAVCDC@@PAVCMFCPopupMenu@@ABVCRect@@@Z 0041ea90 f   MainFrm.obj
 0001:0001da90       ?OnDrawMenuLogo@CMDIFrameWndEx@@UAEXPAVCDC@@PAVCMFCPopupMenu@@ABVCRect@@@Z 0041ea90 f   uafxcw:afxmdiframewndex.obj
 0001:0001da90       ?Draw@XLayerMove@@UAEXMMABUD3DXMATRIX@@@Z 0041ea90 f   SprObj.obj
 0001:0001da90       ?OnDrawMenuLogo@COleDocIPFrameWndEx@@UAEXPAVCDC@@PAVCMFCPopupMenu@@ABVCRect@@@Z 0041ea90 f   uafxcw:afxoledocipframewndex.obj
 0001:0001da90       ?OnLButtonDown@XMovableInterface@@UAEXMMABVCPoint@@@Z 0041ea90 f   AnimationView.obj
 0001:0001da90       ?OnContextMenu@CThumbView@@QAEXPAVCWnd@@VCPoint@@@Z 0041ea90 f   ThumbView.obj
 0001:0001da90       ?OnContextMenu@CMFCPrintPreviewToolBar@@IAEXPAVCWnd@@VCPoint@@@Z 0041ea90 f   uafxcw:afxpreviewviewex.obj
 0001:0001da90       ?OnNcLButtonDblClk@CMFCEditBrowseCtrl@@IAEXIVCPoint@@@Z 0041ea90 f   uafxcw:afxeditbrowsectrl.obj
 0001:0001da90       ?OnAfterDock@CPane@@MAEXPAVCBasePane@@PBUtagRECT@@W4AFX_DOCK_METHOD@@@Z 0041ea90 f   uafxcw:afxpane.obj
 0001:0001da90       ?Draw@XBaseLayer@@UAEXMMABUD3DXMATRIX@@@Z 0041ea90 f   SprObj.obj
 0001:0001da90       ?CalcBoundBox@XLayerMove@@UAEXMMPAVXSprObj@@@Z 0041ea90 f   SprObj.obj
 0001:0001da90       ?OnSize@COleIPFrameWnd@@IAEXIHH@Z 0041ea90 f   uafxcw:oleipfrm.obj
 0001:0001da90       ?OnLButtonUp@XMovableInterface@@UAEXMMABVCPoint@@@Z 0041ea90 f   AnimationView.obj
 0001:0001daa0       ??1?$_List_buy@PAULAYER_INFO@@V?$allocator@PAULAYER_INFO@@@std@@@std@@QAE@XZ 0041eaa0 f i ActionListView.obj
 0001:0001daa0       ??1?$_List_buy@PAVXBaseKey@@V?$allocator@PAVXBaseKey@@@std@@@std@@QAE@XZ 0041eaa0 f i ActionListView.obj
 0001:0001dab0       ?clear@?$list@PAULAYER_INFO@@V?$allocator@PAULAYER_INFO@@@std@@@std@@QAEXXZ 0041eab0 f i ActionListView.obj
 0001:0001dab0       ?_Tidy@?$list@PAULAYER_INFO@@V?$allocator@PAULAYER_INFO@@@std@@@std@@QAEXXZ 0041eab0 f i ActionListView.obj
 0001:0001dab0       ?_Tidy@?$list@PAVXBaseKey@@V?$allocator@PAVXBaseKey@@@std@@@std@@QAEXXZ 0041eab0 f i ActionListView.obj
 0001:0001dab0       ?clear@?$list@PAVXBaseKey@@V?$allocator@PAVXBaseKey@@@std@@@std@@QAEXXZ 0041eab0 f i ActionListView.obj
 0001:0001daf0       ?accHitTest@CFormView@@UAEJJJPAUtagVARIANT@@@Z 0041eaf0 f i ActionListView.obj
 0001:0001db00       ?accLocation@CFormView@@UAEJPAJ000UtagVARIANT@@@Z 0041eb00 f i ActionListView.obj
 0001:0001db30       ?get_accName@CFormView@@UAEJUtagVARIANT@@PAPA_W@Z 0041eb30 f i ActionListView.obj
 0001:0001db50       ?get_accChild@CFormView@@UAEJUtagVARIANT@@PAPAUIDispatch@@@Z 0041eb50 f i ActionListView.obj
 0001:0001db70       ?get_accChildCount@CFormView@@UAEJPAJ@Z 0041eb70 f i ActionListView.obj
 0001:0001db90       ?LoadMenuW@CMenu@@QAEHI@Z  0041eb90 f i ActionListView.obj
 0001:0001dbc0       ??1CMenu@@UAE@XZ           0041ebc0 f i ActionListView.obj
 0001:0001dbd0       ??_GCMenu@@UAEPAXI@Z       0041ebd0 f i ActionListView.obj
 0001:0001dbd0       ??_ECMenu@@UAEPAXI@Z       0041ebd0 f i * CIL library *:* CIL module *
 0001:0001dc00       ?MoveWindow@CWnd@@QAEXPBUtagRECT@@H@Z 0041ec00 f i ActionListView.obj
 0001:0001dc30       ?AfxGetMainWnd@@YGPAVCWnd@@XZ 0041ec30 f i ActionListView.obj
 0001:0001dc50       ??_GCListCtrl@@UAEPAXI@Z   0041ec50 f i ActionListView.obj
 0001:0001dc50       ??_ECListCtrl@@UAEPAXI@Z   0041ec50 f i * CIL library *:* CIL module *
 0001:0001dc80       ?BeginModalState@CWnd@@UAEXXZ 0041ec80 f i ActionListView.obj
 0001:0001dc90       ?EndModalState@CWnd@@UAEXXZ 0041ec90 f i ActionListView.obj
 0001:0001dca0       ??3CObject@@SGXPAX@Z       0041eca0 f i ActionListView.obj
 0001:0001dcc0       ?FormatV@?$CStringT@_WV?$StrTraitMFC@_WV?$ChTraitsCRT@_W@ATL@@@@@ATL@@QAEXPB_WPAD@Z 0041ecc0 f i ActionListView.obj
 0001:0001dd40       ?Format@?$CStringT@_WV?$StrTraitMFC@_WV?$ChTraitsCRT@_W@ATL@@@@@ATL@@QAAXPB_WZZ 0041ed40 f i ActionListView.obj
 0001:0001dd60       ?CloneData@?$CSimpleStringT@_W$0A@@ATL@@CAPAUCStringData@2@PAU32@@Z 0041ed60 f i ActionListView.obj
 0001:0001ddd0       ??1XD3DView@@UAE@XZ        0041edd0 f i AdjustView.obj
 0001:0001dde0       ??_GXD3DView@@UAEPAXI@Z    0041ede0 f i AdjustView.obj
 0001:0001dde0       ??_EXD3DView@@UAEPAXI@Z    0041ede0 f i * CIL library *:* CIL module *
 0001:0001de10       ?Update@CAnimationView@@UAEXXZ 0041ee10 f i AnimationView.obj
 0001:0001de10       ?Update@CAdjustView@@UAEXXZ 0041ee10 f i AdjustView.obj
 0001:0001de30       ??1XUndoSprite@@UAE@XZ     0041ee30 f i AdjustView.obj
 0001:0001dec0       ??_EXUndoDelSprite@@UAEPAXI@Z 0041eec0 f i * CIL library *:* CIL module *
 0001:0001dec0       ??_GXUndoSprite@@UAEPAXI@Z 0041eec0 f i AdjustView.obj
 0001:0001dec0       ??_GXUndoDelSprite@@UAEPAXI@Z 0041eec0 f i ThumbView.obj
 0001:0001dec0       ??_EXUndoSprite@@UAEPAXI@Z 0041eec0 f i * CIL library *:* CIL module *
 0001:0001df60       ??0XUndoSpriteChange@@QAE@PAVXSprObj@@PAVXSprite@@PB_W@Z 0041ef60 f i AdjustView.obj
 0001:0001e030       ??1XUndoSpriteChange@@UAE@XZ 0041f030 f i AdjustView.obj
 0001:0001e0f0       ?GetText@XUndoSpriteChange@@UAE?AV?$CStringT@_WV?$StrTraitMFC@_WV?$ChTraitsCRT@_W@ATL@@@@@ATL@@XZ 0041f0f0 f i AdjustView.obj
 0001:0001e1b0       ??_EXUndoSpriteChange@@UAEPAXI@Z 0041f1b0 f i * CIL library *:* CIL module *
 0001:0001e1b0       ??_GXUndoSpriteChange@@UAEPAXI@Z 0041f1b0 f i AdjustView.obj
 0001:0001e1e0       ?GetLastQ@XUndoMng@@QAEPAVXBaseUndo@@XZ 0041f1e0 f i AdjustView.obj
 0001:0001e250       ?CreateObject@CAdjustView@@SGPAVCObject@@XZ 0041f250 f   AdjustView.obj
 0001:0001e2c0       ?GetRuntimeClass@CAdjustView@@UBEPAUCRuntimeClass@@XZ 0041f2c0 f   AdjustView.obj
 0001:0001e2d0       ??0CAdjustView@@IAE@XZ     0041f2d0 f   AdjustView.obj
 0001:0001e390       ??_GCAdjustView@@MAEPAXI@Z 0041f390 f i AdjustView.obj
 0001:0001e390       ??_ECAdjustView@@MAEPAXI@Z 0041f390 f i * CIL library *:* CIL module *
 0001:0001e3d0       ?GetMessageMap@CAdjustView@@MBEPBUAFX_MSGMAP@@XZ 0041f3d0 f   AdjustView.obj
 0001:0001e3e0       ?CreateOne@CAdjustView@@SAPAV1@PAVCWnd@@@Z 0041f3e0 f   AdjustView.obj
 0001:0001e4a0       ?OnCreate@CAdjustView@@QAEHPAUtagCREATESTRUCTW@@@Z 0041f4a0 f   AdjustView.obj
 0001:0001e500       ?OnInitialUpdate@CAdjustView@@UAEXXZ 0041f500 f   AdjustView.obj
 0001:0001e560       ?OnDraw@CAdjustView@@MAEXPAVCDC@@@Z 0041f560 f   AdjustView.obj
 0001:0001eae0       ?OnSize@CAdjustView@@QAEXIHH@Z 0041fae0 f   AdjustView.obj
 0001:0001eb30       ?OnMouseMove@CAdjustView@@QAEXIVCPoint@@@Z 0041fb30 f   AdjustView.obj
 0001:0001ed60       ?OnLButtonDown@CAdjustView@@QAEXIVCPoint@@@Z 0041fd60 f   AdjustView.obj
 0001:0001ed80       ?OnLButtonUp@CAdjustView@@QAEXIVCPoint@@@Z 0041fd80 f   AdjustView.obj
 0001:0001ee90       ?OnKeyUp@CAdjustView@@QAEXIII@Z 0041fe90 f   AdjustView.obj
 0001:0001efb0       ?OnKeyUp@CMainFrame@@QAEXIII@Z 0041ffb0 f   MainFrm.obj
 0001:0001efb0       ?OnNcLButtonDblClk@CPaneFrameWnd@@IAEXIVCPoint@@@Z 0041ffb0 f   uafxcw:afxpaneframewnd.obj
 0001:0001efb0       ?OnRButtonUp@CFrameView@@QAEXIVCPoint@@@Z 0041ffb0 f   FrameView.obj
 0001:0001efb0       ?OnSize@CPaneDivider@@IAEXIHH@Z 0041ffb0 f   uafxcw:afxpanedivider.obj
 0001:0001efb0       ?OnKeyDown@CMainFrame@@QAEXIII@Z 0041ffb0 f   MainFrm.obj
 0001:0001efb0       ?OnLButtonUp@XViewGraph@@QAEXIVCPoint@@@Z 0041ffb0 f   XViewGraph.obj
 0001:0001efb0       ?OnSetCursor@CWnd@@IAEHPAV1@II@Z 0041ffb0 f   CoolDialogBar.obj
 0001:0001efb0       ?OnSize@XDlgEditInterpolation@@QAEXIHH@Z 0041ffb0 f   XDlgEditInterpolation.obj
 0001:0001efb0       ?OnNcLButtonDown@CWnd@@IAEXIVCPoint@@@Z 0041ffb0 f   CoolDialogBar.obj
 0001:0001efb0       ?OnKeyDown@CAdjustView@@QAEXIII@Z 0041ffb0 f   AdjustView.obj
 0001:0001efb0       ?OnSize@CDockSite@@IAEXIHH@Z 0041ffb0 f   uafxcw:afxdocksite.obj
 0001:0001efc0       ?OnMouseWheel@CAnimationView@@QAEHIFVCPoint@@@Z 0041ffc0 f   AnimationView.obj
 0001:0001efc0       ?OnMouseWheel@CAdjustView@@QAEHIFVCPoint@@@Z 0041ffc0 f   AdjustView.obj
 0001:0001f060       ??HATL@@YA?AV?$CStringT@_WV?$StrTraitMFC@_WV?$ChTraitsCRT@_W@ATL@@@@@0@ABV10@_W@Z 00420060 f i AdjustView.obj
 0001:0001f120       ?begin@?$deque@PAVXBaseUndo@@V?$allocator@PAVXBaseUndo@@@std@@@std@@QAE?AV?$_Deque_iterator@V?$_Deque_val@U?$_Deque_simple_types@PAVXBaseUndo@@@std@@@std@@@2@XZ 00420120 f i AdjustView.obj
 0001:0001f140       ??$DrawString@M@XBaseFontObj@@QAEMMMPB_W@Z 00420140 f i AdjustView.obj
 0001:0001f1a0       ??$DrawString@H@XBaseFontObj@@QAEMHHPB_W@Z 004201a0 f i AdjustView.obj
 0001:0001f1f2       ??_ECAdjustView@@OMA@AEPAXI@Z 004201f2 f i AdjustView.obj
 0001:0001f200       ?Concatenate@?$CSimpleStringT@_W$0A@@ATL@@KAXAAV12@PB_WH1H@Z 00420200 f i AdjustView.obj
 0001:0001f280       ??HATL@@YA?AV?$CStringT@_WV?$StrTraitMFC@_WV?$ChTraitsCRT@_W@ATL@@@@@0@ABV10@PB_W@Z 00420280 f i AdjustView.obj
 0001:0001f360       ?Add@XSelect@@QAEXPAVXBaseElem@@@Z 00420360 f i AnimationView.obj
 0001:0001f3b0       ??_GXMICrossDir@@UAEPAXI@Z 004203b0 f i AnimationView.obj
 0001:0001f3b0       ??_EXMILayerCrossDir@@UAEPAXI@Z 004203b0 f i * CIL library *:* CIL module *
 0001:0001f3b0       ??_GXMovableInterface@@UAEPAXI@Z 004203b0 f i AnimationView.obj
 0001:0001f3b0       ??_GXMILayerCrossDir@@UAEPAXI@Z 004203b0 f i SprObj.obj
 0001:0001f3b0       ??_EXMovableInterface@@UAEPAXI@Z 004203b0 f i * CIL library *:* CIL module *
 0001:0001f3b0       ??_EXMICrossDir@@UAEPAXI@Z 004203b0 f i * CIL library *:* CIL module *
 0001:0001f3b0       ??_EXMICross@@UAEPAXI@Z    004203b0 f i * CIL library *:* CIL module *
 0001:0001f3b0       ??_GXMICross@@UAEPAXI@Z    004203b0 f i AnimationView.obj
 0001:0001f3e0       ??0XMICross@@QAE@MMMM@Z    004203e0 f i AnimationView.obj
 0001:0001f460       ??0XMICrossDir@@QAE@MMMMMABUVEC2@XE@@@Z 00420460 f i AnimationView.obj
 0001:0001f520       ?GetTypeStr@XBaseLayer@@SAPB_WW4xTYPE@1@@Z 00420520 f i AnimationView.obj
 0001:0001f5c0       ?IsTypeLayerMove@XBaseLayer@@QAEHXZ 004205c0 f i AnimationView.obj
 0001:0001f5e0       ?DrawString@XBaseFontObj@@QAEMABUVEC2@XE@@PB_W@Z 004205e0 f i AnimationView.obj
 0001:0001f650       ?GetNextKey@XAniAction@@QAEPAVXBaseKey@@XZ 00420650 f i AnimationView.obj
 0001:0001f670       ?AddKeyPos@XAniAction@@QAEPAVXKeyPos@@MPAVXBaseLayer@@MM@Z 00420670 f i AnimationView.obj
 0001:0001f760       ?AddKeyScale@XAniAction@@QAEPAVXKeyScale@@MPAVXBaseLayer@@MM@Z 00420760 f i AnimationView.obj
 0001:0001f850       ?AddKeyRot@XAniAction@@QAEPAVXKeyRot@@MPAVXBaseLayer@@M@Z 00420850 f i AnimationView.obj
 0001:0001f930       ?FindLayer@XObjAct@@QAEPAVXBaseLayer@@W4xTYPE@2@H@Z 00420930 f i AnimationView.obj
 0001:0001f970       ?AddImgLayer@XObjAct@@QAEPAVXBaseLayer@@XZ 00420970 f i AnimationView.obj
 0001:0001fa80       ?AddSndLayer@XObjAct@@QAEPAVXBaseLayer@@XZ 00420a80 f i AnimationView.obj
 0001:0001fb80       ?AddEventLayer@XObjAct@@QAEPAVXBaseLayer@@XZ 00420b80 f i AnimationView.obj
 0001:0001fc80       ?GetAction@XSprObj@@QAEPAVXAniAction@@XZ 00420c80 f i AnimationView.obj
 0001:0001fc90       ??1XUndoKey@@UAE@XZ        00420c90 f i AnimationView.obj
 0001:0001fd20       ?GetText@XUndoKey@@UAE?AV?$CStringT@_WV?$StrTraitMFC@_WV?$ChTraitsCRT@_W@ATL@@@@@ATL@@XZ 00420d20 f i AnimationView.obj
 0001:0001fe50       ??_EXUndoCreateKey@@UAEPAXI@Z 00420e50 f i * CIL library *:* CIL module *
 0001:0001fe50       ??_EXUndoKeyChange@@UAEPAXI@Z 00420e50 f i * CIL library *:* CIL module *
 0001:0001fe50       ??_GXUndoKeyChange@@UAEPAXI@Z 00420e50 f i AnimationView.obj
 0001:0001fe50       ??_GXUndoKey@@UAEPAXI@Z    00420e50 f i AnimationView.obj
 0001:0001fe50       ??_GXUndoCreateKey@@UAEPAXI@Z 00420e50 f i AnimationView.obj
 0001:0001fe50       ??_EXUndoKey@@UAEPAXI@Z    00420e50 f i * CIL library *:* CIL module *
 0001:0001fe50       ??_GXUndoDelKey@@UAEPAXI@Z 00420e50 f i FrameView.obj
 0001:0001fe50       ??_EXUndoDelKey@@UAEPAXI@Z 00420e50 f i * CIL library *:* CIL module *
 0001:0001fef0       ??0XUndoCreateKey@@QAE@PAVXSprObj@@PAVXBaseKey@@PB_W@Z 00420ef0 f i AnimationView.obj
 0001:0001ffb0       ??0XUndoKeyChange@@QAE@PAVXSprObj@@PAVXBaseKey@@PB_W@Z 00420fb0 f i AnimationView.obj
 0001:00020080       ?GetText@XUndoKeyChange@@UAE?AV?$CStringT@_WV?$StrTraitMFC@_WV?$ChTraitsCRT@_W@ATL@@@@@ATL@@XZ 00421080 f i AnimationView.obj
 0001:00020250       ??0XUndoLayer@@QAE@PAVXSprObj@@PAVXBaseLayer@@PB_W@Z 00421250 f i AnimationView.obj
 0001:00020320       ??1XUndoLayer@@UAE@XZ      00421320 f i AnimationView.obj
 0001:000203b0       ?GetText@XUndoLayer@@UAE?AV?$CStringT@_WV?$StrTraitMFC@_WV?$ChTraitsCRT@_W@ATL@@@@@ATL@@XZ 004213b0 f i AnimationView.obj
 0001:000204b0       ??_EXUndoCreateLayer@@UAEPAXI@Z 004214b0 f i * CIL library *:* CIL module *
 0001:000204b0       ??_GXUndoCreateLayer@@UAEPAXI@Z 004214b0 f i AnimationView.obj
 0001:000204b0       ??_GXUndoLayer@@UAEPAXI@Z  004214b0 f i AnimationView.obj
 0001:000204b0       ??_EXUndoLayer@@UAEPAXI@Z  004214b0 f i * CIL library *:* CIL module *
 0001:000204b0       ??_GXUndoDelLayer@@UAEPAXI@Z 004214b0 f i FrameView.obj
 0001:000204b0       ??_EXUndoDelLayer@@UAEPAXI@Z 004214b0 f i * CIL library *:* CIL module *
 0001:00020550       ??0XUndoCreateLayer@@QAE@PAVXSprObj@@PAVXBaseLayer@@PB_W@Z 00421550 f i AnimationView.obj
 0001:000205f0       ?AddSelSpr@XTool@@QAEXPAVXSprite@@@Z 004215f0 f i AnimationView.obj
 0001:00020640       ?ClearSelSpr@XTool@@QAEXXZ 00421640 f i AnimationView.obj
 0001:00020680       ??0XDragSelect@@QAE@XZ     00421680 f i AnimationView.obj
 0001:00020700       ??1XDragSelect@@UAE@XZ     00421700 f i AnimationView.obj
 0001:00020710       ??_EXDragSelect@@UAEPAXI@Z 00421710 f i * CIL library *:* CIL module *
 0001:00020710       ??_GXDragSelect@@UAEPAXI@Z 00421710 f i AnimationView.obj
 0001:00020740       ?Projection@CAnimationView@@UAE?AUVEC2@XE@@ABU23@@Z 00421740 f i AnimationView.obj
 0001:00020780       ?UnProjection@CAnimationView@@UAE?AUVEC2@XE@@ABU23@@Z 00421780 f i AnimationView.obj
 0001:000207c0       ?CreateObject@CAnimationView@@SGPAVCObject@@XZ 004217c0 f   AnimationView.obj
 0001:00020830       ?GetRuntimeClass@CAnimationView@@UBEPAUCRuntimeClass@@XZ 00421830 f   AnimationView.obj
 0001:00020840       ??0CAnimationView@@IAE@XZ  00421840 f   AnimationView.obj
 0001:00020a50       ??_ECAnimationView@@MAEPAXI@Z 00421a50 f i * CIL library *:* CIL module *
 0001:00020a50       ??_GCAnimationView@@MAEPAXI@Z 00421a50 f i AnimationView.obj
 0001:00020a80       ??1CAnimationView@@MAE@XZ  00421a80 f   AnimationView.obj
 0001:00020bd0       ?GetMessageMap@CAnimationView@@MBEPBUAFX_MSGMAP@@XZ 00421bd0 f   AnimationView.obj
 0001:00020be0       ?OnKickIdle@CFrameView@@QAEJIJ@Z 00421be0 f   FrameView.obj
 0001:00020be0       ?OnKickIdle@CAnimationView@@QAEJIJ@Z 00421be0 f   AnimationView.obj
 0001:00020bf0       ?OnInitialUpdate@CAnimationView@@UAEXXZ 00421bf0 f   AnimationView.obj
 0001:00020c60       ?OnCreate@CAnimationView@@QAEHPAUtagCREATESTRUCTW@@@Z 00421c60 f   AnimationView.obj
 0001:00020d50       ?OnSize@CAnimationView@@QAEXIHH@Z 00421d50 f   AnimationView.obj
 0001:00020e20       ?Draw@CAnimationView@@QAEXXZ 00421e20 f   AnimationView.obj
 0001:00021d80       ?DrawPathLayer@CAnimationView@@QAEXPAVXAniAction@@W4xtLINE@SPR@@PAVXLayerMove@@K@Z 00422d80 f   AnimationView.obj
 0001:000222b0       ?OnKeyDown@CAnimationView@@QAEXIII@Z 004232b0 f   AnimationView.obj
 0001:000222e0       ?OnKeyUp@CAnimationView@@QAEXIII@Z 004232e0 f   AnimationView.obj
 0001:00022410       ?MoveLayer@CAnimationView@@QAEPAVXKeyPos@@PAVXAniAction@@PAVXBaseLayer@@ABUVEC2@XE@@H@Z 00423410 f   AnimationView.obj
 0001:00022670       ?OnLButtonUp@CAnimationView@@QAEXIVCPoint@@@Z 00423670 f   AnimationView.obj
 0001:00022b90       ?OnMouseMove@CAnimationView@@QAEXIVCPoint@@@Z 00423b90 f   AnimationView.obj
 0001:000236c0       ?OnLButtonDown@CAnimationView@@QAEXIVCPoint@@@Z 004246c0 f   AnimationView.obj
 0001:00023b50       ?OnDraw@CAnimationView@@MAEXPAVCDC@@@Z 00424b50 f   AnimationView.obj
 0001:00023b60       ?OnRButtonUp@CAnimationView@@QAEXIVCPoint@@@Z 00424b60 f   AnimationView.obj
 0001:00023bb0       ?PopupLayer@CAnimationView@@QAEXVCPoint@@@Z 00424bb0 f   AnimationView.obj
 0001:00023c80       ?OnDrawProperty@CAnimationView@@QAEXXZ 00424c80 f   AnimationView.obj
 0001:00023e70       ?OnUpdateDrawProperty@CAnimationView@@QAEXPAVCCmdUI@@@Z 00424e70 f   AnimationView.obj
 0001:00023eb0       ?OnCreateEvent@CAnimationView@@QAEXXZ 00424eb0 f   AnimationView.obj
 0001:00023f90       ?OnCreateDummy@CAnimationView@@QAEXXZ 00424f90 f   AnimationView.obj
 0001:000240e0       ?OnCreateSound@CAnimationView@@QAEXXZ 004250e0 f   AnimationView.obj
 0001:000241c0       ?OnUpdateCreateEvent@CAnimationView@@QAEXPAVCCmdUI@@@Z 004251c0 f   AnimationView.obj
 0001:000241c0       ?OnUpdateEditAni@CFrameView@@QAEXPAVCCmdUI@@@Z 004251c0 f   FrameView.obj
 0001:00024200       ?OnEditEvent@CAnimationView@@QAEXXZ 00425200 f   AnimationView.obj
 0001:00024240       ?OnUpdateEditEvent@CAnimationView@@QAEXPAVCCmdUI@@@Z 00425240 f   AnimationView.obj
 0001:000242e0       ?OnPropertyObj@CAnimationView@@QAEXXZ 004252e0 f   AnimationView.obj
 0001:000244f0       ?OnUpdatePropertyObj@CAnimationView@@QAEXPAVCCmdUI@@@Z 004254f0 f   AnimationView.obj
 0001:00024540       ?OnViewTransAxis@CAnimationView@@QAEXXZ 00425540 f   AnimationView.obj
 0001:00024570       ?OnUpdateViewTransAxis@CAnimationView@@QAEXPAVCCmdUI@@@Z 00425570 f   AnimationView.obj
 0001:000245a0       ?PreTranslateMessage@CAnimationView@@UAEHPAUtagMSG@@@Z 004255a0 f   AnimationView.obj
 0001:000245f0       ?OnSysKeyDown@CAnimationView@@QAEXIII@Z 004255f0 f   AnimationView.obj
 0001:00024610       ?OnSysKeyUp@CAnimationView@@QAEXIII@Z 00425610 f   AnimationView.obj
 0001:00024630       ?SelectGetNextClear@CAnimationView@@UAEXXZ 00425630 f   AnimationView.obj
 0001:00024660       ?SelectGetNext@CAnimationView@@UAEPAVXBaseElem@@XZ 00425660 f   AnimationView.obj
 0001:000246a0       ?SelectOnDragOnly@CAnimationView@@UAEXPAVXBaseElem@@ABUVEC2@XE@@@Z 004256a0 f   AnimationView.obj
 0001:00024740       ?GetSelectObj@CAnimationView@@UAEPAVXBaseElem@@K@Z 00425740 f   AnimationView.obj
 0001:00024780       ?Replace@?$CStringT@_WV?$StrTraitMFC@_WV?$ChTraitsCRT@_W@ATL@@@@@ATL@@QAEH_W0@Z 00425780 f i AnimationView.obj
 0001:00024820       ??HATL@@YA?AV?$CStringT@_WV?$StrTraitMFC@_WV?$ChTraitsCRT@_W@ATL@@@@@0@ABV10@0@Z 00425820 f i AnimationView.obj
 0001:000248e0       ??A?$map@KPAVXBaseKey@@U?$less@K@std@@V?$allocator@U?$pair@$$CBKPAVXBaseKey@@@std@@@3@@std@@QAEAAPAVXBaseKey@@ABK@Z 004258e0 f i AnimationView.obj
 0001:000248e0       ??A?$map@KPAVXBaseKey@@U?$less@K@std@@V?$allocator@U?$pair@$$CBKPAVXBaseKey@@@std@@@3@@std@@QAEAAPAVXBaseKey@@$$QAK@Z 004258e0 f i Key.obj
 0001:00024960       ??1?$XList@K@@UAE@XZ       00425960 f i AnimationView.obj
 0001:000249d0       ??_E?$XList@K@@UAEPAXI@Z   004259d0 f i * CIL library *:* CIL module *
 0001:000249d0       ??_G?$XList@K@@UAEPAXI@Z   004259d0 f i AnimationView.obj
 0001:00024a00       ?Clear@XSelect@@QAEXXZ     00425a00 f i Select.obj
 0001:00024a00       ?Clear@?$XList@K@@QAEXXZ   00425a00 f i AnimationView.obj
 0001:00024a40       ?_Lrotate@?$_Tree@V?$_Tmap_traits@KPAVXBaseKey@@U?$less@K@std@@V?$allocator@U?$pair@$$CBKPAVXBaseKey@@@std@@@3@$0A@@std@@@std@@IAEXPAU?$_Tree_node@U?$pair@$$CBKPAVXBaseKey@@@std@@PAX@2@@Z 00425a40 f i AnimationView.obj
 0001:00024aa0       ?_Rrotate@?$_Tree@V?$_Tmap_traits@KPAVXBaseKey@@U?$less@K@std@@V?$allocator@U?$pair@$$CBKPAVXBaseKey@@@std@@@3@$0A@@std@@@std@@IAEXPAU?$_Tree_node@U?$pair@$$CBKPAVXBaseKey@@@std@@PAX@2@@Z 00425aa0 f i AnimationView.obj
 0001:00024b00       ??E?$_Tree_unchecked_const_iterator@V?$_Tree_val@U?$_Tree_simple_types@U?$pair@$$CBKPAVXBaseKey@@@std@@@std@@@std@@U_Iterator_base0@2@@std@@QAEAAV01@XZ 00425b00 f i AnimationView.obj
 0001:00024b50       ??$swprintf_s@$0BAA@@@YAHAAY0BAA@_WPB_WZZ 00425b50 f i AnimationView.obj
 0001:00024b70       ??$DrawStringF@M@XBaseFontObj@@QAAMMMPB_WZZ 00425b70 f i AnimationView.obj
 0001:00024c00       ??$FindKey@VXKeyPos@@@XAniAction@@QAEXPAVXBaseLayer@@MPAPAVXKeyPos@@@Z 00425c00 f i AnimationView.obj
 0001:00024c90       ??$FindKey@VXKeyRot@@@XAniAction@@QAEXPAVXBaseLayer@@MPAPAVXKeyRot@@@Z 00425c90 f i AnimationView.obj
 0001:00024d20       ??$FindKey@VXKeyScale@@@XAniAction@@QAEXPAVXBaseLayer@@MPAPAVXKeyScale@@@Z 00425d20 f i AnimationView.obj
 0001:00024db0       ??$FindKey@VXKeyEffect@@@XAniAction@@QAEXPAVXBaseLayer@@MPAPAVXKeyEffect@@@Z 00425db0 f i AnimationView.obj
 0001:00024e40       ??$FindKey@VXKeyDummy@@@XAniAction@@QAEXPAVXBaseLayer@@MPAPAVXKeyDummy@@@Z 00425e40 f i AnimationView.obj
 0001:00024ed0       ??$_Buynode@ABUpiecewise_construct_t@std@@V?$tuple@$$QAK@2@V?$tuple@$$$V@2@@?$_Tree_buy@U?$pair@$$CBKPAVXBaseKey@@@std@@V?$allocator@U?$pair@$$CBKPAVXBaseKey@@@std@@@2@@std@@QAEPAU?$_Tree_node@U?$pair@$$CBKPAVXBaseKey@@@std@@PAX@1@ABUpiecewise_construct_t@1@$$QAV?$tuple@$$QAK@1@$$QAV?$tuple@$$$V@1@@Z 00425ed0 f i Key.obj
 0001:00024ed0       ??$_Buynode@ABUpiecewise_construct_t@std@@V?$tuple@ABK@2@V?$tuple@$$$V@2@@?$_Tree_buy@U?$pair@$$CBKPAVXBaseKey@@@std@@V?$allocator@U?$pair@$$CBKPAVXBaseKey@@@std@@@2@@std@@QAEPAU?$_Tree_node@U?$pair@$$CBKPAVXBaseKey@@@std@@PAX@1@ABUpiecewise_construct_t@1@$$QAV?$tuple@ABK@1@$$QAV?$tuple@$$$V@1@@Z 00425ed0 f i AnimationView.obj
 0001:00024f00       ??$_Insert_hint@AAU?$pair@$$CBKPAVXBaseKey@@@std@@PAU?$_Tree_node@U?$pair@$$CBKPAVXBaseKey@@@std@@PAX@2@@?$_Tree@V?$_Tmap_traits@KPAVXBaseKey@@U?$less@K@std@@V?$allocator@U?$pair@$$CBKPAVXBaseKey@@@std@@@3@$0A@@std@@@std@@IAE?AV?$_Tree_iterator@V?$_Tree_val@U?$_Tree_simple_types@U?$pair@$$CBKPAVXBaseKey@@@std@@@std@@@std@@@1@V?$_Tree_const_iterator@V?$_Tree_val@U?$_Tree_simple_types@U?$pair@$$CBKPAVXBaseKey@@@std@@@std@@@std@@@1@AAU?$pair@$$CBKPAVXBaseKey@@@1@PAU?$_Tree_node@U?$pair@$$CBKPAVXBaseKey@@@std@@PAX@1@@Z 00425f00 f i AnimationView.obj
 0001:00025120       ?_Buynode0@?$_Tree_buy@U?$pair@$$CBKPAVXBaseKey@@@std@@V?$allocator@U?$pair@$$CBKPAVXBaseKey@@@std@@@2@@std@@QAEPAU?$_Tree_node@U?$pair@$$CBKPAVXBaseKey@@@std@@PAX@2@XZ 00426120 f i AnimationView.obj
 0001:00025160       ??F?$_Tree_unchecked_const_iterator@V?$_Tree_val@U?$_Tree_simple_types@U?$pair@$$CBKPAVXBaseKey@@@std@@@std@@@std@@U_Iterator_base0@2@@std@@QAEAAV01@XZ 00426160 f i AnimationView.obj
 0001:000251c0       ??$_Insert_at@AAU?$pair@$$CBKPAVXBaseKey@@@std@@PAU?$_Tree_node@U?$pair@$$CBKPAVXBaseKey@@@std@@PAX@2@@?$_Tree@V?$_Tmap_traits@KPAVXBaseKey@@U?$less@K@std@@V?$allocator@U?$pair@$$CBKPAVXBaseKey@@@std@@@3@$0A@@std@@@std@@IAE?AV?$_Tree_iterator@V?$_Tree_val@U?$_Tree_simple_types@U?$pair@$$CBKPAVXBaseKey@@@std@@@std@@@std@@@1@_NPAU?$_Tree_node@U?$pair@$$CBKPAVXBaseKey@@@std@@PAX@1@AAU?$pair@$$CBKPAVXBaseKey@@@1@1@Z 004261c0 f i AnimationView.obj
 0001:000253d0       ??$_Insert_nohint@AAU?$pair@$$CBKPAVXBaseKey@@@std@@PAU?$_Tree_node@U?$pair@$$CBKPAVXBaseKey@@@std@@PAX@2@@?$_Tree@V?$_Tmap_traits@KPAVXBaseKey@@U?$less@K@std@@V?$allocator@U?$pair@$$CBKPAVXBaseKey@@@std@@@3@$0A@@std@@@std@@IAE?AU?$pair@V?$_Tree_iterator@V?$_Tree_val@U?$_Tree_simple_types@U?$pair@$$CBKPAVXBaseKey@@@std@@@std@@@std@@@std@@_N@1@_NAAU?$pair@$$CBKPAVXBaseKey@@@1@PAU?$_Tree_node@U?$pair@$$CBKPAVXBaseKey@@@std@@PAX@1@@Z 004263d0 f i AnimationView.obj
 0001:000254d6       ??_ECAnimationView@@OPE@AEPAXI@Z 004264d6 f i AnimationView.obj
 0001:000254e1       ??_ECAnimationView@@OMA@AEPAXI@Z 004264e1 f i AnimationView.obj
 0001:000254f0       ?CreateObject@CConsoleView@@SGPAVCObject@@XZ 004264f0 f   ConsoleView.obj
 0001:00025590       ?GetRuntimeClass@CConsoleView@@UBEPAUCRuntimeClass@@XZ 00426590 f   ConsoleView.obj
 0001:000255a0       ??_ECConsoleView@@MAEPAXI@Z 004265a0 f i * CIL library *:* CIL module *
 0001:000255a0       ??_GCConsoleView@@MAEPAXI@Z 004265a0 f i ConsoleView.obj
 0001:00025640       ?CreateOne@CConsoleView@@SAPAV1@PAVCWnd@@@Z 00426640 f   ConsoleView.obj
 0001:00025720       ?DoDataExchange@CConsoleView@@MAEXPAVCDataExchange@@@Z 00426720 f   ConsoleView.obj
 0001:00025740       ?GetMessageMap@CConsoleView@@MBEPBUAFX_MSGMAP@@XZ 00426740 f   ConsoleView.obj
 0001:00025750       ?MessageString@CConsoleView@@QAEXPB_W@Z 00426750 f   ConsoleView.obj
 0001:00025800       ?Message@CConsoleView@@QAAXPB_WZZ 00426800 f   ConsoleView.obj
 0001:00025860       ?OnInitialUpdate@CConsoleView@@UAEXXZ 00426860 f   ConsoleView.obj
 0001:000258e0       ?OnSize@CConsoleView@@QAEXIHH@Z 004268e0 f   ConsoleView.obj
 0001:00025920       ?SetSel@CEdit@@QAEXHHH@Z   00426920 f i ConsoleView.obj
 0001:00025960       ?Append@?$CSimpleStringT@_W$0A@@ATL@@QAEXPB_W@Z 00426960 f i ConsoleView.obj
 0001:000259a0       ?AddKeyCreateObj@XAniAction@@QAEPAVXKeyCreateObj@@KPB_WKW4xRPT_TYPE@@PAVXBaseLayer@@MMM@Z 004269a0 f i FrameView.obj
 0001:00025ac0       ?SetLua@XSprDat@@QAEXPBD@Z 00426ac0 f i FrameView.obj
 0001:00025b30       ?SetKeyCurrStart@XSprObj@@QAEXXZ 00426b30 f i FrameView.obj
 0001:00025b60       ?GetLayer@XSprObj@@QAEPAVXBaseLayer@@W4xTYPE@2@H@Z 00426b60 f i FrameView.obj
 0001:00025ba0       ?DelLayer@XSprObj@@QAEXPAVXBaseLayer@@H@Z 00426ba0 f i FrameView.obj
 0001:00025bf0       ?SwapLayer@XSprObj@@QAEHPAVXBaseLayer@@0@Z 00426bf0 f i FrameView.obj
 0001:00025d40       ?GetInsideKey@XSprObjTool@@QAEPAVXBaseKey@@ABUVEC2@XE@@M@Z 00426d40 f i FrameView.obj
 0001:00025e20       ??0XUndoDelKey@@QAE@PAVXSprObj@@PAVXBaseKey@@PB_W@Z 00426e20 f i FrameView.obj
 0001:00025ee0       ??0XUndoDelLayer@@QAE@PAVXSprObj@@PAVXBaseLayer@@PB_W@Z 00426ee0 f i FrameView.obj
 0001:00025f80       ??0XUndoActionChange@@QAE@PAVXSprObj@@PAVXAniAction@@PB_W@Z 00426f80 f i FrameView.obj
 0001:00026070       ??1XUndoActionChange@@UAE@XZ 00427070 f i FrameView.obj
 0001:00026130       ?SetActionAfter@XUndoActionChange@@QAEXPAVXAniAction@@@Z 00427130 f i FrameView.obj
 0001:000261c0       ??_EXUndoActionChange@@UAEPAXI@Z 004271c0 f i * CIL library *:* CIL module *
 0001:000261c0       ??_GXUndoActionChange@@UAEPAXI@Z 004271c0 f i FrameView.obj
 0001:000261f0       ?AddSelectKey@XTool@@QAEXPAVXBaseKey@@@Z 004271f0 f i FrameView.obj
 0001:00026240       ?FindSelectKey@XTool@@QAEHPAVXBaseKey@@@Z 00427240 f i FrameView.obj
 0001:00026270       ?ClearSelectKey@XTool@@QAEXXZ 00427270 f i FrameView.obj
 0001:000262b0       ??_GCFrameView@@UAEPAXI@Z  004272b0 f i FrameView.obj
 0001:000262b0       ??_ECFrameView@@UAEPAXI@Z  004272b0 f i * CIL library *:* CIL module *
 0001:000262b0       ??_GXMyD3DView@@UAEPAXI@Z  004272b0 f i FrameView.obj
 0001:000262b0       ??_EXMyD3DView@@UAEPAXI@Z  004272b0 f i * CIL library *:* CIL module *
 0001:000262e0       ?IsDragMode@CFrameView@@QAE?AW4xtDragState@1@W4xtDragMode@1@@Z 004272e0 f i FrameView.obj
 0001:00026340       ?CreateObject@CFrameView@@SGPAVCObject@@XZ 00427340 f   FrameView.obj
 0001:000263b0       ?GetRuntimeClass@CFrameView@@UBEPAUCRuntimeClass@@XZ 004273b0 f   FrameView.obj
 0001:000263c0       ??0CFrameView@@QAE@XZ      004273c0 f   FrameView.obj
 0001:000264e0       ?GetMessageMap@CFrameView@@MBEPBUAFX_MSGMAP@@XZ 004274e0 f   FrameView.obj
 0001:000264f0       ?OnCreate@CThumbView@@QAEHPAUtagCREATESTRUCTW@@@Z 004274f0 f   ThumbView.obj
 0001:000264f0       ?OnCreate@CFrameView@@QAEHPAUtagCREATESTRUCTW@@@Z 004274f0 f   FrameView.obj
 0001:00026550       ?OnInitialUpdate@CFrameView@@UAEXXZ 00427550 f   FrameView.obj
 0001:000265a0       ?UpdateDrawPos@XBaseKey@@QAE?AUVEC2@XE@@PAVXSprObj@@MMMM@Z 004275a0 f   FrameView.obj
 0001:000267b0       ?DrawKey@XBaseKey@@UAEXKM@Z 004277b0 f   FrameView.obj
 0001:00026890       ?IsInside@XBaseKey@@QAEHABUVEC2@XE@@0M@Z 00427890 f   FrameView.obj
 0001:00026930       ?Draw@CFrameView@@UAEXXZ   00427930 f   FrameView.obj
 0001:000282f0       ?OnBnClickedButtAddLayer@CFrameView@@QAEXXZ 004292f0 f   FrameView.obj
 0001:00028310       ?OnKeyDown@CFrameView@@QAEXIII@Z 00429310 f   FrameView.obj
 0001:00028380       ?OnKeyUp@CFrameView@@QAEXIII@Z 00429380 f   FrameView.obj
 0001:000283d0       ?ProcessSelectKey@CFrameView@@QAEHIVCPoint@@@Z 004293d0 f   FrameView.obj
 0001:00028660       ?OnLButtonUp@CFrameView@@QAEXIVCPoint@@@Z 00429660 f   FrameView.obj
 0001:00028ba0       ?OnLButtonDown@CFrameView@@QAEXIVCPoint@@@Z 00429ba0 f   FrameView.obj
 0001:00028ef0       ?OnMouseMove@CFrameView@@QAEXIVCPoint@@@Z 00429ef0 f   FrameView.obj
 0001:000296e0       ?MoveFrame@CFrameView@@QAEXVCPoint@@@Z 0042a6e0 f   FrameView.obj
 0001:00029770       ?MoveFrame@CFrameView@@QAEXM@Z 0042a770 f   FrameView.obj
 0001:00029850       ?OnMouseWheel@CFrameView@@QAEHIFVCPoint@@@Z 0042a850 f   FrameView.obj
 0001:000299a0       ?PreTranslateMessage@CFrameView@@UAEHPAUtagMSG@@@Z 0042a9a0 f   FrameView.obj
 0001:000299b0       ?OnDelKey@CFrameView@@QAEXXZ 0042a9b0 f   FrameView.obj
 0001:00029b30       ?OnBnClickedButtCreateobj@CFrameView@@QAEXXZ 0042ab30 f   FrameView.obj
 0001:00029d00       ?Update@CFrameView@@UAEXXZ 0042ad00 f   FrameView.obj
 0001:00029d60       ?PopupKeyFrame@CFrameView@@QAEXVCPoint@@@Z 0042ad60 f   FrameView.obj
 0001:00029e50       ?OnRButtonDown@CFrameView@@QAEXIVCPoint@@@Z 0042ae50 f   FrameView.obj
 0001:00029ff0       ?OnAddLayerSound@CFrameView@@QAEXXZ 0042aff0 f   FrameView.obj
 0001:0002a030       ?OnDelSelLayer@CFrameView@@QAEXXZ 0042b030 f   FrameView.obj
 0001:0002a1e0       ?OnEditKey@CFrameView@@QAEXXZ 0042b1e0 f   FrameView.obj
 0001:0002a350       ?OnUpdateEditKey@CFrameView@@QAEXPAVCCmdUI@@@Z 0042b350 f   FrameView.obj
 0001:0002a350       ?OnUpdateSetPath@CFrameView@@QAEXPAVCCmdUI@@@Z 0042b350 f   FrameView.obj
 0001:0002a380       ?OnEditAni@CFrameView@@QAEXXZ 0042b380 f   FrameView.obj
 0001:0002a500       ?OnBnClickedReloadSound@CFrameView@@QAEXXZ 0042b500 f   FrameView.obj
 0001:0002a520       ?OnSetRepeatmark@CFrameView@@QAEXXZ 0042b520 f   FrameView.obj
 0001:0002a550       ?OnMoveStart@CFrameView@@QAEXXZ 0042b550 f   FrameView.obj
 0001:0002a570       ?OnMoveEnd@CFrameView@@QAEXXZ 0042b570 f   FrameView.obj
 0001:0002a5a0       ?OnCbnSelchangeCombo1@CFrameView@@QAEXXZ 0042b5a0 f   FrameView.obj
 0001:0002a5d0       ?OnShowLayer@CFrameView@@QAEXXZ 0042b5d0 f   FrameView.obj
 0001:0002a5f0       ?OnUpdateShowLayer@CFrameView@@QAEXPAVCCmdUI@@@Z 0042b5f0 f   FrameView.obj
 0001:0002a620       ?OnCreateKey@CFrameView@@QAEXXZ 0042b620 f   FrameView.obj
 0001:0002a6d0       ?OnSetCursor@CFrameView@@QAEHPAVCWnd@@II@Z 0042b6d0 f   FrameView.obj
 0001:0002a710       ?OnMButtonDown@CFrameView@@QAEXIVCPoint@@@Z 0042b710 f   FrameView.obj
 0001:0002a750       ?OnMButtonUp@CFrameView@@QAEXIVCPoint@@@Z 0042b750 f   FrameView.obj
 0001:0002a7f0       ?OnGridFrame@CFrameView@@QAEXXZ 0042b7f0 f   FrameView.obj
 0001:0002a810       ?OnUpdateGridFrame@CFrameView@@QAEXPAVCCmdUI@@@Z 0042b810 f   FrameView.obj
 0001:0002a840       ?OnGridTime@CFrameView@@QAEXXZ 0042b840 f   FrameView.obj
 0001:0002a860       ?OnUpdateGridTime@CFrameView@@QAEXPAVCCmdUI@@@Z 0042b860 f   FrameView.obj
 0001:0002a890       ?OnSelectAllKey@CFrameView@@QAEXXZ 0042b890 f   FrameView.obj
 0001:0002a960       ?OnSetPath@CFrameView@@QAEXXZ 0042b960 f   FrameView.obj
 0001:0002ac00       ?OnReleasePath@CFrameView@@QAEXXZ 0042bc00 f   FrameView.obj
 0001:0002aca0       ?OnUpdateReleasePath@CFrameView@@QAEXPAVCCmdUI@@@Z 0042bca0 f   FrameView.obj
 0001:0002acf0       ?OnPathTypeLine@CFrameView@@QAEXXZ 0042bcf0 f   FrameView.obj
 0001:0002ad40       ?OnUpdatePathTypeLine@CFrameView@@QAEXPAVCCmdUI@@@Z 0042bd40 f   FrameView.obj
 0001:0002ada0       ?OnPathTypeCatmullrom@CFrameView@@QAEXXZ 0042bda0 f   FrameView.obj
 0001:0002adf0       ?OnUpdatePathTypeCatmullrom@CFrameView@@QAEXPAVCCmdUI@@@Z 0042bdf0 f   FrameView.obj
 0001:0002ae50       ?OnSetInterpolation@CFrameView@@QAEXXZ 0042be50 f   FrameView.obj
 0001:0002b030       ?DrawInterpolationLine@CFrameView@@QAEXPAVXKeyPos@@0ABUVEC2@XE@@@Z 0042c030 f   FrameView.obj
 0001:0002b220       ??1?$XList@PAVXKeyPos@@@@UAE@XZ 0042c220 f i FrameView.obj
 0001:0002b290       ?GetNextClear@?$XList@PAVXKeyPos@@@@QAE?AVItor@1@XZ 0042c290 f i FrameView.obj
 0001:0002b2b0       ??1Itor@?$XList@PAVXKeyPos@@@@UAE@XZ 0042c2b0 f i FrameView.obj
 0001:0002b2c0       ??_E?$XList@PAVXKeyPos@@@@UAEPAXI@Z 0042c2c0 f i * CIL library *:* CIL module *
 0001:0002b2c0       ??_G?$XList@PAVXKeyPos@@@@UAEPAXI@Z 0042c2c0 f i FrameView.obj
 0001:0002b2f0       ??_EItor@?$XList@PAVXKeyPos@@@@UAEPAXI@Z 0042c2f0 f i * CIL library *:* CIL module *
 0001:0002b2f0       ??_GItor@?$XList@PAVXKeyPos@@@@UAEPAXI@Z 0042c2f0 f i FrameView.obj
 0001:0002b320       ??$sort@P6A_NPAVXBaseElem@@0@Z@?$list@PAVXBaseElem@@V?$allocator@PAVXBaseElem@@@std@@@std@@QAEXP6A_NPAVXBaseElem@@0@Z@Z 0042c320 f i FrameView.obj
 0001:0002b600       ?_Splice_same@?$list@PAVXSprite@@V?$allocator@PAVXSprite@@@std@@@std@@QAEXV?$_List_const_iterator@V?$_List_val@U?$_List_simple_types@PAVXSprite@@@std@@@std@@@2@AAV12@00I@Z 0042c600 f i SprDat.obj
 0001:0002b600       ?_Splice_same@?$list@V?$CStringT@_WV?$StrTraitMFC@_WV?$ChTraitsCRT@_W@ATL@@@@@ATL@@V?$allocator@V?$CStringT@_WV?$StrTraitMFC@_WV?$ChTraitsCRT@_W@ATL@@@@@ATL@@@std@@@std@@QAEXV?$_List_const_iterator@V?$_List_val@U?$_List_simple_types@V?$CStringT@_WV?$StrTraitMFC@_WV?$ChTraitsCRT@_W@ATL@@@@@ATL@@@std@@@std@@@2@AAV12@00I@Z 0042c600 f i ThumbView.obj
 0001:0002b600       ?_Splice_same@?$list@PAVXBaseElem@@V?$allocator@PAVXBaseElem@@@std@@@std@@QAEXV?$_List_const_iterator@V?$_List_val@U?$_List_simple_types@PAVXBaseElem@@@std@@@std@@@2@AAV12@00I@Z 0042c600 f i FrameView.obj
 0001:0002b600       ?_Splice_same@?$list@PAVXBaseKey@@V?$allocator@PAVXBaseKey@@@std@@@std@@QAEXV?$_List_const_iterator@V?$_List_val@U?$_List_simple_types@PAVXBaseKey@@@std@@@std@@@2@AAV12@00I@Z 0042c600 f i SprDat.obj
 0001:0002b600       ?_Splice_same@?$list@PAVXBaseLayer@@V?$allocator@PAVXBaseLayer@@@std@@@std@@QAEXV?$_List_const_iterator@V?$_List_val@U?$_List_simple_types@PAVXBaseLayer@@@std@@@std@@@2@AAV12@00I@Z 0042c600 f i SprObj.obj
 0001:0002b680       ??$merge@P6A_NPAVXBaseElem@@0@Z@?$list@PAVXBaseElem@@V?$allocator@PAVXBaseElem@@@std@@@std@@QAEXAAV01@P6A_NPAVXBaseElem@@1@Z@Z 0042c680 f i FrameView.obj
 0001:0002b6fd       ??_ECFrameView@@WHM@AEPAXI@Z 0042c6fd f i FrameView.obj
 0001:0002b710       ?FindSelSpr@XTool@@QAEHPAVXSprite@@@Z 0042c710 f i ThumbView.obj
 0001:0002b740       ?Update@CThumbView@@UAEXXZ 0042c740 f i ThumbView.obj
 0001:0002b760       ?CreateObject@CThumbView@@SGPAVCObject@@XZ 0042c760 f   ThumbView.obj
 0001:0002b7d0       ?GetRuntimeClass@CThumbView@@UBEPAUCRuntimeClass@@XZ 0042c7d0 f   ThumbView.obj
 0001:0002b7e0       ??0CThumbView@@IAE@XZ      0042c7e0 f   ThumbView.obj
 0001:0002b8e0       ??_GCThumbView@@MAEPAXI@Z  0042c8e0 f i ThumbView.obj
 0001:0002b8e0       ??_ECThumbView@@MAEPAXI@Z  0042c8e0 f i * CIL library *:* CIL module *
 0001:0002b980       ?GetMessageMap@CThumbView@@MBEPBUAFX_MSGMAP@@XZ 0042c980 f   ThumbView.obj
 0001:0002b990       ?CreateOne@CThumbView@@SAPAV1@PAVCWnd@@@Z 0042c990 f   ThumbView.obj
 0001:0002ba50       ?OnInitialUpdate@CThumbView@@MAEXXZ 0042ca50 f   ThumbView.obj
 0001:0002bae0       ?DrawThumbNailView@CThumbView@@QAEXHM@Z 0042cae0 f   ThumbView.obj
 0001:0002c040       ?OnDraw@CThumbView@@MAEXPAVCDC@@@Z 0042d040 f   ThumbView.obj
 0001:0002c230       ?OnDropFiles@CThumbView@@QAEXPAUHDROP__@@@Z 0042d230 f   ThumbView.obj
 0001:0002c720       ?OnSize@CThumbView@@QAEXIHH@Z 0042d720 f   ThumbView.obj
 0001:0002c770       ?GetSprIdx@CThumbView@@QAEHVCPoint@@@Z 0042d770 f   ThumbView.obj
 0001:0002c840       ?OnLButtonDown@CThumbView@@QAEXIVCPoint@@@Z 0042d840 f   ThumbView.obj
 0001:0002cc50       ?OnMouseMove@CThumbView@@QAEXIVCPoint@@@Z 0042dc50 f   ThumbView.obj
 0001:0002cd70       ?OnLButtonUp@CThumbView@@QAEXIVCPoint@@@Z 0042dd70 f   ThumbView.obj
 0001:0002cee0       ?OnRButtonUp@CThumbView@@QAEXIVCPoint@@@Z 0042dee0 f   ThumbView.obj
 0001:0002cfd0       ?OnDelSelSpr@CThumbView@@QAEXXZ 0042dfd0 f   ThumbView.obj
 0001:0002d2b0       ?OnAddSelSpr@CThumbView@@QAEXXZ 0042e2b0 f   ThumbView.obj
 0001:0002d350       ?OnInsKeyFrame@CThumbView@@QAEXXZ 0042e350 f   ThumbView.obj
 0001:0002d380       ?OnInitAdj@CThumbView@@QAEXXZ 0042e380 f   ThumbView.obj
 0001:0002d4a0       ?OnAdjCenter@CThumbView@@QAEXXZ 0042e4a0 f   ThumbView.obj
 0001:0002d5e0       ?OnSetBaseSpr@CThumbView@@QAEXXZ 0042e5e0 f   ThumbView.obj
 0001:0002d610       ?OnClearBaseSpr@CThumbView@@QAEXXZ 0042e610 f   ThumbView.obj
 0001:0002d620       ?MakeLower@?$CStringT@_WV?$StrTraitMFC@_WV?$ChTraitsCRT@_W@ATL@@@@@ATL@@QAEAAV12@XZ 0042e620 f i ThumbView.obj
 0001:0002d680       ?Right@?$CStringT@_WV?$StrTraitMFC@_WV?$ChTraitsCRT@_W@ATL@@@@@ATL@@QBE?AV12@H@Z 0042e680 f i ThumbView.obj
 0001:0002d700       ??8ATL@@YA_NABV?$CStringT@_WV?$StrTraitMFC@_WV?$ChTraitsCRT@_W@ATL@@@@@0@PBD@Z 0042e700 f i ThumbView.obj
 0001:0002d7a0       ??MATL@@YA_NABV?$CStringT@_WV?$StrTraitMFC@_WV?$ChTraitsCRT@_W@ATL@@@@@0@0@Z 0042e7a0 f i ThumbView.obj
 0001:0002d7f0       ??1?$list@V?$CStringT@_WV?$StrTraitMFC@_WV?$ChTraitsCRT@_W@ATL@@@@@ATL@@V?$allocator@V?$CStringT@_WV?$StrTraitMFC@_WV?$ChTraitsCRT@_W@ATL@@@@@ATL@@@std@@@std@@QAE@XZ 0042e7f0 f i ThumbView.obj
 0001:0002d810       ?clear@?$list@V?$CStringT@_WV?$StrTraitMFC@_WV?$ChTraitsCRT@_W@ATL@@@@@ATL@@V?$allocator@V?$CStringT@_WV?$StrTraitMFC@_WV?$ChTraitsCRT@_W@ATL@@@@@ATL@@@std@@@std@@QAEXXZ 0042e810 f i ThumbView.obj
 0001:0002d870       ??$sort@P6A_NABV?$CStringT@_WV?$StrTraitMFC@_WV?$ChTraitsCRT@_W@ATL@@@@@ATL@@0@Z@?$list@V?$CStringT@_WV?$StrTraitMFC@_WV?$ChTraitsCRT@_W@ATL@@@@@ATL@@V?$allocator@V?$CStringT@_WV?$StrTraitMFC@_WV?$ChTraitsCRT@_W@ATL@@@@@ATL@@@std@@@std@@QAEXP6A_NABV?$CStringT@_WV?$StrTraitMFC@_WV?$ChTraitsCRT@_W@ATL@@@@@ATL@@0@Z@Z 0042e870 f i ThumbView.obj
 0001:0002dae0       ??$swprintf_s@$0EA@@@YAHAAY0EA@_WPB_WZZ 0042eae0 f i ThumbView.obj
 0001:0002db00       ??$merge@P6A_NABV?$CStringT@_WV?$StrTraitMFC@_WV?$ChTraitsCRT@_W@ATL@@@@@ATL@@0@Z@?$list@V?$CStringT@_WV?$StrTraitMFC@_WV?$ChTraitsCRT@_W@ATL@@@@@ATL@@V?$allocator@V?$CStringT@_WV?$StrTraitMFC@_WV?$ChTraitsCRT@_W@ATL@@@@@ATL@@@std@@@std@@QAEXAAV01@P6A_NABV?$CStringT@_WV?$StrTraitMFC@_WV?$ChTraitsCRT@_W@ATL@@@@@ATL@@1@Z@Z 0042eb00 f i ThumbView.obj
 0001:0002db90       ??$_Buynode@V?$CStringT@_WV?$StrTraitMFC@_WV?$ChTraitsCRT@_W@ATL@@@@@ATL@@@?$_List_buy@V?$CStringT@_WV?$StrTraitMFC@_WV?$ChTraitsCRT@_W@ATL@@@@@ATL@@V?$allocator@V?$CStringT@_WV?$StrTraitMFC@_WV?$ChTraitsCRT@_W@ATL@@@@@ATL@@@std@@@std@@QAEPAU?$_List_node@V?$CStringT@_WV?$StrTraitMFC@_WV?$ChTraitsCRT@_W@ATL@@@@@ATL@@PAX@1@PAU21@0$$QAV?$CStringT@_WV?$StrTraitMFC@_WV?$ChTraitsCRT@_W@ATL@@@@@ATL@@@Z 0042eb90 f i ThumbView.obj
 0001:0002dc24       ??_ECThumbView@@OKM@AEPAXI@Z 0042ec24 f i ThumbView.obj
 0001:0002dc30       ?Compare@?$CStringT@_WV?$StrTraitMFC@_WV?$ChTraitsCRT@_W@ATL@@@@@ATL@@QBEHPB_W@Z 0042ec30 f i ThumbView.obj
 0001:0002dc80       ??0?$CSimpleStringT@_W$0A@@ATL@@QAE@PB_WHPAUIAtlStringMgr@1@@Z 0042ec80 f i ThumbView.obj
 0001:0002dd00       ?GetRuntimeClass@CWndActionList@@UBEPAUCRuntimeClass@@XZ 0042ed00 f   WndActionList.obj
 0001:0002dd10       ??_ECWndActionList@@UAEPAXI@Z 0042ed10 f i * CIL library *:* CIL module *
 0001:0002dd10       ??_GCWndActionList@@UAEPAXI@Z 0042ed10 f i WndActionList.obj
 0001:0002dd40       ??1CWndActionList@@UAE@XZ  0042ed40 f   WndActionList.obj
 0001:0002dd50       ?GetMessageMap@CWndActionList@@MBEPBUAFX_MSGMAP@@XZ 0042ed50 f   WndActionList.obj
 0001:0002dd60       ?OnCreate@CWndActionList@@IAEHPAUtagCREATESTRUCTW@@@Z 0042ed60 f   WndActionList.obj
 0001:0002dd90       ?OnSize@CWndThumbView@@QAEXIHH@Z 0042ed90 f   WndThumbView.obj
 0001:0002dd90       ?OnSize@CWndAdjustView@@QAEXIHH@Z 0042ed90 f   WndAdjustView.obj
 0001:0002dd90       ?OnSize@CWndConsole@@IAEXIHH@Z 0042ed90 f   WndConsole.obj
 0001:0002dd90       ?OnSize@CWndSpline@@QAEXIHH@Z 0042ed90 f   WndSpline.obj
 0001:0002dd90       ?OnSize@CWndActionList@@IAEXIHH@Z 0042ed90 f   WndActionList.obj
 0001:0002ddd0       ?GetAHSlideMode@CDockablePane@@UBEIXZ 0042edd0 f i WndActionList.obj
 0001:0002dde0       ?IsHideInAutoHideMode@CDockablePane@@UBEHXZ 0042ede0 f i WndActionList.obj
 0001:0002ddf0       ?DockToRecentPos@CDockablePane@@UAEHXZ 0042edf0 f i WndActionList.obj
 0001:0002de00       ?OnAfterDockFromMiniFrame@CDockablePane@@UAEXXZ 0042ee00 f i WndActionList.obj
 0001:0002de10       ?IsAutohideAllEnabled@CDockablePane@@UBEHXZ 0042ee10 f i WndActionList.obj
 0001:0002de20       ?GetTabArea@CDockablePane@@UBEXAAVCRect@@0@Z 0042ee20 f i WndActionList.obj
 0001:0002de40       ?CalcSize@CPane@@UAE?AVCSize@@H@Z 0042ee40 f i WndActionList.obj
 0001:0002de60       ?GetExclusiveRowMode@CPane@@UBEHXZ 0042ee60 f i WndActionList.obj
 0001:0002de70       ?SetExclusiveRowMode@CPane@@UAEXH@Z 0042ee70 f i WndActionList.obj
 0001:0002de80       ?DoesAllowSiblingBars@CPane@@UBEHXZ 0042ee80 f i WndActionList.obj
 0001:0002de90       ?GetFirstVisibleTabNum@CMFCBaseTabCtrl@@UBEHXZ 0042ee90 f i uafxcw:afxbasetabctrl.obj
 0001:0002de90       ?GetToolbarDisabledColor@CMFCVisualManager@@UBEKXZ 0042ee90 f i uafxcw:afxvisualmanager.obj
 0001:0002de90       ?GetDockingTabsBordersSize@CMFCVisualManager@@UAEHXZ 0042ee90 f i uafxcw:afxvisualmanager.obj
 0001:0002de90       ?GetResizeStep@CPane@@UBEHXZ 0042ee90 f i WndActionList.obj
 0001:0002de90       ?GetMDITabsBordersSize@CMFCVisualManager@@UAEHXZ 0042ee90 f i uafxcw:afxvisualmanager.obj
 0001:0002dea0       ?GetMinSize@CPane@@UBEXAAVCSize@@@Z 0042eea0 f i WndActionList.obj
 0001:0002dec0       ?IsDragMode@CPane@@UBEHXZ  0042eec0 f i WndActionList.obj
 0001:0002ded0       ?StretchPane@CBasePane@@UAE?AVCSize@@HH@Z 0042eed0 f i WndActionList.obj
 0001:0002def0       ?EnableDocking@CBasePane@@UAEXK@Z 0042eef0 f i WndActionList.obj
 0001:0002df00       ?SetControlBarStyle@CBasePane@@UAEXK@Z 0042ef00 f i WndActionList.obj
 0001:0002df00       ?SetOriginalColor@CMFCColorPickerCtrl@@QAEXK@Z 0042ef00 f i uafxcw:afxcolorpickerctrl.obj
 0001:0002df00       ?SetParentMenu@CMFCRibbonBaseElement@@UAEXPAVCMFCRibbonPanelMenuBar@@@Z 0042ef00 f i uafxcw:afxbaseribbonelement.obj
 0001:0002df10       ?SetPaneStyle@CBasePane@@UAEXK@Z 0042ef10 f i WndActionList.obj
 0001:0002df20       ?SetPaneAlignment@CBasePane@@UAEXK@Z 0042ef20 f i WndActionList.obj
 0001:0002df40       ?IsAutoHideMode@CDockablePane@@UBEHXZ 0042ef40 f i WndActionList.obj
 0001:0002df50       ?CanBeResized@CBasePane@@UBEHXZ 0042ef50 f i WndActionList.obj
 0001:0002df60       ?CanBeClosed@CBasePane@@UBEHXZ 0042ef60 f i WndActionList.obj
 0001:0002df70       ?GetControlBarStyle@CBasePane@@UBEKXZ 0042ef70 f i WndActionList.obj
 0001:0002df70       ?GetOccDialogInfo@CDialog@@MAEPAU_AFX_OCC_DIALOG_INFO@@XZ 0042ef70 f i uafxcw:dlgcore.obj
 0001:0002df80       ?GetPaneStyle@CBasePane@@UBEKXZ 0042ef80 f i WndActionList.obj
 0001:0002df90       ?GetPaneIcon@CBasePane@@UAEPAUHICON__@@H@Z 0042ef90 f i WndActionList.obj
 0001:0002dfb0       ?SetRestoredFromRegistry@CBasePane@@UAEXH@Z 0042efb0 f i WndActionList.obj
 0001:0002dfc0       ?IsRestoredFromRegistry@CBasePane@@UBEHXZ 0042efc0 f i WndActionList.obj
 0001:0002dfd0       ?GetRecentVisibleState@CBasePane@@UBEHXZ 0042efd0 f i WndActionList.obj
 0001:0002dfe0       ?GetParentDockSite@CBasePane@@UBEPAVCDockSite@@XZ 0042efe0 f i WndActionList.obj
 0001:0002dff0       ?GetEnabledAlignment@CBasePane@@UBEKXZ 0042eff0 f i WndActionList.obj
 0001:0002e000       ?CanBeDocked@CPane@@UBEHPAVCBasePane@@@Z 0042f000 f i WndActionList.obj
 0001:0002e030       ?CanAcceptPane@CDockablePane@@UBEHPBVCBasePane@@@Z 0042f030 f i WndActionList.obj
 0001:0002e080       ?AllowDestroyEmptyTabbedPane@CMFCOutlookBar@@UBEHXZ 0042f080 f i uafxcw:afxoutlookbar.obj
 0001:0002e080       ?DoesAllowDynInsertBefore@CBasePane@@UBEHXZ 0042f080 f i WndActionList.obj
 0001:0002e080       ??_9COleIPFrameWnd@@$BBMI@AE 0042f080 f i uafxcw:oleipfrm.obj
 0001:0002e090       ?IsFloating@CBasePane@@UBEHXZ 0042f090 f i WndActionList.obj
 0001:0002e0a0       ?IsHorizontal@CBasePane@@UBEHXZ 0042f0a0 f i WndActionList.obj
 0001:0002e0b0       ?GetRuntimeClass@CWndConsole@@UBEPAUCRuntimeClass@@XZ 0042f0b0 f   WndConsole.obj
 0001:0002e0c0       ??_GCWndConsole@@UAEPAXI@Z 0042f0c0 f i WndConsole.obj
 0001:0002e0c0       ??_ECWndConsole@@UAEPAXI@Z 0042f0c0 f i * CIL library *:* CIL module *
 0001:0002e0f0       ??1CWndConsole@@UAE@XZ     0042f0f0 f   WndConsole.obj
 0001:0002e100       ?GetMessageMap@CWndConsole@@MBEPBUAFX_MSGMAP@@XZ 0042f100 f   WndConsole.obj
 0001:0002e110       ?OnCreate@CWndConsole@@IAEHPAUtagCREATESTRUCTW@@@Z 0042f110 f   WndConsole.obj
 0001:0002e140       ?GetRuntimeClass@CWndTimeline@@UBEPAUCRuntimeClass@@XZ 0042f140 f   WndTimeline.obj
 0001:0002e150       ??0CWndTimeline@@QAE@XZ    0042f150 f   WndTimeline.obj
 0001:0002e200       ??_GCWndTimeline@@UAEPAXI@Z 0042f200 f i WndTimeline.obj
 0001:0002e200       ??_ECWndTimeline@@UAEPAXI@Z 0042f200 f i * CIL library *:* CIL module *
 0001:0002e290       ??1CWndTimeline@@UAE@XZ    0042f290 f   WndTimeline.obj
 0001:0002e310       ?GetMessageMap@CWndTimeline@@MBEPBUAFX_MSGMAP@@XZ 0042f310 f   WndTimeline.obj
 0001:0002e320       ?OnCreate@CWndTimeline@@IAEHPAUtagCREATESTRUCTW@@@Z 0042f320 f   WndTimeline.obj
 0001:0002e430       ?OnSize@CWndTimeline@@IAEXIHH@Z 0042f430 f   WndTimeline.obj
 0001:0002e480       ??_GXDlgBarTimeline@@UAEPAXI@Z 0042f480 f i WndTimeline.obj
 0001:0002e480       ??_EXDlgBarTimeline@@UAEPAXI@Z 0042f480 f i * CIL library *:* CIL module *
 0001:0002e4f0       ?GetMessageMap@XDlgBarTimeline@@MBEPBUAFX_MSGMAP@@XZ 0042f4f0 f   WndTimeline.obj
 0001:0002e500       ?DoDataExchange@XDlgBarTimeline@@MAEXPAVCDataExchange@@@Z 0042f500 f   WndTimeline.obj
 0001:0002e540       ?OnCreate@XDlgBarTimeline@@IAEHPAUtagCREATESTRUCTW@@@Z 0042f540 f   WndTimeline.obj
 0001:0002e560       ?OnInitialUpdate@XDlgBarTimeline@@UAEXXZ 0042f560 f   WndTimeline.obj
 0001:0002e5d0       ?OnCbnSelchangeCombo1@XDlgBarTimeline@@IAEXXZ 0042f5d0 f   WndTimeline.obj
 0001:0002e610       ?UpdateSlider@XDlgBarTimeline@@QAEXXZ 0042f610 f   WndTimeline.obj
 0001:0002e700       ?OnHScroll@XDlgBarTimeline@@IAEXIIPAVCScrollBar@@@Z 0042f700 f   WndTimeline.obj
 0001:0002e800       ?OnBnClickedRadioKeyMove@XDlgBarTimeline@@IAEXXZ 0042f800 f   WndTimeline.obj
 0001:0002e810       ?OnBnClickedRadioKeyScale@XDlgBarTimeline@@IAEXXZ 0042f810 f   WndTimeline.obj
 0001:0002e820       ??$swprintf_s@$0BA@@@YAHAAY0BA@_WPB_WZZ 0042f820 f i WndTimeline.obj
 0001:0002e840       ??_ECComboBox@@UAEPAXI@Z   0042f840 f i * CIL library *:* CIL module *
 0001:0002e840       ??_GCComboBox@@UAEPAXI@Z   0042f840 f i WndTimeline.obj
 0001:0002e870       ?Create@CDialogBar@@UAEHPAVCWnd@@III@Z 0042f870 f i WndTimeline.obj
 0001:0002e890       ??1CDialogEx@@UAE@XZ       0042f890 f i XDlgCompressConverter.obj
 0001:0002e900       ?Create@CDialog@@UAEHIPAVCWnd@@@Z 0042f900 f i XDlgCompressConverter.obj
 0001:0002e920       ??_GCBrush@@UAEPAXI@Z      0042f920 f i XDlgCompressConverter.obj
 0001:0002e920       ??_ECBrush@@UAEPAXI@Z      0042f920 f i * CIL library *:* CIL module *
 0001:0002e950       ??_ECGdiObject@@UAEPAXI@Z  0042f950 f i * CIL library *:* CIL module *
 0001:0002e950       ??_GCGdiObject@@UAEPAXI@Z  0042f950 f i XDlgCompressConverter.obj
 0001:0002e980       ??1CGdiObject@@UAE@XZ      0042f980 f i XDlgCompressConverter.obj
 0001:0002ea90       ??1CBrush@@UAE@XZ          0042fa90 f i XDlgCompressConverter.obj
 0001:0002eaa0       ??0XViewSpline@@IAE@XZ     0042faa0 f i XViewSpline.obj
 0001:0002eb70       ??_EXViewSpline@@MAEPAXI@Z 0042fb70 f i * CIL library *:* CIL module *
 0001:0002eb70       ??_GXViewSpline@@MAEPAXI@Z 0042fb70 f i XViewSpline.obj
 0001:0002eba0       ?CreateObject@XViewSpline@@SGPAVCObject@@XZ 0042fba0 f   XViewSpline.obj
 0001:0002ec10       ?GetRuntimeClass@XViewSpline@@UBEPAUCRuntimeClass@@XZ 0042fc10 f   XViewSpline.obj
 0001:0002ec20       ?GetMessageMap@XViewSpline@@MBEPBUAFX_MSGMAP@@XZ 0042fc20 f   XViewSpline.obj
 0001:0002ec30       ?CreateOne@XViewSpline@@SAPAV1@PAVCWnd@@@Z 0042fc30 f   XViewSpline.obj
 0001:0002ecf0       ?OnCreate@XViewSpline@@QAEHPAUtagCREATESTRUCTW@@@Z 0042fcf0 f   XViewSpline.obj
 0001:0002ed10       ?OnInitialUpdate@XViewSpline@@UAEXXZ 0042fd10 f   XViewSpline.obj
 0001:0002ef20       ?OnLButtonDown@XViewSpline@@QAEXIVCPoint@@@Z 0042ff20 f   XViewSpline.obj
 0001:0002f0a0       ?OnMButtonDown@XViewSpline@@QAEXIVCPoint@@@Z 004300a0 f   XViewSpline.obj
 0001:0002f1a0       ?OnLButtonUp@XViewSpline@@QAEXIVCPoint@@@Z 004301a0 f   XViewSpline.obj
 0001:0002f1d0       ?OnMouseMove@XViewSpline@@QAEXIVCPoint@@@Z 004301d0 f   XViewSpline.obj
 0001:0002f260       ?OnRButtonDown@XViewSpline@@QAEXIVCPoint@@@Z 00430260 f   XViewSpline.obj
 0001:0002f6c0       ?UpdateMatrix@XViewSpline@@QAEXH@Z 004306c0 f   XViewSpline.obj
 0001:0002f910       ?FrameMove@XViewSpline@@QAEXXZ 00430910 f   XViewSpline.obj
 0001:0002fb80       ?Draw@XViewSpline@@QAEXXZ  00430b80 f   XViewSpline.obj
 0001:000300d0       ?OnDraw@XViewSpline@@MAEXPAVCDC@@@Z 004310d0 f   XViewSpline.obj
 0001:000300e0       ??$DrawString@M@XBaseFontDat@@QAAMMMKPB_WZZ 004310e0 f i XViewSpline.obj
 0001:0003014e       ??_EXViewSpline@@OHM@AEPAXI@Z 0043114e f i XViewSpline.obj
 0001:00030160       ?AddObjLayer@XObjAct@@QAEPAVXBaseLayer@@XZ 00431160 f i MainFrm.obj
 0001:00030270       ?CreateObject@CMainFrame@@SGPAVCObject@@XZ 00431270 f   MainFrm.obj
 0001:000302e0       ?GetRuntimeClass@CMainFrame@@UBEPAUCRuntimeClass@@XZ 004312e0 f   MainFrm.obj
 0001:000302f0       ?GetMessageMap@CMainFrame@@MBEPBUAFX_MSGMAP@@XZ 004312f0 f   MainFrm.obj
 0001:00030300       ??0CMainFrame@@IAE@XZ      00431300 f   MainFrm.obj
 0001:000304f0       ??_GCMainFrame@@UAEPAXI@Z  004314f0 f i MainFrm.obj
 0001:000304f0       ??_ECMainFrame@@UAEPAXI@Z  004314f0 f i * CIL library *:* CIL module *
 0001:00030520       ??1CMainFrame@@UAE@XZ      00431520 f   MainFrm.obj
 0001:00030680       ?OnCreate@CMainFrame@@IAEHPAUtagCREATESTRUCTW@@@Z 00431680 f   MainFrm.obj
 0001:00030d80       ?FullScreenWndProc@@YGJPAUHWND__@@IIJ@Z 00431d80 f   MainFrm.obj
 0001:00030dd0       ?AdjustWindowForChange@CMainFrame@@UAEJXZ 00431dd0 f   MainFrm.obj
 0001:00030e40       ?PreCreateWindow@CMainFrame@@UAEHAAUtagCREATESTRUCTW@@@Z 00431e40 f   MainFrm.obj
 0001:00030eb0       ?OnViewCustomize@CMainFrame@@IAEXXZ 00431eb0 f   MainFrm.obj
 0001:00030f30       ?OnToolbarCreateNew@CMainFrame@@IAEJIJ@Z 00431f30 f   MainFrm.obj
 0001:00031010       ?OnApplicationLook@CMainFrame@@IAEXI@Z 00432010 f   MainFrm.obj
 0001:00031150       ?OnUpdateApplicationLook@CMainFrame@@IAEXPAVCCmdUI@@@Z 00432150 f   MainFrm.obj
 0001:00031170       ?LoadFrame@CMainFrame@@UAEHIKPAVCWnd@@PAUCCreateContext@@@Z 00432170 f   MainFrm.obj
 0001:00031280       ?OnCreateClient@CMainFrame@@MAEHPAUtagCREATESTRUCTW@@PAUCCreateContext@@@Z 00432280 f   MainFrm.obj
 0001:000312d0       ?OnSize@CMainFrame@@QAEXIHH@Z 004322d0 f   MainFrm.obj
 0001:00031310       ?OnPlay@CMainFrame@@QAEXXZ 00432310 f   MainFrm.obj
 0001:000313c0       ?OnUpdatePlay@CMainFrame@@QAEXPAVCCmdUI@@@Z 004323c0 f   MainFrm.obj
 0001:000313f0       ?PreTranslateMessage@CMainFrame@@UAEHPAUtagMSG@@@Z 004323f0 f   MainFrm.obj
 0001:00031510       ?OnSprOpen@CMainFrame@@QAEXXZ 00432510 f   MainFrm.obj
 0001:000315f0       ?OnSprSave@CMainFrame@@QAEXXZ 004325f0 f   MainFrm.obj
 0001:00031700       ?OnUpdateSprSave@CMainFrame@@QAEXPAVCCmdUI@@@Z 00432700 f   MainFrm.obj
 0001:00031730       ?OnSprSaveas@CMainFrame@@QAEXXZ 00432730 f   MainFrm.obj
 0001:000318d0       ?SetTitle@CMainFrame@@QAEXXZ 004328d0 f   MainFrm.obj
 0001:00031ab0       ?OnSprNew@CMainFrame@@QAEXXZ 00432ab0 f   MainFrm.obj
 0001:00031c70       ?OnMoveMode@CMainFrame@@QAEXXZ 00432c70 f   MainFrm.obj
 0001:00031c80       ?OnUpdateMoveMode@CMainFrame@@QAEXPAVCCmdUI@@@Z 00432c80 f   MainFrm.obj
 0001:00031cb0       ?OnRotateMode@CMainFrame@@QAEXXZ 00432cb0 f   MainFrm.obj
 0001:00031cc0       ?OnUpdateRotateMode@CMainFrame@@QAEXPAVCCmdUI@@@Z 00432cc0 f   MainFrm.obj
 0001:00031cf0       ?OnScaleMode@CMainFrame@@QAEXXZ 00432cf0 f   MainFrm.obj
 0001:00031d00       ?OnUpdateScaleMode@CMainFrame@@QAEXPAVCCmdUI@@@Z 00432d00 f   MainFrm.obj
 0001:00031d30       ?Create@CMainFrame@@QAEJPAUHWND__@@@Z 00432d30 f   MainFrm.obj
 0001:00032100       ?OnPrevFrame@CMainFrame@@QAEXXZ 00433100 f   MainFrm.obj
 0001:00032190       ?OnNextFrame@CMainFrame@@QAEXXZ 00433190 f   MainFrm.obj
 0001:00032220       ?OnUpdateNextFrame@CMainFrame@@QAEXPAVCCmdUI@@@Z 00433220 f   MainFrm.obj
 0001:00032220       ?OnUpdatePrevFrame@CMainFrame@@QAEXPAVCCmdUI@@@Z 00433220 f   MainFrm.obj
 0001:00032270       ?OnLockAxisx@CMainFrame@@QAEXXZ 00433270 f   MainFrm.obj
 0001:00032280       ?OnLockAxisy@CMainFrame@@QAEXXZ 00433280 f   MainFrm.obj
 0001:00032290       ?OnLockAxisxy@CMainFrame@@QAEXXZ 00433290 f   MainFrm.obj
 0001:000322a0       ?OnUpdateLockAxisx@CMainFrame@@QAEXPAVCCmdUI@@@Z 004332a0 f   MainFrm.obj
 0001:000322d0       ?OnUpdateLockAxisy@CMainFrame@@QAEXPAVCCmdUI@@@Z 004332d0 f   MainFrm.obj
 0001:00032300       ?OnUpdateLockAxisxy@CMainFrame@@QAEXPAVCCmdUI@@@Z 00433300 f   MainFrm.obj
 0001:00032330       ?OnOpenContImage@CMainFrame@@QAEXXZ 00433330 f   MainFrm.obj
 0001:00032450       ?OnEditUndo@CMainFrame@@QAEXXZ 00433450 f   MainFrm.obj
 0001:00032500       ?OnUpdateEditUndo@CMainFrame@@QAEXPAVCCmdUI@@@Z 00433500 f   MainFrm.obj
 0001:000326e0       ?OnEditRedo@CMainFrame@@QAEXXZ 004336e0 f   MainFrm.obj
 0001:00032790       ?OnUpdateEditRedo@CMainFrame@@QAEXPAVCCmdUI@@@Z 00433790 f   MainFrm.obj
 0001:00032970       ?OnOpenAlignedImage@CMainFrame@@QAEXXZ 00433970 f   MainFrm.obj
 0001:00032a90       ?OnUpdateOpenAlignedImage@CMainFrame@@QAEXPAVCCmdUI@@@Z 00433a90 f   MainFrm.obj
 0001:00032ab0       ?OnScaleView1@CMainFrame@@QAEXXZ 00433ab0 f   MainFrm.obj
 0001:00032ad0       ?OnScaleView2@CMainFrame@@QAEXXZ 00433ad0 f   MainFrm.obj
 0001:00032af0       ?OnScaleView3@CMainFrame@@QAEXXZ 00433af0 f   MainFrm.obj
 0001:00032b10       ?OnScaleView4@CMainFrame@@QAEXXZ 00433b10 f   MainFrm.obj
 0001:00032b30       ?OnFrameskip@CMainFrame@@QAEXXZ 00433b30 f   MainFrm.obj
 0001:00032b50       ?OnUpdateFrameskip@CMainFrame@@QAEXPAVCCmdUI@@@Z 00433b50 f   MainFrm.obj
 0001:00032b70       ?OnConvert@CMainFrame@@QAEXXZ 00433b70 f   MainFrm.obj
 0001:00032be0       ?OnAddLayerImage@CMainFrame@@QAEXXZ 00433be0 f   MainFrm.obj
 0001:00032c10       ?OnAddLayerObject@CMainFrame@@QAEXXZ 00433c10 f   MainFrm.obj
 0001:00032c40       ?top@?$stack@PAUUNDO_PACK@@V?$deque@PAUUNDO_PACK@@V?$allocator@PAUUNDO_PACK@@@std@@@std@@@std@@QAEAAPAUUNDO_PACK@@XZ 00433c40 f i MainFrm.obj
 0001:00032c90       ?end@?$deque@PAUUNDO_PACK@@V?$allocator@PAUUNDO_PACK@@@std@@@std@@QAE?AV?$_Deque_iterator@V?$_Deque_val@U?$_Deque_simple_types@PAUUNDO_PACK@@@std@@@std@@@2@XZ 00433c90 f i MainFrm.obj
 0001:00032c90       ?end@?$deque@PAVXBaseUndo@@V?$allocator@PAVXBaseUndo@@@std@@@std@@QAE?AV?$_Deque_iterator@V?$_Deque_val@U?$_Deque_simple_types@PAVXBaseUndo@@@std@@@std@@@2@XZ 00433c90 f i MainFrm.obj
 0001:00032cb0       ??G?$_Deque_iterator@V?$_Deque_val@U?$_Deque_simple_types@PAVXBaseUndo@@@std@@@std@@@std@@QBE?AV01@H@Z 00433cb0 f i MainFrm.obj
 0001:00032cb0       ??G?$_Deque_iterator@V?$_Deque_val@U?$_Deque_simple_types@PAUUNDO_PACK@@@std@@@std@@@std@@QBE?AV01@H@Z 00433cb0 f i MainFrm.obj
 0001:00032cf0       ??0?$CList@II@@QAE@H@Z     00433cf0 f i MainFrm.obj
 0001:00032d28       ??_ECMainFrame@@WEBM@AEPAXI@Z 00433d28 f i MainFrm.obj
 0001:00032d40       ?OnShowCustomizePane@CFrameWndEx@@UAEHPAVCMFCPopupMenu@@I@Z 00433d40 f i MainFrm.obj
 0001:00032d60       ?GetTrackingID@CFrameWnd@@UAEIXZ 00433d60 f i MainFrm.obj
 0001:00032d60       ?GetCount@CMFCToolBarComboBoxButton@@QBEHXZ 00433d60 f i uafxcw:afxtoolbarcomboboxbutton.obj
 0001:00032d60       ?IsHighlighted@CMFCRibbonBaseElement@@UBEHXZ 00433d60 f i uafxcw:afxribbonbar.obj
 0001:00032d60       ?GetToolbarHighlightColor@CMFCVisualManagerOfficeXP@@MAEKXZ 00433d60 f i uafxcw:afxvisualmanagerofficexp.obj
 0001:00032d70       ??0?$CStringT@_WV?$StrTraitMFC@_WV?$ChTraitsCRT@_W@ATL@@@@@ATL@@QAE@PBD@Z 00433d70 f i MainFrm.obj
 0001:00032e10       ??1CWaitCursor@@QAE@XZ     00433e10 f i MainFrm.obj
 0001:00032f20       ??_G?$CList@II@@UAEPAXI@Z  00433f20 f i MainFrm.obj
 0001:00032f20       ??_E?$CList@II@@UAEPAXI@Z  00433f20 f i * CIL library *:* CIL module *
 0001:00032f70       ?EnsureRead@CArchive@@QAEXPAXI@Z 00433f70 f i MainFrm.obj
 0001:00032fa0       ??$SerializeElements@I@@YGXAAVCArchive@@PAIH@Z 00433fa0 f i MainFrm.obj
 0001:00033050       ?NewNode@?$CList@II@@IAEPAUCNode@1@PAU21@0@Z 00434050 f i MainFrm.obj
 0001:000330c0       ?AddTail@?$CList@II@@QAEPAU__POSITION@@I@Z 004340c0 f i MainFrm.obj
 0001:00033100       ?Serialize@?$CList@II@@UAEXAAVCArchive@@@Z 00434100 f i MainFrm.obj
 0001:00033310       ?RemoveAll@?$CList@II@@QAEXXZ 00434310 f i MainFrm.obj
 0001:00033350       ??1?$CList@II@@UAE@XZ      00434350 f i MainFrm.obj
 0001:00033390       ??4?$CSimpleStringT@_W$0A@@ATL@@QAEAAV01@ABV01@@Z 00434390 f i MainFrm.obj
 0001:00033400       ??0XGraphicsD3DTool@@QAE@HHW4xPixelFormat@@@Z 00434400 f i SE.obj
 0001:000334b0       ??_EXGraphicsD3DTool@@UAEPAXI@Z 004344b0 f i * CIL library *:* CIL module *
 0001:000334b0       ??_GXGraphicsD3DTool@@UAEPAXI@Z 004344b0 f i SE.obj
 0001:00033540       ?GetMessageMap@CSEApp@@MBEPBUAFX_MSGMAP@@XZ 00434540 f   SE.obj
 0001:00033550       ??_ECSEApp@@UAEPAXI@Z      00434550 f i * CIL library *:* CIL module *
 0001:00033550       ??_GCSEApp@@UAEPAXI@Z      00434550 f i SE.obj
 0001:000335f0       ?TheCrashHandlerFunction@@YGJPAU_EXCEPTION_POINTERS@@@Z 004345f0 f   SE.obj
 0001:00033800       ?InitInstance@CSEApp@@UAEHXZ 00434800 f   SE.obj
 0001:00033c30       ??_ECAboutDlg@@UAEPAXI@Z   00434c30 f i * CIL library *:* CIL module *
 0001:00033c30       ??_GCAboutDlg@@UAEPAXI@Z   00434c30 f i SE.obj
 0001:00033c60       ??1CAboutDlg@@UAE@XZ       00434c60 f i SE.obj
 0001:00033c70       ?GetMessageMap@CDlgSoundProp@@MBEPBUAFX_MSGMAP@@XZ 00434c70 f   DlgSoundProp.obj
 0001:00033c70       ?GetMessageMap@CDlgDummyProp@@MBEPBUAFX_MSGMAP@@XZ 00434c70 f   DlgDummyProp.obj
 0001:00033c70       ?GetMessageMap@CAboutDlg@@MBEPBUAFX_MSGMAP@@XZ 00434c70 f   SE.obj
 0001:00033c70       ?GetMessageMap@CDlgEditAni@@MBEPBUAFX_MSGMAP@@XZ 00434c70 f   DlgEditAni.obj
 0001:00033c80       ?OnAppAbout@CSEApp@@QAEXXZ 00434c80 f   SE.obj
 0001:00033d00       ?PreLoadState@CSEApp@@UAEXXZ 00434d00 f   SE.obj
 0001:00033db0       ?OnIdle@CSEApp@@MAEHJ@Z    00434db0 f   SE.obj
 0001:00033df0       ?Run@CSEApp@@MAEHXZ        00434df0 f   SE.obj
 0001:00033e00       ?OnShareViolation@CFileDialog@@MAEIPB_W@Z 00434e00 f i uafxcw:dlgfile.obj
 0001:00033e00       ?GetConnectionHook@CCmdTarget@@MAEPAUIConnectionPoint@@ABU_GUID@@@Z 00434e00 f i uafxcw:cmdtarg.obj
 0001:00033e00       ?OnMenuKey@CMFCRibbonBaseElement@@UAEHI@Z 00434e00 f i uafxcw:afxribbonbar.obj
 0001:00033e00       ?GetPreferedMenuLocation@CMFCRibbonPanel@@UAEHAAVCRect@@@Z 00434e00 f i uafxcw:afxribbonpanel.obj
 0001:00033e00       ?Release@XEventSink@COleControlSite@@UAGKXZ 00434e00 f i uafxcw:occsite.obj
 0001:00033e00       ?CreateSite@COccManager@@UAEPAVCOleControlSite@@PAVCOleControlContainer@@@Z 00434e00 f i uafxcw:occmgr.obj
 0001:00033e00       ?GetInterfaceHook@CCmdTarget@@UAEPAUIUnknown@@PBX@Z 00434e00 f i uafxcw:cmdtarg.obj
 0001:00033e00       ?GetExtraConnectionPoints@CCmdTarget@@MAEHPAVCPtrArray@@@Z 00434e00 f i uafxcw:cmdtarg.obj
 0001:00033e00       ?OnCustomizeMenu@CMFCToolBarButton@@UAEHPAVCMenu@@@Z 00434e00 f i uafxcw:afxmenubar.obj
 0001:00033e00       ?IsDefaultWinXPPopupButton@CMFCVisualManager@@UBEHPAVCMFCDesktopAlertWndButton@@@Z 00434e00 f i uafxcw:afxvisualmanager.obj
 0001:00033e00       ?GetTabHorzMargin@CMFCVisualManager@@UAEHPBVCMFCBaseTabCtrl@@@Z 00434e00 f i uafxcw:afxvisualmanager.obj
 0001:00033e00       ?Release@XPropertyNotifySink@COleControlSite@@UAGKXZ 00434e00 f i uafxcw:occsite.obj
 0001:00033e00       ?Release@XRowsetNotify@COleControlSite@@UAGKXZ 00434e00 f i uafxcw:occsite.obj
 0001:00033e00       ?GetDispatchIID@CCmdTarget@@UAEHPAU_GUID@@@Z 00434e00 f i uafxcw:cmdtarg.obj
 0001:00033e00       ?TranslateChar@CMFCPopupMenuBar@@MAEHI@Z 00434e00 f i uafxcw:afxcolorbar.obj
 0001:00033e00       ?EnsureVisible@CMFCBaseTabCtrl@@UAEHH@Z 00434e00 f i uafxcw:afxbasetabctrl.obj
 0001:00033e00       ?OnEraseBkgnd@CDummyDockablePane@@IAEHPAVCDC@@@Z 00434e00 f i uafxcw:afxdragframeimpl.obj
 0001:00033e00       ?CanInPlaceActivate@XOleIPSite@COleControlSite@@UAGJXZ 00434e00 f i uafxcw:occsite.obj
 0001:00033e00       ?NotifyCommand@CMFCToolBarButton@@UAEHH@Z 00434e00 f i uafxcw:afxtoolbarmenubutton.obj
 0001:00033e00       ?OnProcessKey@CMFCRibbonBaseElement@@MAEHI@Z 00434e00 f i uafxcw:afxribbonbar.obj
 0001:00033e00       ?OnCommandControlClick@CTaskDialog@@MAEJH@Z 00434e00 f i uafxcw:afxtaskdialog.obj
 0001:00033e00       ?OnKey@CMFCToolBar@@MAEHI@Z 00434e00 f i uafxcw:afxtoolbar.obj
 0001:00033e00       ?CanBeDocked@CBasePane@@UBEHPAV1@@Z 00434e00 f i uafxcw:afxbasepane.obj
 0001:00033e00       ?OnTimer@CTaskDialog@@MAEJJ@Z 00434e00 f i uafxcw:afxtaskdialog.obj
 0001:00033e00       ?IsAutoRepeatMode@CMFCRibbonBaseElement@@UBEHAAH@Z 00434e00 f i uafxcw:afxribbonbar.obj
 0001:00033e00       ?CompareItem@CListBox@@UAEHPAUtagCOMPAREITEMSTRUCT@@@Z 00434e00 f i uafxcw:winctrl1.obj
 0001:00033e00       ?IsUseSprite@XBaseKey@@UAEHPAVXSprite@@@Z 00434e00 f i Key.obj
 0001:00033e00       ?OnSendCommand@CMFCToolBar@@MAEHPBVCMFCToolBarButton@@@Z 00434e00 f i uafxcw:afxtoolbar.obj
 0001:00033e00       ?Release@CArchiveStream@@UAGKXZ 00434e00 f i uafxcw:arcstrm.obj
 0001:00033e00       ?CanAcceptPane@CBasePane@@UBEHPBV1@@Z 00434e00 f i uafxcw:afxbasepane.obj
 0001:00033e00       ?OnVerificationCheckboxClick@CTaskDialog@@MAEJH@Z 00434e00 f i uafxcw:afxtaskdialog.obj
 0001:00033e00       ?Release@XNotifyDBEvents@COleControlSite@@UAGKXZ 00434e00 f i uafxcw:occsite.obj
 0001:00033e00       ?CompareItem@CComboBox@@UAEHPAUtagCOMPAREITEMSTRUCT@@@Z 00434e00 f i uafxcw:winctrl1.obj
 0001:00033e00       ?OnContextHelp@CMFCToolBarButton@@UAEHPAVCWnd@@@Z 00434e00 f i uafxcw:afxmenubar.obj
 0001:00033e00       ?OnGetCustomToolTipText@CMFCToolBarButton@@UAEHAAV?$CStringT@_WV?$StrTraitMFC@_WV?$ChTraitsCRT@_W@ATL@@@@@ATL@@@Z 00434e00 f i uafxcw:afxmenubar.obj
 0001:00033e00       ?OnInPlaceActivate@XOleIPSite@COleControlSite@@UAGJXZ 00434e00 f i uafxcw:occsite.obj
 0001:00033e00       ?SetOccDialogInfo@CWnd@@MAEHPAU_AFX_OCC_DIALOG_INFO@@@Z 00434e00 f i uafxcw:wincore.obj
 0001:00033e00       ?OnWorkspaceIdle@CWinAppEx@@UAEHPAVCWnd@@@Z 00434e00 f i SE.obj
 0001:00033e00       ?ResizeByPaneDivider@CDockingPanesRow@@UAEHH@Z 00434e00 f i uafxcw:afxdockingpanesrow.obj
 0001:00033e00       ?OnEraseMDIClientBackground@CMDIFrameWndEx@@UAEHPAVCDC@@@Z 00434e00 f i uafxcw:afxmdiframewndex.obj
 0001:00033e00       ?OnSetAccData@CMFCBaseAccessibleObject@@UAEHJ@Z 00434e00 f i uafxcw:afxbaseribbonelement.obj
 0001:00033e00       ?OnRadioButtonClick@CTaskDialog@@MAEJH@Z 00434e00 f i uafxcw:afxtaskdialog.obj
 0001:00033e00       ?IsToolbarRoundShape@CMFCVisualManager@@UAEHPAVCMFCToolBar@@@Z 00434e00 f i uafxcw:afxvisualmanager.obj
 0001:00033e00       ?DiscardUndoState@XOleIPSite@COleControlSite@@UAGJXZ 00434e00 f i uafxcw:occsite.obj
 0001:00033e00       ?GetScrollBarCtrl@CWnd@@UBEPAVCScrollBar@@H@Z 00434e00 f i uafxcw:wincore.obj
 0001:00033e00       ?OnExpandButtonClick@CTaskDialog@@MAEJH@Z 00434e00 f i uafxcw:afxtaskdialog.obj
 0001:00033e00       ?IsSelected@CView@@UBEHPBVCObject@@@Z 00434e00 f i uafxcw:viewcore.obj
 0001:00033e10       ?GetApplicationRecoveryPingInterval@CWinApp@@UAEKXZ 00434e10 f i SE.obj
 0001:00033e20       ?RestoreAutosavedFilesAtRestart@CWinApp@@UBEHXZ 00434e20 f i SE.obj
 0001:00033e30       ?ReopenPreviousFilesAtRestart@CWinApp@@UBEHXZ 00434e30 f i SE.obj
 0001:00033e40       ?SupportsAutosaveAtInterval@CWinApp@@UBEHXZ 00434e40 f i SE.obj
 0001:00033e50       ?SupportsAutosaveAtRestart@CWinApp@@UBEHXZ 00434e50 f i SE.obj
 0001:00033e60       ?SupportsApplicationRecovery@CWinApp@@UBEHXZ 00434e60 f i SE.obj
 0001:00033e70       ?SupportsRestartManager@CWinApp@@UBEHXZ 00434e70 f i SE.obj
 0001:00033e80       ??0CMFCToolTipInfo@@QAE@XZ 00434e80 f i SE.obj
 0001:00033ee0       ?CreateObject@CSEDoc@@SGPAVCObject@@XZ 00434ee0 f   SEDoc.obj
 0001:00033f60       ?GetRuntimeClass@CSEDoc@@UBEPAUCRuntimeClass@@XZ 00434f60 f   SEDoc.obj
 0001:00033f70       ?GetMessageMap@CSEDoc@@MBEPBUAFX_MSGMAP@@XZ 00434f70 f   SEDoc.obj
 0001:00033f80       ??_GCSEDoc@@UAEPAXI@Z      00434f80 f i SEDoc.obj
 0001:00033f80       ??_ECSEDoc@@UAEPAXI@Z      00434f80 f i * CIL library *:* CIL module *
 0001:00033fb0       ?OnNewDocument@CSEDoc@@UAEHXZ 00434fb0 f   SEDoc.obj
 0001:00033fc0       ?SetModifiedFlag@CDocument@@UAEXH@Z 00434fc0 f i SEDoc.obj
 0001:00033fd0       ?IsExtraSize@CMFCToolBarButton@@UBEHXZ 00434fd0 f i uafxcw:afxmenubar.obj
 0001:00033fd0       ?IsModified@CDocument@@UAEHXZ 00434fd0 f i SEDoc.obj
 0001:00033fe0       ??_ECDocumentAdapter@CDocument@@UAEPAXI@Z 00434fe0 f i * CIL library *:* CIL module *
 0001:00033fe0       ??_GCDocumentAdapter@CDocument@@UAEPAXI@Z 00434fe0 f i SEDoc.obj
 0001:00034060       ??_EIDocument@ATL@@UAEPAXI@Z 00435060 f i * CIL library *:* CIL module *
 0001:00034060       ??_GIDocument@ATL@@UAEPAXI@Z 00435060 f i SEDoc.obj
 0001:00034090       ??1IDocument@ATL@@UAE@XZ   00435090 f i SEDoc.obj
 0001:000340a0       ?Release@IDocument@ATL@@UAEJXZ 004350a0 f i SEDoc.obj
 0001:000340c0       ?LoadFromStream@CDocumentAdapter@CDocument@@UAEJPAUIStream@@K@Z 004350c0 f i SEDoc.obj
 0001:00034110       ?InitializeSearchContent@CDocumentAdapter@CDocument@@UAEXXZ 00435110 f i SEDoc.obj
 0001:00034120       ?BeginReadChunks@CDocumentAdapter@CDocument@@UAEXXZ 00435120 f i SEDoc.obj
 0001:00034130       ?GetThumbnail@CDocumentAdapter@CDocument@@UAEHIPAPAUHBITMAP__@@PAW4WTS_ALPHATYPE@@@Z 00435130 f i SEDoc.obj
 0001:00034150       ?ClearChunkList@CDocumentAdapter@CDocument@@UAEXXZ 00435150 f i SEDoc.obj
 0001:00034160       ?SetChunkValue@CDocumentAdapter@CDocument@@UAEHPAUIFilterChunkValue@ATL@@@Z 00435160 f i SEDoc.obj
 0001:00034180       ?ReadNextChunkValue@CDocumentAdapter@CDocument@@UAEHPAPAUIFilterChunkValue@ATL@@@Z 00435180 f i SEDoc.obj
 0001:000341a0       ?RemoveChunk@CDocumentAdapter@CDocument@@UAEXABU_GUID@@K@Z 004351a0 f i SEDoc.obj
 0001:000341c0       ?FindChunk@CDocumentAdapter@CDocument@@UAEPAU__POSITION@@ABU_GUID@@K@Z 004351c0 f i SEDoc.obj
 0001:000341e0       ?IsVisible@CMFCAutoHideButton@@UBEHXZ 004351e0 f i uafxcw:afxautohidebutton.obj
 0001:000341e0       ?IsVisible@CDockingPanesRow@@UBEHXZ 004351e0 f i uafxcw:afxdockingpanesrow.obj
 0001:000341e0       ?GetNilString@CFixedStringMgr@ATL@@UAEPAUCStringData@2@XZ 004351e0 f i uafxcw:olevar.obj
 0001:000341e0       ?GetTailPosition@CPtrList@@QBEPAU__POSITION@@XZ 004351e0 f i uafxcw:winocc.obj
 0001:000341e0       ?GetContainer@CDocumentAdapter@CDocument@@UBEPAXXZ 004351e0 f i SEDoc.obj
 0001:000341e0       ?GetFirstDocTemplatePosition@CDocManager@@UBEPAU__POSITION@@XZ 004351e0 f i uafxcw:docmgr.obj
 0001:000341f0       ?AddRef@IDocument@ATL@@UAEJXZ 004351f0 f i SEDoc.obj
 0001:00034200       ?GetAdapter@CDocument@@UAEPAUIDocument@ATL@@XZ 00435200 f i SEDoc.obj
 0001:000342d0       ??1XDlgBaseKey@@UAE@XZ     004352d0 f i DlgDrawProperty.obj
 0001:00034300       ??_GXDlgBaseKey@@UAEPAXI@Z 00435300 f i DlgDrawProperty.obj
 0001:00034300       ??_EXDlgBaseKey@@UAEPAXI@Z 00435300 f i * CIL library *:* CIL module *
 0001:00034350       ?GetRuntimeClass@CDlgDrawProperty@@UBEPAUCRuntimeClass@@XZ 00435350 f   DlgDrawProperty.obj
 0001:00034360       ??0CDlgDrawProperty@@QAE@PAVCWnd@@@Z 00435360 f   DlgDrawProperty.obj
 0001:00034460       ??_ECDlgDrawProperty@@UAEPAXI@Z 00435460 f i * CIL library *:* CIL module *
 0001:00034460       ??_GCDlgDrawProperty@@UAEPAXI@Z 00435460 f i DlgDrawProperty.obj
 0001:00034490       ??1CDlgDrawProperty@@UAE@XZ 00435490 f   DlgDrawProperty.obj
 0001:00034530       ?DoDataExchange@CDlgDrawProperty@@MAEXPAVCDataExchange@@@Z 00435530 f   DlgDrawProperty.obj
 0001:000345a0       ?GetMessageMap@CDlgDrawProperty@@MBEPBUAFX_MSGMAP@@XZ 004355a0 f   DlgDrawProperty.obj
 0001:000345b0       ?OnInitDialog@CDlgDrawProperty@@UAEHXZ 004355b0 f   DlgDrawProperty.obj
 0001:00034730       ?OnOK@CDlgDrawProperty@@MAEXXZ 00435730 f   DlgDrawProperty.obj
 0001:00034780       ?OnHScroll@CDlgDrawProperty@@QAEXIIPAVCScrollBar@@@Z 00435780 f   DlgDrawProperty.obj
 0001:00034880       ?OnBnClickedEditInterpolation@CDlgDrawProperty@@QAEXXZ 00435880 f   DlgDrawProperty.obj
 0001:0003494a       ??_ECDlgDrawProperty@@WJI@AEPAXI@Z 0043594a f i DlgDrawProperty.obj
 0001:00034960       ?GetRuntimeClass@CDlgDummyProp@@UBEPAUCRuntimeClass@@XZ 00435960 f   DlgDummyProp.obj
 0001:00034970       ??_GCDlgDummyProp@@UAEPAXI@Z 00435970 f i DlgDummyProp.obj
 0001:00034970       ??_ECDlgDummyProp@@UAEPAXI@Z 00435970 f i * CIL library *:* CIL module *
 0001:000349a0       ??1CDlgDummyProp@@UAE@XZ   004359a0 f   DlgDummyProp.obj
 0001:000349b0       ?DoDataExchange@CDlgDummyProp@@MAEXPAVCDataExchange@@@Z 004359b0 f   DlgDummyProp.obj
 0001:000349f0       ?GetRuntimeClass@CDlgEditAni@@UBEPAUCRuntimeClass@@XZ 004359f0 f   DlgEditAni.obj
 0001:00034a00       ??_ECDlgEditAni@@UAEPAXI@Z 00435a00 f i * CIL library *:* CIL module *
 0001:00034a00       ??_GCDlgEditAni@@UAEPAXI@Z 00435a00 f i DlgEditAni.obj
 0001:00034a30       ??1CDlgEditAni@@UAE@XZ     00435a30 f   DlgEditAni.obj
 0001:00034a40       ?DoDataExchange@CDlgEditAni@@MAEXPAVCDataExchange@@@Z 00435a40 f   DlgEditAni.obj
 0001:00034aa0       ?OnInitDialog@CDlgEditAni@@UAEHXZ 00435aa0 f   DlgEditAni.obj
 0001:00034ab0       ?OnOK@CDlgPosProp@@MAEXXZ  00435ab0 f   DlgPosProp.obj
 0001:00034ab0       ?OnOK@CDlgEditAni@@MAEXXZ  00435ab0 f   DlgEditAni.obj
 0001:00034ac0       ?GetRuntimeClass@CDlgEventProperty@@UBEPAUCRuntimeClass@@XZ 00435ac0 f   DlgEventProperty.obj
 0001:00034ad0       ??0CDlgEventProperty@@QAE@PAVCWnd@@@Z 00435ad0 f   DlgEventProperty.obj
 0001:00034c00       ??_ECDlgEventProperty@@UAEPAXI@Z 00435c00 f i * CIL library *:* CIL module *
 0001:00034c00       ??_GCDlgEventProperty@@UAEPAXI@Z 00435c00 f i DlgEventProperty.obj
 0001:00034c30       ??1CDlgEventProperty@@UAE@XZ 00435c30 f   DlgEventProperty.obj
 0001:00034d00       ?DoDataExchange@CDlgEventProperty@@MAEXPAVCDataExchange@@@Z 00435d00 f   DlgEventProperty.obj
 0001:00034dc0       ?GetMessageMap@CDlgEventProperty@@MBEPBUAFX_MSGMAP@@XZ 00435dc0 f   DlgEventProperty.obj
 0001:00034dc0       ?GetMessageMap@CDlgObjProperty@@MBEPBUAFX_MSGMAP@@XZ 00435dc0 f   DlgObjProperty.obj
 0001:00034dd0       ?OnInitDialog@CDlgEventProperty@@UAEHXZ 00435dd0 f   DlgEventProperty.obj
 0001:00034eb0       ?OnOK@CDlgEventProperty@@MAEXXZ 00435eb0 f   DlgEventProperty.obj
 0001:00034f00       ?OnBnClickedLuaDialog@CDlgEventProperty@@QAEXXZ 00435f00 f   DlgEventProperty.obj
 0001:00034f00       ?OnBnClickedLuaDialog@CDlgObjProperty@@QAEXXZ 00435f00 f   DlgObjProperty.obj
 0001:0003504f       ??_ECDlgEventProperty@@WJI@AEPAXI@Z 0043604f f i DlgEventProperty.obj
 0001:00035060       ?GetRuntimeClass@CDlgObjProperty@@UBEPAUCRuntimeClass@@XZ 00436060 f   DlgObjProperty.obj
 0001:00035070       ??0CDlgObjProperty@@QAE@PAVCWnd@@@Z 00436070 f   DlgObjProperty.obj
 0001:00035140       ??_ECDlgObjProperty@@UAEPAXI@Z 00436140 f i * CIL library *:* CIL module *
 0001:00035140       ??_GCDlgObjProperty@@UAEPAXI@Z 00436140 f i DlgObjProperty.obj
 0001:00035170       ??1CDlgObjProperty@@UAE@XZ 00436170 f   DlgObjProperty.obj
 0001:00035210       ?DoDataExchange@CDlgObjProperty@@MAEXPAVCDataExchange@@@Z 00436210 f   DlgObjProperty.obj
 0001:00035250       ?OnInitDialog@CDlgObjProperty@@UAEHXZ 00436250 f   DlgObjProperty.obj
 0001:000352b0       ?OnOK@CDlgObjProperty@@MAEXXZ 004362b0 f   DlgObjProperty.obj
 0001:000352dd       ??_ECDlgObjProperty@@WJI@AEPAXI@Z 004362dd f i DlgObjProperty.obj
 0001:000352f0       ?GetRuntimeClass@CDlgPosProp@@UBEPAUCRuntimeClass@@XZ 004362f0 f   DlgPosProp.obj
 0001:00035300       ??0CDlgPosProp@@QAE@PAVCWnd@@@Z 00436300 f   DlgPosProp.obj
 0001:00035380       ??_ECDlgPosProp@@UAEPAXI@Z 00436380 f i * CIL library *:* CIL module *
 0001:00035380       ??_GCDlgPosProp@@UAEPAXI@Z 00436380 f i DlgPosProp.obj
 0001:00035420       ??1CDlgPosProp@@UAE@XZ     00436420 f   DlgPosProp.obj
 0001:00035470       ?DoDataExchange@CDlgPosProp@@MAEXPAVCDataExchange@@@Z 00436470 f   DlgPosProp.obj
 0001:000354c0       ?GetMessageMap@CDlgPosProp@@MBEPBUAFX_MSGMAP@@XZ 004364c0 f   DlgPosProp.obj
 0001:000354d0       ?OnBnClickedButton1@CDlgPosProp@@QAEXXZ 004364d0 f   DlgPosProp.obj
 0001:000354d0       ?OnBnClickedEditInterpolation@CDlgScaleProp@@QAEXXZ 004364d0 f   DlgScaleProp.obj
 0001:0003559a       ??_ECDlgPosProp@@WJI@AEPAXI@Z 0043659a f i DlgPosProp.obj
 0001:000355b0       ?GetRuntimeClass@CDlgRenameAction@@UBEPAUCRuntimeClass@@XZ 004365b0 f   DlgRenameAction.obj
 0001:000355c0       ??_GCDlgRenameAction@@UAEPAXI@Z 004365c0 f i DlgRenameAction.obj
 0001:000355c0       ??_ECDlgRenameAction@@UAEPAXI@Z 004365c0 f i * CIL library *:* CIL module *
 0001:00035670       ??1CDlgRenameAction@@UAE@XZ 00436670 f   DlgRenameAction.obj
 0001:000356c0       ?DoDataExchange@CDlgRenameAction@@MAEXPAVCDataExchange@@@Z 004366c0 f   DlgRenameAction.obj
 0001:00035700       ?GetMessageMap@CDlgRenameAction@@MBEPBUAFX_MSGMAP@@XZ 00436700 f   DlgRenameAction.obj
 0001:00035710       ?OnInitDialog@CDlgRenameAction@@UAEHXZ 00436710 f   DlgRenameAction.obj
 0001:00035950       ?OnOK@CDlgRenameAction@@MAEXXZ 00436950 f   DlgRenameAction.obj
 0001:000359b0       ?OnCbnSelchangeCombo1@CDlgRenameAction@@QAEXXZ 004369b0 f   DlgRenameAction.obj
 0001:00035a70       ?GetRuntimeClass@CDlgRotProp@@UBEPAUCRuntimeClass@@XZ 00436a70 f   DlgRotProp.obj
 0001:00035a80       ??0CDlgRotProp@@QAE@PAVCWnd@@@Z 00436a80 f   DlgRotProp.obj
 0001:00035b00       ??_ECDlgRotProp@@UAEPAXI@Z 00436b00 f i * CIL library *:* CIL module *
 0001:00035b00       ??_GCDlgRotProp@@UAEPAXI@Z 00436b00 f i DlgRotProp.obj
 0001:00035ba0       ??1CDlgRotProp@@UAE@XZ     00436ba0 f   DlgRotProp.obj
 0001:00035bf0       ?DoDataExchange@CDlgRotProp@@MAEXPAVCDataExchange@@@Z 00436bf0 f   DlgRotProp.obj
 0001:00035c30       ?GetMessageMap@CDlgRotProp@@MBEPBUAFX_MSGMAP@@XZ 00436c30 f   DlgRotProp.obj
 0001:00035c40       ?OnBnClickedEditInterpolation@CDlgRotProp@@QAEXXZ 00436c40 f   DlgRotProp.obj
 0001:00035d0a       ??_ECDlgRotProp@@WJI@AEPAXI@Z 00436d0a f i DlgRotProp.obj
 0001:00035d20       ?GetRuntimeClass@CDlgScaleProp@@UBEPAUCRuntimeClass@@XZ 00436d20 f   DlgScaleProp.obj
 0001:00035d30       ??0CDlgScaleProp@@QAE@PAVCWnd@@@Z 00436d30 f   DlgScaleProp.obj
 0001:00035db0       ??_ECDlgScaleProp@@UAEPAXI@Z 00436db0 f i * CIL library *:* CIL module *
 0001:00035db0       ??_GCDlgScaleProp@@UAEPAXI@Z 00436db0 f i DlgScaleProp.obj
 0001:00035e50       ??1CDlgScaleProp@@UAE@XZ   00436e50 f   DlgScaleProp.obj
 0001:00035ea0       ?DoDataExchange@CDlgScaleProp@@MAEXPAVCDataExchange@@@Z 00436ea0 f   DlgScaleProp.obj
 0001:00035ef0       ?GetMessageMap@CDlgScaleProp@@MBEPBUAFX_MSGMAP@@XZ 00436ef0 f   DlgScaleProp.obj
 0001:00035ef6       ??_ECDlgScaleProp@@WJI@AEPAXI@Z 00436ef6 f i DlgScaleProp.obj
 0001:00035f10       ?GetRuntimeClass@CDlgSoundProp@@UBEPAUCRuntimeClass@@XZ 00436f10 f   DlgSoundProp.obj
 0001:00035f20       ??_ECDlgSoundProp@@UAEPAXI@Z 00436f20 f i * CIL library *:* CIL module *
 0001:00035f20       ??_GCDlgSoundProp@@UAEPAXI@Z 00436f20 f i DlgSoundProp.obj
 0001:00035f50       ??1CDlgSoundProp@@UAE@XZ   00436f50 f   DlgSoundProp.obj
 0001:00035f60       ?DoDataExchange@CDlgSoundProp@@MAEXPAVCDataExchange@@@Z 00436f60 f   DlgSoundProp.obj
 0001:00035f90       ?GetRuntimeClass@CWndAdjustView@@UBEPAUCRuntimeClass@@XZ 00436f90 f   WndAdjustView.obj
 0001:00035fa0       ??_GCWndAdjustView@@UAEPAXI@Z 00436fa0 f i WndAdjustView.obj
 0001:00035fa0       ??_ECWndAdjustView@@UAEPAXI@Z 00436fa0 f i * CIL library *:* CIL module *
 0001:00035fd0       ??1CWndAdjustView@@UAE@XZ  00436fd0 f   WndAdjustView.obj
 0001:00035fe0       ?GetMessageMap@CWndAdjustView@@MBEPBUAFX_MSGMAP@@XZ 00436fe0 f   WndAdjustView.obj
 0001:00035ff0       ?OnCreate@CWndAdjustView@@QAEHPAUtagCREATESTRUCTW@@@Z 00436ff0 f   WndAdjustView.obj
 0001:00036020       ?GetRuntimeClass@CWndSpline@@UBEPAUCRuntimeClass@@XZ 00437020 f   WndSpline.obj
 0001:00036030       ??_GCWndSpline@@UAEPAXI@Z  00437030 f i WndSpline.obj
 0001:00036030       ??_ECWndSpline@@UAEPAXI@Z  00437030 f i * CIL library *:* CIL module *
 0001:00036060       ??1CWndSpline@@UAE@XZ      00437060 f   WndSpline.obj
 0001:00036070       ?GetMessageMap@CWndSpline@@MBEPBUAFX_MSGMAP@@XZ 00437070 f   WndSpline.obj
 0001:00036080       ?OnCreate@CWndSpline@@QAEHPAUtagCREATESTRUCTW@@@Z 00437080 f   WndSpline.obj
 0001:000360b0       ?GetRuntimeClass@CWndThumbView@@UBEPAUCRuntimeClass@@XZ 004370b0 f   WndThumbView.obj
 0001:000360c0       ??_GCWndThumbView@@UAEPAXI@Z 004370c0 f i WndThumbView.obj
 0001:000360c0       ??_ECWndThumbView@@UAEPAXI@Z 004370c0 f i * CIL library *:* CIL module *
 0001:000360f0       ??1CWndThumbView@@UAE@XZ   004370f0 f   WndThumbView.obj
 0001:00036100       ?GetMessageMap@CWndThumbView@@MBEPBUAFX_MSGMAP@@XZ 00437100 f   WndThumbView.obj
 0001:00036110       ?OnCreate@CWndThumbView@@QAEHPAUtagCREATESTRUCTW@@@Z 00437110 f   WndThumbView.obj
 0001:00036140       ?GetRuntimeClass@XDlgConvert@@UBEPAUCRuntimeClass@@XZ 00437140 f   XDlgConvert.obj
 0001:00036150       ??0XDlgConvert@@QAE@PAVCWnd@@@Z 00437150 f   XDlgConvert.obj
 0001:00036200       ??_GXDlgConvert@@UAEPAXI@Z 00437200 f i XDlgConvert.obj
 0001:00036200       ??_EXDlgConvert@@UAEPAXI@Z 00437200 f i * CIL library *:* CIL module *
 0001:00036230       ??1XDlgConvert@@UAE@XZ     00437230 f   XDlgConvert.obj
 0001:000362d0       ?DoDataExchange@XDlgConvert@@MAEXPAVCDataExchange@@@Z 004372d0 f   XDlgConvert.obj
 0001:00036310       ?GetMessageMap@XDlgConvert@@MBEPBUAFX_MSGMAP@@XZ 00437310 f   XDlgConvert.obj
 0001:00036320       ?OnDropFiles@XDlgConvert@@QAEXPAUHDROP__@@@Z 00437320 f   XDlgConvert.obj
 0001:000366c0       ?OnInitDialog@XDlgConvert@@UAEHXZ 004376c0 f   XDlgConvert.obj
 0001:00036760       ?OnBnClickedGo@XDlgConvert@@QAEXXZ 00437760 f   XDlgConvert.obj
 0001:000369d0       ?Message@XDlgConvert@@QAAXPB_WZZ 004379d0 f   XDlgConvert.obj
 0001:00036b20       ?GetRuntimeClass@XDlgEditInterpolation@@UBEPAUCRuntimeClass@@XZ 00437b20 f   XDlgEditInterpolation.obj
 0001:00036b30       ??_EXDlgEditInterpolation@@UAEPAXI@Z 00437b30 f i * CIL library *:* CIL module *
 0001:00036b30       ??_GXDlgEditInterpolation@@UAEPAXI@Z 00437b30 f i XDlgEditInterpolation.obj
 0001:00036b60       ??1XDlgEditInterpolation@@UAE@XZ 00437b60 f   XDlgEditInterpolation.obj
 0001:00036b70       ?DoDataExchange@XDlgEditInterpolation@@MAEXPAVCDataExchange@@@Z 00437b70 f   XDlgEditInterpolation.obj
 0001:00036b90       ?GetMessageMap@XDlgEditInterpolation@@MBEPBUAFX_MSGMAP@@XZ 00437b90 f   XDlgEditInterpolation.obj
 0001:00036ba0       ?OnOK@XDlgEditInterpolation@@MAEXXZ 00437ba0 f   XDlgEditInterpolation.obj
 0001:00036bc0       ?OnInitDialog@XDlgEditInterpolation@@UAEHXZ 00437bc0 f   XDlgEditInterpolation.obj
 0001:00036ca0       ?OnPaint@CDockablePane@@IAEXXZ 00437ca0 f   uafxcw:afxdockablepane.obj
 0001:00036ca0       ?OnPaint@XDlgEditInterpolation@@QAEXXZ 00437ca0 f   XDlgEditInterpolation.obj
 0001:00036ca0       ?OnPaint@CDockSite@@IAEXXZ 00437ca0 f   uafxcw:afxdocksite.obj
 0001:00036cd0       ?OnBnClickedBoganAccel@XDlgEditInterpolation@@QAEXXZ 00437cd0 f   XDlgEditInterpolation.obj
 0001:00036cd0       ?OnBnClickedBoganSpline@XDlgEditInterpolation@@QAEXXZ 00437cd0 f   XDlgEditInterpolation.obj
 0001:00036cd0       ?OnBnClickedBoganSmooth@XDlgEditInterpolation@@QAEXXZ 00437cd0 f   XDlgEditInterpolation.obj
 0001:00036cd0       ?OnBnClickedBoganDeaccel@XDlgEditInterpolation@@QAEXXZ 00437cd0 f   XDlgEditInterpolation.obj
 0001:00036cd0       ?OnBnClickedBoganLinear@XDlgEditInterpolation@@QAEXXZ 00437cd0 f   XDlgEditInterpolation.obj
 0001:00036cd0       ?OnBnClickedBoganNone@XDlgEditInterpolation@@QAEXXZ 00437cd0 f   XDlgEditInterpolation.obj
 0001:00036cf0       ?GetRuntimeClass@XDlgLuaEditor@@UBEPAUCRuntimeClass@@XZ 00437cf0 f   XDlgLuaEditor.obj
 0001:00036d00       ??_EXDlgLuaEditor@@UAEPAXI@Z 00437d00 f i * CIL library *:* CIL module *
 0001:00036d00       ??_GXDlgLuaEditor@@UAEPAXI@Z 00437d00 f i XDlgLuaEditor.obj
 0001:00036db0       ??1XDlgLuaEditor@@UAE@XZ   00437db0 f   XDlgLuaEditor.obj
 0001:00036e10       ?DoDataExchange@XDlgLuaEditor@@MAEXPAVCDataExchange@@@Z 00437e10 f   XDlgLuaEditor.obj
 0001:00036e50       ?GetMessageMap@XDlgLuaEditor@@MBEPBUAFX_MSGMAP@@XZ 00437e50 f   XDlgLuaEditor.obj
 0001:00036e60       ?OnBnClickedOk@XDlgLuaEditor@@QAEXXZ 00437e60 f   XDlgLuaEditor.obj
 0001:00036eb0       ?SelectObjInArea@XDragSelect@@UAEHPAVXBaseElem@@ABUVEC2@XE@@@Z 00437eb0 f   XDragSelect.obj
 0001:00036fe0       ?OnLButtonDown@XDragSelect@@QAEHIABUVEC2@XE@@@Z 00437fe0 f   XDragSelect.obj
 0001:00037070       ?SelectOnDragOnly@XDragSelect@@UAEXPAVXBaseElem@@ABUVEC2@XE@@@Z 00438070 f   XDragSelect.obj
 0001:000370d0       ?OnMouseMove@XDragSelect@@QAEHIABUVEC2@XE@@@Z 004380d0 f   XDragSelect.obj
 0001:00037240       ?ProcessObjLButtonUp@XDragSelect@@QAEHIABUVEC2@XE@@@Z 00438240 f   XDragSelect.obj
 0001:000372f0       ?ProcessDragAreaLButtonUp@XDragSelect@@QAEHIABUVEC2@XE@@@Z 004382f0 f   XDragSelect.obj
 0001:00037530       ?Draw@XDragSelect@@QAEXXZ  00438530 f   XDragSelect.obj
 0001:000375e0       ?Add@?$XList@K@@QAEKK@Z    004385e0 f i XDragSelect.obj
 0001:00037630       ?Del@?$XList@K@@QAEXK@Z    00438630 f i XDragSelect.obj
 0001:00037680       ?GetNextClear@?$XList@K@@QAE?AVItor@1@XZ 00438680 f i XDragSelect.obj
 0001:000376a0       ??1Itor@?$XList@K@@UAE@XZ  004386a0 f i XDragSelect.obj
 0001:000376b0       ??_GItor@?$XList@K@@UAEPAXI@Z 004386b0 f i XDragSelect.obj
 0001:000376b0       ??_EItor@?$XList@K@@UAEPAXI@Z 004386b0 f i * CIL library *:* CIL module *
 0001:000376e0       ?CreateObject@XViewGraph@@SGPAVCObject@@XZ 004386e0 f   XViewGraph.obj
 0001:00037750       ?GetRuntimeClass@XViewGraph@@UBEPAUCRuntimeClass@@XZ 00438750 f   XViewGraph.obj
 0001:00037760       ??0XViewGraph@@IAE@XZ      00438760 f   XViewGraph.obj
 0001:000377e0       ??_GXViewGraph@@MAEPAXI@Z  004387e0 f i XViewGraph.obj
 0001:000377e0       ??_EXViewGraph@@MAEPAXI@Z  004387e0 f i * CIL library *:* CIL module *
 0001:00037810       ?GetMessageMap@XViewGraph@@MBEPBUAFX_MSGMAP@@XZ 00438810 f   XViewGraph.obj
 0001:00037820       ?DrawInterpolationLine@XViewGraph@@QAEXXZ 00438820 f   XViewGraph.obj
 0001:00037a80       ?OnDraw@XViewGraph@@UAEXPAVCDC@@@Z 00438a80 f   XViewGraph.obj
 0001:00037e10       ?OnMouseActivate@XViewGraph@@QAEHPAVCWnd@@II@Z 00438e10 f   XViewGraph.obj
 0001:00037e20       ?OnLButtonDown@XViewGraph@@QAEXIVCPoint@@@Z 00438e20 f   XViewGraph.obj
 0001:00037e40       ?OnMouseMove@XViewGraph@@QAEXIVCPoint@@@Z 00438e40 f   XViewGraph.obj
 0001:00037e7f       ??_EXViewGraph@@OHM@AEPAXI@Z 00438e7f f i XViewGraph.obj
 0001:00037e90       ?DragMove@XMovableInterface@@UAEXMMABUVEC2@XE@@0@Z 00438e90 f   MovableInterface.obj
 0001:00037ef0       ?Draw@XMICross@@UAEXMMMMABUVEC2@XE@@@Z 00438ef0 f   MovableInterface.obj
 0001:00038040       ?OnMouseMove@XMICross@@UAEXMM@Z 00439040 f   MovableInterface.obj
 0001:00038120       ?Draw@XMICrossDir@@UAEXMMMMABUVEC2@XE@@@Z 00439120 f   MovableInterface.obj
 0001:000387d0       ?OnMouseMove@XMICrossDir@@UAEXMM@Z 004397d0 f   MovableInterface.obj
 0001:00038960       ?OnLButtonDown@XMICrossDir@@UAEXMMABVCPoint@@@Z 00439960 f   MovableInterface.obj
 0001:00038a20       ?OnLButtonUp@XMICrossDir@@UAEXMMABVCPoint@@@Z 00439a20 f   MovableInterface.obj
 0001:00038a60       ?DragMove@XMICrossDir@@UAEXMMABUVEC2@XE@@0@Z 00439a60 f   MovableInterface.obj
 0001:00038bb0       ?OnLButtonUp@XMILayerCrossDir@@UAEXMMABVCPoint@@@Z 00439bb0 f   MovableInterface.obj
 0001:00038d70       ?DragMove@XMILayerCrossDir@@UAEXMMABUVEC2@XE@@0@Z 00439d70 f   MovableInterface.obj
 0001:000390b0       ??$AtlMultiply@K@ATL@@YAJPAKKK@Z 0043a0b0 f i stdafx.obj
 0001:000390b0       ??$AtlMultiply@I@ATL@@YAJPAIII@Z 0043a0b0 f i stdafx.obj
 0001:000390e0       ?Init@CComCriticalSection@ATL@@QAEJXZ 0043a0e0 f i stdafx.obj
 0001:00039110       ?GetInitGDIPlusInstance@CImage@ATL@@CAPAVCInitGDIPlus@12@XZ 0043a110 f i stdafx.obj
 0001:00039180       ?GetCDCCacheInstance@CImage@ATL@@CAPAVCDCCache@12@XZ 0043a180 f i stdafx.obj
 0001:000391b0       ?ReleaseGDIPlus@CInitGDIPlus@CImage@ATL@@QAEXXZ 0043a1b0 f i stdafx.obj
 0001:000391e0       ??_Eerror_category@std@@UAEPAXI@Z 0043a1e0 f i * CIL library *:* CIL module *
 0001:000391e0       ??_G_Iostream_error_category@std@@UAEPAXI@Z 0043a1e0 f i stdafx.obj
 0001:000391e0       ??_E_Generic_error_category@std@@UAEPAXI@Z 0043a1e0 f i * CIL library *:* CIL module *
 0001:000391e0       ??_E_Iostream_error_category@std@@UAEPAXI@Z 0043a1e0 f i * CIL library *:* CIL module *
 0001:000391e0       ??_Gerror_category@std@@UAEPAXI@Z 0043a1e0 f i stdafx.obj
 0001:000391e0       ??_G_Generic_error_category@std@@UAEPAXI@Z 0043a1e0 f i stdafx.obj
 0001:000391e0       ??_G_System_error_category@std@@UAEPAXI@Z 0043a1e0 f i stdafx.obj
 0001:000391e0       ??_E_System_error_category@std@@UAEPAXI@Z 0043a1e0 f i * CIL library *:* CIL module *
 0001:00039210       ?default_error_condition@error_category@std@@UBE?AVerror_condition@2@H@Z 0043a210 f i stdafx.obj
 0001:00039230       ?equivalent@error_category@std@@UBE_NHABVerror_condition@2@@Z 0043a230 f i stdafx.obj
 0001:00039270       ?equivalent@error_category@std@@UBE_NABVerror_code@2@H@Z 0043a270 f i stdafx.obj
 0001:00039290       ?name@_Generic_error_category@std@@UBEPBDXZ 0043a290 f i stdafx.obj
 0001:000392a0       ?message@_Generic_error_category@std@@UBE?AV?$basic_string@DU?$char_traits@D@std@@V?$allocator@D@2@@2@H@Z 0043a2a0 f i stdafx.obj
 0001:00039310       ?name@_Iostream_error_category@std@@UBEPBDXZ 0043a310 f i stdafx.obj
 0001:00039320       ?message@_Iostream_error_category@std@@UBE?AV?$basic_string@DU?$char_traits@D@std@@V?$allocator@D@2@@2@H@Z 0043a320 f i stdafx.obj
 0001:00039370       ?name@_System_error_category@std@@UBEPBDXZ 0043a370 f i stdafx.obj
 0001:00039380       ?message@_System_error_category@std@@UBE?AV?$basic_string@DU?$char_traits@D@std@@V?$allocator@D@2@@2@H@Z 0043a380 f i stdafx.obj
 0001:000393f0       ?default_error_condition@_System_error_category@std@@UBE?AVerror_condition@2@H@Z 0043a3f0 f i stdafx.obj
 0001:00039430       ??$AtlAdd@K@ATL@@YAJPAKKK@Z 0043a430 f i stdafx.obj
 0001:00039460       ??$AtlAdd@H@ATL@@YAJPAHHH@Z 0043a460 f i stdafx.obj
 0001:00039490       ??1XSelect@@UAE@XZ         0043a490 f i Tool.obj
 0001:000394e0       ??_GXSelect@@UAEPAXI@Z     0043a4e0 f i Tool.obj
 0001:000394e0       ??_EXSelect@@UAEPAXI@Z     0043a4e0 f i * CIL library *:* CIL module *
 0001:00039540       ??0XLuaSprObj@@QAE@XZ      0043a540 f i Tool.obj
 0001:000395a0       ?Init@XSprObj@@AAEXXZ      0043a5a0 f i Tool.obj
 0001:00039630       ??0XSprObj@@QAE@XZ         0043a630 f i Tool.obj
 0001:000396d0       ??1XSprObj@@UAE@XZ         0043a6d0 f i Tool.obj
 0001:00039790       ?CreateObjAct@XSprObj@@UAEPAVXObjAct@@PAVXAniAction@@@Z 0043a790 f i Tool.obj
 0001:00039880       ?CreateScript@XSprObj@@UAEPAVXLuaSprObj@@XZ 0043a880 f i Tool.obj
 0001:000398a0       ??_EXSprObj@@UAEPAXI@Z     0043a8a0 f i * CIL library *:* CIL module *
 0001:000398a0       ??_GXSprObj@@UAEPAXI@Z     0043a8a0 f i Tool.obj
 0001:000398d0       ??_GXObjActTool@@UAEPAXI@Z 0043a8d0 f i Tool.obj
 0001:000398d0       ??_EXObjActTool@@UAEPAXI@Z 0043a8d0 f i * CIL library *:* CIL module *
 0001:00039900       ?CreateObjAct@XSprObjTool@@UAEPAVXObjAct@@PAVXAniAction@@@Z 0043a900 f i Tool.obj
 0001:000399b0       ??_EXSprObjTool@@UAEPAXI@Z 0043a9b0 f i * CIL library *:* CIL module *
 0001:000399b0       ??_GXSprObjTool@@UAEPAXI@Z 0043a9b0 f i Tool.obj
 0001:000399e0       ??0XUndoMng@@QAE@XZ        0043a9e0 f i Tool.obj
 0001:00039b20       ??1XUndoMng@@UAE@XZ        0043ab20 f i Tool.obj
 0001:00039bd0       ??_GXUndoMng@@UAEPAXI@Z    0043abd0 f i Tool.obj
 0001:00039bd0       ??_EXUndoMng@@UAEPAXI@Z    0043abd0 f i * CIL library *:* CIL module *
 0001:00039c00       ??1?$stack@PAUUNDO_PACK@@V?$deque@PAUUNDO_PACK@@V?$allocator@PAUUNDO_PACK@@@std@@@std@@@std@@QAE@XZ 0043ac00 f i Tool.obj
 0001:00039c00       ??1?$queue@PAVXBaseUndo@@V?$deque@PAVXBaseUndo@@V?$allocator@PAVXBaseUndo@@@std@@@std@@@std@@QAE@XZ 0043ac00 f i Tool.obj
 0001:00039c20       ??0XSprMng@@QAE@XZ         0043ac20 f i Tool.obj
 0001:00039cd0       ??1XSprMng@@UAE@XZ         0043acd0 f i Tool.obj
 0001:00039da0       ??_EXSprMng@@UAEPAXI@Z     0043ada0 f i * CIL library *:* CIL module *
 0001:00039da0       ??_GXSprMng@@UAEPAXI@Z     0043ada0 f i Tool.obj
 0001:00039dd0       ??0XTool@@QAE@XZ           0043add0 f i Tool.obj
 0001:0003a100       ??1XTool@@QAE@XZ           0043b100 f i Tool.obj
 0001:0003a3a0       ?Destroy@XTool@@QAEXXZ     0043b3a0 f   Tool.obj
 0001:0003a4b0       ?SaveINI@XTool@@QAEXPB_W@Z 0043b4b0 f   Tool.obj
 0001:0003a710       ?LoadINI@XTool@@QAEXXZ     0043b710 f   Tool.obj
 0001:0003abe0       ?LoadSpr@XTool@@QAEHPB_W@Z 0043bbe0 f   Tool.obj
 0001:0003ae00       ?SetSelAct@XTool@@QAEXK@Z  0043be00 f   Tool.obj
 0001:0003aea0       ?CopyAct@XTool@@QAEXPAVXAniAction@@@Z 0043bea0 f   Tool.obj
 0001:0003afa0       ?SetSelActIdx@XTool@@QAEXH@Z 0043bfa0 f   Tool.obj
 0001:0003b070       ?DelAct@XTool@@QAEPAVXObjAct@@K@Z 0043c070 f   Tool.obj
 0001:0003b130       ?AddAniFrame@XTool@@QAEHHPB_WH@Z 0043c130 f   Tool.obj
 0001:0003b280       ?AddAniFrame@XTool@@QAEHHHHPAKPB_WH@Z 0043c280 f   Tool.obj
 0001:0003b750       ?CutAndAdjustImage@XTool@@QAEXPAH000PAPAK@Z 0043c750 f   Tool.obj
 0001:0003b960       ?CutContinuosImage@XTool@@QAEXPB_W@Z 0043c960 f   Tool.obj
 0001:0003be50       ?CutAlignedImage@XTool@@QAEHPB_W@Z 0043ce50 f   Tool.obj
 0001:0003c040       ?CreateShadowKey@XTool@@QAEXXZ 0043d040 f   Tool.obj
 0001:0003c0b0       ?ApplyShadowKey@XTool@@QAEXXZ 0043d0b0 f   Tool.obj
 0001:0003c1d0       ?AddKeyFromSelSpr@XTool@@QAEHPAVXBaseLayer@@@Z 0043d1d0 f   Tool.obj
 0001:0003c450       ?_Tidy@?$deque@PAVXBaseUndo@@V?$allocator@PAVXBaseUndo@@@std@@@std@@IAEXXZ 0043d450 f i Tool.obj
 0001:0003c450       ?_Tidy@?$deque@PAUUNDO_PACK@@V?$allocator@PAUUNDO_PACK@@@std@@@std@@IAEXXZ 0043d450 f i Tool.obj
 0001:0003c4b0       ?_Buynode0@?$_List_alloc@$0A@U?$_List_base_types@UtagRECT@@V?$allocator@UtagRECT@@@std@@@std@@@std@@QAEPAU?$_List_node@UtagRECT@@PAX@2@PAU32@0@Z 0043d4b0 f i Tool.obj
 0001:0003c4f0       ??$_Buynode@ABUtagRECT@@@?$_List_buy@UtagRECT@@V?$allocator@UtagRECT@@@std@@@std@@QAEPAU?$_List_node@UtagRECT@@PAX@1@PAU21@0ABUtagRECT@@@Z 0043d4f0 f i Tool.obj
 0001:0003c520       ?GetTypeString@XBaseKey@@QAEPB_WW4xTYPE@1@@Z 0043d520 f i UndoAction.obj
 0001:0003c5e0       ?Assign@XAniAction@@QAEXPAV1@@Z 0043d5e0 f i UndoAction.obj
 0001:0003c760       ??4XAniAction@@QAEAAV0@ABV0@@Z 0043d760 f i UndoAction.obj
 0001:0003c890       ?FindIDKey@XUndoKey@@QAEPAVXBaseKey@@PAV2@@Z 0043d890 f   UndoAction.obj
 0001:0003c920       ?GetKeyAction@XUndoKey@@QAEPAVXAniAction@@PAVXBaseKey@@@Z 0043d920 f   UndoAction.obj
 0001:0003caf0       ?DoRedo@XUndoDelKey@@UAEHXZ 0043daf0 f   UndoAction.obj
 0001:0003caf0       ?DoUndo@XUndoCreateKey@@UAEHXZ 0043daf0 f   UndoAction.obj
 0001:0003cb50       ?DoRedo@XUndoCreateKey@@UAEHXZ 0043db50 f   UndoAction.obj
 0001:0003cb50       ?DoUndo@XUndoDelKey@@UAEHXZ 0043db50 f   UndoAction.obj
 0001:0003cba0       ?DoUndo@XUndoKeyChange@@UAEHXZ 0043dba0 f   UndoAction.obj
 0001:0003cc40       ?DoRedo@XUndoKeyChange@@UAEHXZ 0043dc40 f   UndoAction.obj
 0001:0003cce0       ?FindIDLayer@XUndoLayer@@QAEPAVXBaseLayer@@PAV2@@Z 0043dce0 f   UndoAction.obj
 0001:0003cd60       ?DoUndo@XUndoCreateLayer@@UAEHXZ 0043dd60 f   UndoAction.obj
 0001:0003cd60       ?DoRedo@XUndoDelLayer@@UAEHXZ 0043dd60 f   UndoAction.obj
 0001:0003cdf0       ?DoRedo@XUndoCreateLayer@@UAEHXZ 0043ddf0 f   UndoAction.obj
 0001:0003cdf0       ?DoUndo@XUndoDelLayer@@UAEHXZ 0043ddf0 f   UndoAction.obj
 0001:0003cf20       ?DoUndo@XUndoDelAction@@UAEHXZ 0043df20 f   UndoAction.obj
 0001:0003cf60       ?DoRedo@XUndoDelAction@@UAEHXZ 0043df60 f   UndoAction.obj
 0001:0003cf90       ?DoUndo@XUndoActionChange@@UAEHXZ 0043df90 f   UndoAction.obj
 0001:0003cfe0       ?DoRedo@XUndoActionChange@@UAEHXZ 0043dfe0 f   UndoAction.obj
 0001:0003d030       ?DoUndo@XUndoDelSprite@@UAEHXZ 0043e030 f   UndoAction.obj
 0001:0003d0b0       ?DoRedo@XUndoDelSprite@@UAEHXZ 0043e0b0 f   UndoAction.obj
 0001:0003d130       ?DoUndo@XUndoSpriteChange@@UAEHXZ 0043e130 f   UndoAction.obj
 0001:0003d1a0       ?DoRedo@XUndoSpriteChange@@UAEHXZ 0043e1a0 f   UndoAction.obj
 0001:0003d210       ??0?$list@PAULAYER_INFO@@V?$allocator@PAULAYER_INFO@@@std@@@std@@QAE@ABV01@@Z 0043e210 f i UndoAction.obj
 0001:0003d210       ??0?$list@PAVXBaseKey@@V?$allocator@PAVXBaseKey@@@std@@@std@@QAE@ABV01@@Z 0043e210 f i UndoAction.obj
 0001:0003d2b0       ??$assign@V?$_List_const_iterator@V?$_List_val@U?$_List_simple_types@PAULAYER_INFO@@@std@@@std@@@std@@@?$list@PAULAYER_INFO@@V?$allocator@PAULAYER_INFO@@@std@@@std@@QAEXV?$_List_const_iterator@V?$_List_val@U?$_List_simple_types@PAULAYER_INFO@@@std@@@std@@@1@0@Z 0043e2b0 f i UndoAction.obj
 0001:0003d2b0       ??$assign@V?$_List_const_iterator@V?$_List_val@U?$_List_simple_types@PAVXBaseKey@@@std@@@std@@@std@@@?$list@PAVXBaseKey@@V?$allocator@PAVXBaseKey@@@std@@@std@@QAEXV?$_List_const_iterator@V?$_List_val@U?$_List_simple_types@PAVXBaseKey@@@std@@@std@@@1@0@Z 0043e2b0 f i UndoAction.obj
 0001:0003d400       ??$_Insert_range@V?$_List_const_iterator@V?$_List_val@U?$_List_simple_types@PAULAYER_INFO@@@std@@@std@@@std@@@?$list@PAULAYER_INFO@@V?$allocator@PAULAYER_INFO@@@std@@@std@@QAEXV?$_List_unchecked_const_iterator@V?$_List_val@U?$_List_simple_types@PAULAYER_INFO@@@std@@@std@@U_Iterator_base0@2@@1@V?$_List_const_iterator@V?$_List_val@U?$_List_simple_types@PAULAYER_INFO@@@std@@@std@@@1@1Uforward_iterator_tag@1@@Z 0043e400 f i UndoAction.obj
 0001:0003d400       ??$_Insert_range@V?$_List_const_iterator@V?$_List_val@U?$_List_simple_types@PAVXBaseKey@@@std@@@std@@@std@@@?$list@PAVXBaseKey@@V?$allocator@PAVXBaseKey@@@std@@@std@@QAEXV?$_List_unchecked_const_iterator@V?$_List_val@U?$_List_simple_types@PAVXBaseKey@@@std@@@std@@U_Iterator_base0@2@@1@V?$_List_const_iterator@V?$_List_val@U?$_List_simple_types@PAVXBaseKey@@@std@@@std@@@1@1Uforward_iterator_tag@1@@Z 0043e400 f i UndoAction.obj
 0001:0003d4e0       ??$_Reusenode@ABQAULAYER_INFO@@@?$list@PAULAYER_INFO@@V?$allocator@PAULAYER_INFO@@@std@@@std@@QAEXV?$_List_iterator@V?$_List_val@U?$_List_simple_types@PAULAYER_INFO@@@std@@@std@@@1@ABQAULAYER_INFO@@@Z 0043e4e0 f i UndoAction.obj
 0001:0003d4e0       ??$_Reusenode@ABQAVXBaseKey@@@?$list@PAVXBaseKey@@V?$allocator@PAVXBaseKey@@@std@@@std@@QAEXV?$_List_iterator@V?$_List_val@U?$_List_simple_types@PAVXBaseKey@@@std@@@std@@@1@ABQAVXBaseKey@@@Z 0043e4e0 f i UndoAction.obj
 0001:0003d500       ?DestroyStack@XUndoMng@@QAEXAAV?$stack@PAUUNDO_PACK@@V?$deque@PAUUNDO_PACK@@V?$allocator@PAUUNDO_PACK@@@std@@@std@@@std@@@Z 0043e500 f   UndoMng.obj
 0001:0003d5c0       ?PushUndo@XUndoMng@@QAEXPAVXBaseUndo@@HH@Z 0043e5c0 f   UndoMng.obj
 0001:0003d6d0       ??0UNDO_PACK@@QAE@XZ       0043e6d0 f i UndoMng.obj
 0001:0003d720       ?PushRedo@XUndoMng@@QAEXPAVXBaseUndo@@H@Z 0043e720 f   UndoMng.obj
 0001:0003d7e0       ?Undo@XUndoMng@@QAEHXZ     0043e7e0 f   UndoMng.obj
 0001:0003d930       ?Redo@XUndoMng@@QAEHXZ     0043e930 f   UndoMng.obj
 0001:0003da80       ?push_back@?$deque@PAUUNDO_PACK@@V?$allocator@PAUUNDO_PACK@@@std@@@std@@QAEXABQAUUNDO_PACK@@@Z 0043ea80 f i UndoMng.obj
 0001:0003da80       ?push_back@?$deque@PAVXBaseUndo@@V?$allocator@PAVXBaseUndo@@@std@@@std@@QAEXABQAVXBaseUndo@@@Z 0043ea80 f i UndoMng.obj
 0001:0003db10       ?_Growmap@?$deque@PAVXBaseUndo@@V?$allocator@PAVXBaseUndo@@@std@@@std@@IAEXI@Z 0043eb10 f i UndoMng.obj
 0001:0003db10       ?_Growmap@?$deque@PAUUNDO_PACK@@V?$allocator@PAUUNDO_PACK@@@std@@@std@@IAEXI@Z 0043eb10 f i UndoMng.obj
 0001:0003dc90       ?OnWindowPosChanged@CWnd@@IAEXPAUtagWINDOWPOS@@@Z 0043ec90 f i CoolDialogBar.obj
 0001:0003dc90       ?OnNcActivate@CMDIChildWnd@@IAEHH@Z 0043ec90 f i uafxcw:winmdi.obj
 0001:0003dc90       ?OnEraseBkgnd@CWnd@@IAEHPAVCDC@@@Z 0043ec90 f i uafxcw:winfrm.obj
 0001:0003dca0       ?CreateSolidBrush@CBrush@@QAEHK@Z 0043eca0 f i CoolDialogBar.obj
 0001:0003dcc0       ?GetRuntimeClass@CCrashDlg@@UBEPAUCRuntimeClass@@XZ 0043ecc0 f   CrashDlg.obj
 0001:0003dcd0       ??0CCrashDlg@@QAE@PAVCWnd@@@Z 0043ecd0 f   CrashDlg.obj
 0001:0003dd90       ??_ECCrashDlg@@UAEPAXI@Z   0043ed90 f i * CIL library *:* CIL module *
 0001:0003dd90       ??_GCCrashDlg@@UAEPAXI@Z   0043ed90 f i CrashDlg.obj
 0001:0003de30       ??1CCrashDlg@@UAE@XZ       0043ee30 f   CrashDlg.obj
 0001:0003dec0       ?DoDataExchange@CCrashDlg@@MAEXPAVCDataExchange@@@Z 0043eec0 f   CrashDlg.obj
 0001:0003df20       ?GetMessageMap@CCrashDlg@@MBEPBUAFX_MSGMAP@@XZ 0043ef20 f   CrashDlg.obj
 0001:0003df30       ?OnInitDialog@CCrashDlg@@MAEHXZ 0043ef30 f   CrashDlg.obj
 0001:0003dfd0       ??_ECButton@@UAEPAXI@Z     0043efd0 f i * CIL library *:* CIL module *
 0001:0003dfd0       ??_GCButton@@UAEPAXI@Z     0043efd0 f i CrashDlg.obj
 0001:0003e000       ??_GCListBox@@UAEPAXI@Z    0043f000 f i CrashDlg.obj
 0001:0003e000       ??_ECListBox@@UAEPAXI@Z    0043f000 f i * CIL library *:* CIL module *
 0001:0003e030       ??_GCStatic@@UAEPAXI@Z     0043f030 f i CrashDlg.obj
 0001:0003e030       ??_ECStatic@@UAEPAXI@Z     0043f030 f i * CIL library *:* CIL module *
 0001:0003e060       ?Del@XSelect@@QAEXPAVXBaseElem@@H@Z 0043f060 f   Select.obj
 0001:0003e0b0       ?Destroy@XSelect@@QAEXXZ   0043f0b0 f   Select.obj
 0001:0003e100       ??1user@lua_tinker@@UAE@XZ 0043f100 f i Key.obj
 0001:0003e110       ??_Euser@lua_tinker@@UAEPAXI@Z 0043f110 f i * CIL library *:* CIL module *
 0001:0003e110       ??_E?$ptr2user@VXSprObj@@@lua_tinker@@UAEPAXI@Z 0043f110 f i * CIL library *:* CIL module *
 0001:0003e110       ??_Guser@lua_tinker@@UAEPAXI@Z 0043f110 f i Key.obj
 0001:0003e110       ??_G?$ptr2user@VXSprObj@@@lua_tinker@@UAEPAXI@Z 0043f110 f i Key.obj
 0001:0003e140       ?IsCorrectLayer@XBaseKey@@QAEHW4xTYPE@XBaseLayer@@W421@@Z 0043f140 f i Key.obj
 0001:0003e210       ?ValueAssign@XBaseKey@@UAEXPAV1@@Z 0043f210 f i Key.obj
 0001:0003e260       ??0XBaseKey@@QAE@PAVXAniAction@@W4xTYPE@0@W4xSubType@0@MPAVXBaseLayer@@@Z 0043f260 f i Key.obj
 0001:0003e460       ??0XBaseKey@@QAE@PAVXAniAction@@W4xTYPE@0@W4xSubType@0@MW42XBaseLayer@@H@Z 0043f460 f i Key.obj
 0001:0003e4e0       ??0XBaseKey@@QAE@PAVXAniAction@@AAV0@@Z 0043f4e0 f i Key.obj
 0001:0003e5f0       ??1XKeyPos@@UAE@XZ         0043f5f0 f i SprDat.obj
 0001:0003e5f0       ??1XKeyDummy@@UAE@XZ       0043f5f0 f i SprDat.obj
 0001:0003e5f0       ??1XKeyImage@@UAE@XZ       0043f5f0 f i SprDat.obj
 0001:0003e5f0       ??1XKeyScale@@UAE@XZ       0043f5f0 f i SprDat.obj
 0001:0003e5f0       ??1XBaseKey@@UAE@XZ        0043f5f0 f i Key.obj
 0001:0003e5f0       ??1XKeyRot@@UAE@XZ         0043f5f0 f i SprDat.obj
 0001:0003e5f0       ??1XKeyCreateObj@@UAE@XZ   0043f5f0 f i Key.obj
 0001:0003e5f0       ??1XKeySound@@UAE@XZ       0043f5f0 f i SprDat.obj
 0001:0003e5f0       ??1XKeyEffect@@UAE@XZ      0043f5f0 f i SprDat.obj
 0001:0003e670       ?Copy@XBaseKey@@UAEPAV1@PAVXAniAction@@@Z 0043f670 f i Key.obj
 0001:0003e6c0       ?GetToolTipSize@XBaseKey@@UAEXPAM0@Z 0043f6c0 f i Key.obj
 0001:0003e760       ?GetToolTipString@XBaseKey@@UAE?AV?$CStringT@_WV?$StrTraitMFC@_WV?$ChTraitsCRT@_W@ATL@@@@@ATL@@XZ 0043f760 f i Key.obj
 0001:0003e790       ?GetToolTipStringTail@XBaseKey@@QAE?AV?$CStringT@_WV?$StrTraitMFC@_WV?$ChTraitsCRT@_W@ATL@@@@@ATL@@XZ 0043f790 f i Key.obj
 0001:0003e920       ??_EXKeyCreateObj@@UAEPAXI@Z 0043f920 f i * CIL library *:* CIL module *
 0001:0003e920       ??_GXKeyImage@@UAEPAXI@Z   0043f920 f i SprDat.obj
 0001:0003e920       ??_GXKeyRot@@UAEPAXI@Z     0043f920 f i SprDat.obj
 0001:0003e920       ??_GXKeyScale@@UAEPAXI@Z   0043f920 f i SprDat.obj
 0001:0003e920       ??_GXBaseKey@@UAEPAXI@Z    0043f920 f i Key.obj
 0001:0003e920       ??_EXKeySound@@UAEPAXI@Z   0043f920 f i * CIL library *:* CIL module *
 0001:0003e920       ??_GXKeySound@@UAEPAXI@Z   0043f920 f i SprDat.obj
 0001:0003e920       ??_EXKeyRot@@UAEPAXI@Z     0043f920 f i * CIL library *:* CIL module *
 0001:0003e920       ??_EXKeyImage@@UAEPAXI@Z   0043f920 f i * CIL library *:* CIL module *
 0001:0003e920       ??_GXKeyPos@@UAEPAXI@Z     0043f920 f i SprDat.obj
 0001:0003e920       ??_EXKeyPos@@UAEPAXI@Z     0043f920 f i * CIL library *:* CIL module *
 0001:0003e920       ??_EXKeyEffect@@UAEPAXI@Z  0043f920 f i * CIL library *:* CIL module *
 0001:0003e920       ??_EXBaseKey@@UAEPAXI@Z    0043f920 f i * CIL library *:* CIL module *
 0001:0003e920       ??_GXKeyEffect@@UAEPAXI@Z  0043f920 f i SprDat.obj
 0001:0003e920       ??_GXKeyDummy@@UAEPAXI@Z   0043f920 f i SprDat.obj
 0001:0003e920       ??_EXKeyDummy@@UAEPAXI@Z   0043f920 f i * CIL library *:* CIL module *
 0001:0003e920       ??_GXKeyCreateObj@@UAEPAXI@Z 0043f920 f i Key.obj
 0001:0003e920       ??_EXKeyScale@@UAEPAXI@Z   0043f920 f i * CIL library *:* CIL module *
 0001:0003e9b0       ??0XKeyCreateObj@@QAE@PAVXAniAction@@PAV0@@Z 0043f9b0 f i Key.obj
 0001:0003ea40       ?ValueAssign@XKeyCreateObj@@UAEXPAVXBaseKey@@@Z 0043fa40 f i Key.obj
 0001:0003ea70       ?Copy@XKeyCreateObj@@UAEPAVXBaseKey@@PAVXAniAction@@@Z 0043fa70 f i Key.obj
 0001:0003eae0       ?GetToolTipSize@XKeyCreateObj@@UAEXPAM0@Z 0043fae0 f i Key.obj
 0001:0003eb50       ??4XKeyCreateObj@@QAEAAV0@ABV0@@Z 0043fb50 f i Key.obj
 0001:0003ebe0       ?GetpLayerMove@XSprObj@@QAEPAVXLayerMove@@W4xTYPE@XBaseLayer@@H@Z 0043fbe0 f i Key.obj
 0001:0003ec80       ?GetLoopType@CDlgEventProperty@@QAE?AW4xRPT_TYPE@@PAM@Z 0043fc80 f i Key.obj
 0001:0003ed20       ?Add@XKeyMng@@QAEXPAVXBaseKey@@@Z 0043fd20 f   Key.obj
 0001:0003ee40       ?Clear@XKeyMng@@QAEXPAVXBaseKey@@@Z 0043fe40 f   Key.obj
 0001:0003eee0       ?GetpLayer@XBaseKey@@QAEPAVXBaseLayer@@PAVXSprObj@@@Z 0043fee0 f   Key.obj
 0001:0003ef30       ?Execute@XBaseKey@@UAEXPAVXSprObj@@M@Z 0043ff30 f   Key.obj
 0001:0003f0c0       ?CopyKey@XBaseKey@@UAEPAV1@XZ 004400c0 f   Key.obj
 0001:0003f100       ?IsSameLayer@XBaseKey@@UAEHPAVXSprObj@@PAV1@H@Z 00440100 f   Key.obj
 0001:0003f160       ?GetNextKey@XBaseKey@@QAEPAV1@XZ 00440160 f   Key.obj
 0001:0003f210       ?GetPrevKey@XBaseKey@@QAEPAV1@XZ 00440210 f   Key.obj
 0001:0003f2e0       ?MakeTableName@XBaseKey@@QAE?AV?$CStringT@_WV?$StrTraitMFC@_WV?$ChTraitsCRT@_W@ATL@@@@@ATL@@XZ 004402e0 f   Key.obj
 0001:0003f380       ?ReplaceFuncName@XBaseKey@@QAEXPAV?$CStringT@_WV?$StrTraitMFC@_WV?$ChTraitsCRT@_W@ATL@@@@@ATL@@PA_W@Z 00440380 f   Key.obj
 0001:0003f460       ?CompositLuaCodes@XBaseKey@@UAEXPAV?$CStringT@_WV?$StrTraitMFC@_WV?$ChTraitsCRT@_W@ATL@@@@@ATL@@@Z 00440460 f   Key.obj
 0001:0003f480       ?Save@XBaseKey@@UAEXPAVXResFile@@@Z 00440480 f   Key.obj
 0001:0003f5a0       ?Load@XBaseKey@@UAEXPAVXSprDat@@PAVXResFile@@@Z 004405a0 f   Key.obj
 0001:0003f680       ?Save@XKeyImage@@UAEXPAVXResFile@@@Z 00440680 f   Key.obj
 0001:0003f6c0       ?Load@XKeyImage@@UAEXPAVXSprDat@@PAVXResFile@@@Z 004406c0 f   Key.obj
 0001:0003f720       ?Execute@XKeyImage@@UAEXPAVXSprObj@@M@Z 00440720 f   Key.obj
 0001:0003f7b0       ?Save@XKeyPos@@UAEXPAVXResFile@@@Z 004407b0 f   Key.obj
 0001:0003fac0       ?Load@XKeyPos@@UAEXPAVXSprDat@@PAVXResFile@@@Z 00440ac0 f   Key.obj
 0001:0003fc40       ?Execute@XKeyPos@@UAEXPAVXSprObj@@M@Z 00440c40 f   Key.obj
 0001:0003fcc0       ?GetpNextPathKey@XKeyPos@@QAEPAV1@K@Z 00440cc0 f   Key.obj
 0001:0003fd70       ?GetpPrevPathKey@XKeyPos@@QAEPAV1@XZ 00440d70 f   Key.obj
 0001:0003fe00       ?GetpInterpolationEndKey@XKeyPos@@QAEPAV1@XZ 00440e00 f   Key.obj
 0001:0003fe90       ?OnAdded@XKeyPos@@UAEXXZ   00440e90 f   Key.obj
 0001:0003ff50       ?EditDialog@XKeyPos@@UAEHXZ 00440f50 f   Key.obj
 0001:00040080       ?Execute@XKeyEffect@@UAEXPAVXSprObj@@M@Z 00441080 f   Key.obj
 0001:00040180       ?Save@XKeyEffect@@UAEXPAVXResFile@@@Z 00441180 f   Key.obj
 0001:00040200       ?Load@XKeyEffect@@UAEXPAVXSprDat@@PAVXResFile@@@Z 00441200 f   Key.obj
 0001:00040270       ?EditDialog@XKeyEffect@@UAEHXZ 00441270 f   Key.obj
 0001:00040390       ?Save@XKeyRot@@UAEXPAVXResFile@@@Z 00441390 f   Key.obj
 0001:00040400       ?Load@XKeyRot@@UAEXPAVXSprDat@@PAVXResFile@@@Z 00441400 f   Key.obj
 0001:00040460       ?Execute@XKeyRot@@UAEXPAVXSprObj@@M@Z 00441460 f   Key.obj
 0001:00040530       ?EditDialog@XKeyRot@@UAEHXZ 00441530 f   Key.obj
 0001:00040610       ?Save@XKeyScale@@UAEXPAVXResFile@@@Z 00441610 f   Key.obj
 0001:00040690       ?Load@XKeyScale@@UAEXPAVXSprDat@@PAVXResFile@@@Z 00441690 f   Key.obj
 0001:00040700       ?Execute@XKeyScale@@UAEXPAVXSprObj@@M@Z 00441700 f   Key.obj
 0001:00040800       ?EditDialog@XKeyScale@@UAEHXZ 00441800 f   Key.obj
 0001:00040930       ??0XKeyCreateObj@@QAE@PAVXAniAction@@KPB_WW4xTYPE@XBaseLayer@@HHW4xRPT_TYPE@@MMM@Z 00441930 f   Key.obj
 0001:00040a10       ?Execute@XKeyCreateObj@@UAEXPAVXSprObj@@M@Z 00441a10 f   Key.obj
 0001:00040c10       ?Save@XKeyCreateObj@@UAEXPAVXResFile@@@Z 00441c10 f   Key.obj
 0001:00040d30       ?Load@XKeyCreateObj@@UAEXPAVXSprDat@@PAVXResFile@@@Z 00441d30 f   Key.obj
 0001:00040e30       ?EditDialog@XKeyCreateObj@@UAEHXZ 00441e30 f   Key.obj
 0001:00040f80       ?GetToolTipString@XKeyCreateObj@@UAE?AV?$CStringT@_WV?$StrTraitMFC@_WV?$ChTraitsCRT@_W@ATL@@@@@ATL@@XZ 00441f80 f   Key.obj
 0001:00041250       ?CompositLuaCodes@XKeyCreateObj@@UAEXPAV?$CStringT@_WV?$StrTraitMFC@_WV?$ChTraitsCRT@_W@ATL@@@@@ATL@@@Z 00442250 f   Key.obj
 0001:00041280       ?Save@XKeyEvent@@UAEXPAVXResFile@@@Z 00442280 f   Key.obj
 0001:00041320       ?Load@XKeyEvent@@UAEXPAVXSprDat@@PAVXResFile@@@Z 00442320 f   Key.obj
 0001:00041460       ?EditDialog@XKeyEvent@@UAEHXZ 00442460 f   Key.obj
 0001:000416a0       ?GetToolTipString@XKeyEvent@@UAE?AV?$CStringT@_WV?$StrTraitMFC@_WV?$ChTraitsCRT@_W@ATL@@@@@ATL@@XZ 004426a0 f   Key.obj
 0001:000418b0       ?Save@XKeyDummy@@UAEXPAVXResFile@@@Z 004428b0 f   Key.obj
 0001:00041930       ?Load@XKeyDummy@@UAEXPAVXSprDat@@PAVXResFile@@@Z 00442930 f   Key.obj
 0001:000419a0       ?EditDialog@XKeyDummy@@UAEHXZ 004429a0 f   Key.obj
 0001:00041a70       ?Execute@XKeySound@@UAEXPAVXSprObj@@M@Z 00442a70 f   Key.obj
 0001:00041ae0       ?Save@XKeySound@@UAEXPAVXResFile@@@Z 00442ae0 f   Key.obj
 0001:00041b50       ?Load@XKeySound@@UAEXPAVXSprDat@@PAVXResFile@@@Z 00442b50 f   Key.obj
 0001:00041bb0       ?EditDialog@XKeySound@@UAEHXZ 00442bb0 f   Key.obj
 0001:00041c60       ?Replace@?$CStringT@_WV?$StrTraitMFC@_WV?$ChTraitsCRT@_W@ATL@@@@@ATL@@QAEHPB_W0@Z 00442c60 f i Key.obj
 0001:00041ea0       ?Left@?$CStringT@_WV?$StrTraitMFC@_WV?$ChTraitsCRT@_W@ATL@@@@@ATL@@QBE?AV12@H@Z 00442ea0 f i Key.obj
 0001:00041f10       ?clear@?$_Tree@V?$_Tmap_traits@KPAVXBaseKey@@U?$less@K@std@@V?$allocator@U?$pair@$$CBKPAVXBaseKey@@@std@@@3@$0A@@std@@@std@@QAEXXZ 00442f10 f i Key.obj
 0001:00041f60       ?erase@?$_Tree@V?$_Tmap_traits@KPAVXBaseKey@@U?$less@K@std@@V?$allocator@U?$pair@$$CBKPAVXBaseKey@@@std@@@3@$0A@@std@@@std@@QAE?AV?$_Tree_iterator@V?$_Tree_val@U?$_Tree_simple_types@U?$pair@$$CBKPAVXBaseKey@@@std@@@std@@@std@@@2@V?$_Tree_const_iterator@V?$_Tree_val@U?$_Tree_simple_types@U?$pair@$$CBKPAVXBaseKey@@@std@@@std@@@std@@@2@0@Z 00442f60 f i Key.obj
 0001:00042000       ?_Erase@?$_Tree@V?$_Tmap_traits@KPAVXBaseKey@@U?$less@K@std@@V?$allocator@U?$pair@$$CBKPAVXBaseKey@@@std@@@3@$0A@@std@@@std@@IAEXPAU?$_Tree_node@U?$pair@$$CBKPAVXBaseKey@@@std@@PAX@2@@Z 00443000 f i Key.obj
 0001:00042040       ?erase@?$_Tree@V?$_Tmap_traits@KPAVXBaseKey@@U?$less@K@std@@V?$allocator@U?$pair@$$CBKPAVXBaseKey@@@std@@@3@$0A@@std@@@std@@QAE?AV?$_Tree_iterator@V?$_Tree_val@U?$_Tree_simple_types@U?$pair@$$CBKPAVXBaseKey@@@std@@@std@@@std@@@2@V?$_Tree_const_iterator@V?$_Tree_val@U?$_Tree_simple_types@U?$pair@$$CBKPAVXBaseKey@@@std@@@std@@@std@@@2@@Z 00443040 f i Key.obj
 0001:000422b0       ?_Eqrange@?$_Tree@V?$_Tmap_traits@KPAVXBaseKey@@U?$less@K@std@@V?$allocator@U?$pair@$$CBKPAVXBaseKey@@@std@@@3@$0A@@std@@@std@@IAE?AU?$pair@V?$_Tree_iterator@V?$_Tree_val@U?$_Tree_simple_types@U?$pair@$$CBKPAVXBaseKey@@@std@@@std@@@std@@@std@@V12@@2@ABK@Z 004432b0 f i Key.obj
 0001:00042330       ??$MemberCall@HH@XLua@@QAEHPBD0H@Z 00443330 f i Key.obj
 0001:00042390       ??$MemberCall@PAVXSprObj@@PBDHW4xRPT_TYPE@@KPAV1@@XLua@@QAEPAVXSprObj@@PBD00HW4xRPT_TYPE@@KPAV1@@Z 00443390 f i Key.obj
 0001:00042400       ??$member_call@HH@lua_tinker@@YAHPAUlua_State@@PBD1H@Z 00443400 f i Key.obj
 0001:000424d0       ??$member_call@PAVXSprObj@@PBDHW4xRPT_TYPE@@KPAV1@@lua_tinker@@YAPAVXSprObj@@PAUlua_State@@PBD11HW4xRPT_TYPE@@KPAV1@@Z 004434d0 f i Key.obj
 0001:00042620       ??$pop@PAVXSprObj@@@lua_tinker@@YAPAVXSprObj@@PAUlua_State@@@Z 00443620 f i Key.obj
 0001:00042690       ?memcpy_s@Checked@ATL@@YAXPAXIPBXI@Z 00443690 f i Key.obj
 0001:000426b0       ?memmove_s@Checked@ATL@@YAXPAXIPBXI@Z 004436b0 f i Key.obj
 0001:000426d0       ??HATL@@YA?AV?$CStringT@_WV?$StrTraitMFC@_WV?$ChTraitsCRT@_W@ATL@@@@@0@PB_WABV10@@Z 004436d0 f i Key.obj
 0001:000427b0       ?GetstrLabel@XBaseLayer@@QAE?AV?$CStringT@_WV?$StrTraitMFC@_WV?$ChTraitsCRT@_W@ATL@@@@@ATL@@XZ 004437b0 f i Layer.obj
 0001:00042830       ?Transform@XLayerMove@@QAEXPAM0@Z 00443830 f i Layer.obj
 0001:00042a10       ?SetfAlpha@XSprObj@@QAEXM@Z 00443a10 f i Layer.obj
 0001:00042a30       ?GetLabel@XBaseLayer@@UAE?AV?$CStringT@_WV?$StrTraitMFC@_WV?$ChTraitsCRT@_W@ATL@@@@@ATL@@XZ 00443a30 f   Layer.obj
 0001:00042b00       ?DrawLabel@XBaseLayer@@UAEXMMK@Z 00443b00 f   Layer.obj
 0001:00042d80       ?GetLabel@XLayerMove@@UAE?AV?$CStringT@_WV?$StrTraitMFC@_WV?$ChTraitsCRT@_W@ATL@@@@@ATL@@XZ 00443d80 f   Layer.obj
 0001:00042e50       ?CalcInterpolation@XLayerMove@@SAHPAMMW4xtInterpolation@XBaseLayer@@@Z 00443e50 f   Layer.obj
 0001:00042f60       ?FrameMove@XLayerMove@@UAEXMMPAVXSprObj@@@Z 00443f60 f   Layer.obj
 0001:00043dc0       ?DoCreateKeyDialog@XLayerMove@@UAEPAVXBaseKey@@PAVXAniAction@@MW4xSubType@XBaseLayer@@@Z 00444dc0 f   Layer.obj
 0001:00043fb0       ?FrameMove@XLayerImage@@UAEXMMPAVXSprObj@@@Z 00444fb0 f   Layer.obj
 0001:00043fe0       ?CalcBoundBox@XLayerImage@@UAEXMMPAVXSprObj@@@Z 00444fe0 f   Layer.obj
 0001:00044020       ?UpdateBoundBox@XLayerImage@@QAEXPAVXSprObj@@@Z 00445020 f   Layer.obj
 0001:000442e0       ?Draw@XLayerImage@@UAEXMMABUD3DXMATRIX@@@Z 004452e0 f   Layer.obj
 0001:00044540       ?GetPixel@XLayerImage@@UAEKMMMMABUD3DXMATRIX@@PAE111@Z 00445540 f   Layer.obj
 0001:000446d0       ?GetPixel@XLayerImage@@UAEKABUD3DXMATRIX@@ABUD3DXVECTOR2@@PAE222@Z 004456d0 f   Layer.obj
 0001:000448a0       ?Draw@XLayerObject@@UAEXMMABUD3DXMATRIX@@@Z 004458a0 f   Layer.obj
 0001:00044960       ?FrameMove@XLayerObject@@UAEXMMPAVXSprObj@@@Z 00445960 f   Layer.obj
 0001:000449a0       ?CalcBoundBox@XLayerObject@@UAEXMMPAVXSprObj@@@Z 004459a0 f   Layer.obj
 0001:00044d40       ?MoveFrame@XLayerObject@@UAEXM@Z 00445d40 f   Layer.obj
 0001:00044d70       ?GetPixel@XLayerObject@@UAEKMMMMABUD3DXMATRIX@@PAE111@Z 00445d70 f   Layer.obj
 0001:00044e40       ?GetPixel@XLayerObject@@UAEKABUD3DXMATRIX@@ABUD3DXVECTOR2@@PAE222@Z 00445e40 f   Layer.obj
 0001:00044ff0       ?Destroy@XLayerDummy@@AAEXXZ 00445ff0 f   Layer.obj
 0001:00045060       ?UnRegisterMI@XLayerDummy@@QAEXXZ 00446060 f   Layer.obj
 0001:000450b0       ?Draw@XLayerDummy@@UAEXMMABUD3DXMATRIX@@@Z 004460b0 f   Layer.obj
 0001:00045170       ?DoCreateKeyDialog@XLayerDummy@@UAEPAVXBaseKey@@PAVXAniAction@@MW4xSubType@XBaseLayer@@@Z 00446170 f   Layer.obj
 0001:000451b0       ?DrawLabel@XLayerSound@@UAEXMMK@Z 004461b0 f   Layer.obj
 0001:000452a0       ?DoCreateKeyDialog@XLayerSound@@UAEPAVXBaseKey@@PAVXAniAction@@MW4xSubType@XBaseLayer@@@Z 004462a0 f   Layer.obj
 0001:00045300       ?Init@XSprite@@AAEXXZ      00446300 f i SprDat.obj
 0001:00045370       ?ValueAssign@XSprite@@UAEXPBVXSurface@@@Z 00446370 f i SprDat.obj
 0001:000453a0       ?Draw@XSprite@@UAEXMM@Z    004463a0 f i SprDat.obj
 0001:00045490       ?Copy@XSprite@@UAEPAV1@H@Z 00446490 f i SprDat.obj
 0001:00045510       ??4XSprite@@QAEAAV0@ABV0@@Z 00446510 f i SprDat.obj
 0001:000455b0       ??_EXSprite@@UAEPAXI@Z     004465b0 f i * CIL library *:* CIL module *
 0001:000455b0       ??_GXSprite@@UAEPAXI@Z     004465b0 f i SprDat.obj
 0001:00045620       ?GetTypeFromLayer@XBaseKey@@SA?AW4xTYPE@1@W42XBaseLayer@@@Z 00446620 f i SprDat.obj
 0001:000456c0       ??0XBaseKey@@QAE@PAVXAniAction@@@Z 004466c0 f i SprDat.obj
 0001:00045740       ??0XKeyImage@@QAE@PAVXAniAction@@MW4xTYPE@XBaseLayer@@HPAVXSprite@@@Z 00446740 f i SprDat.obj
 0001:000457c0       ?IsUseSprite@XKeyImage@@UAEHPAVXSprite@@@Z 004467c0 f i SprDat.obj
 0001:000457e0       ?ValueAssign@XKeyImage@@UAEXPAVXBaseKey@@@Z 004467e0 f i SprDat.obj
 0001:00045850       ?Copy@XKeyImage@@UAEPAVXBaseKey@@PAVXAniAction@@@Z 00446850 f i SprDat.obj
 0001:000458a0       ?GetToolTipSize@XKeyImage@@UAEXPAM0@Z 004468a0 f i SprDat.obj
 0001:00045900       ?GetToolTipString@XKeyImage@@UAE?AV?$CStringT@_WV?$StrTraitMFC@_WV?$ChTraitsCRT@_W@ATL@@@@@ATL@@XZ 00446900 f i SprDat.obj
 0001:00045a50       ?DrawToolTip@XKeyImage@@UAEXMM@Z 00446a50 f i SprDat.obj
 0001:00045aa0       ??0XKeyPos@@QAE@PAVXAniAction@@@Z 00446aa0 f i SprDat.obj
 0001:00045b10       ??0XKeyPos@@QAE@PAVXAniAction@@W4xTYPE@XBaseKey@@MW42XBaseLayer@@HMM@Z 00446b10 f i SprDat.obj
 0001:00045bd0       ??0XKeyPos@@QAE@PAVXAniAction@@AAVXBaseKey@@AAV0@@Z 00446bd0 f i SprDat.obj
 0001:00045c70       ?ValueAssign@XKeyPos@@UAEXPAVXBaseKey@@@Z 00446c70 f i SprDat.obj
 0001:00045cf0       ?Copy@XKeyPos@@UAEPAVXBaseKey@@PAVXAniAction@@@Z 00446cf0 f i SprDat.obj
 0001:00045db0       ?GetToolTipSize@XKeyPos@@UAEXPAM0@Z 00446db0 f i SprDat.obj
 0001:00045e20       ?GetToolTipString@XKeyPos@@UAE?AV?$CStringT@_WV?$StrTraitMFC@_WV?$ChTraitsCRT@_W@ATL@@@@@ATL@@XZ 00446e20 f i SprDat.obj
 0001:000460e0       ?GetPos@XKeyPos@@UAE?AUVEC2@XE@@XZ 004470e0 f i SprDat.obj
 0001:00046100       ?SetPos@XKeyPos@@UAEXABUVEC2@XE@@@Z 00447100 f i SprDat.obj
 0001:00046120       ??4XKeyPos@@QAEAAV0@ABV0@@Z 00447120 f i SprDat.obj
 0001:000461a0       ??0XKeyEffect@@QAE@PAVXAniAction@@W4xTYPE@XBaseKey@@MW42XBaseLayer@@H@Z 004471a0 f i SprDat.obj
 0001:00046230       ??0XKeyEffect@@QAE@PAVXAniAction@@AAVXBaseKey@@AAV0@@Z 00447230 f i SprDat.obj
 0001:00046290       ?ValueAssign@XKeyEffect@@UAEXPAVXBaseKey@@@Z 00447290 f i SprDat.obj
 0001:00046360       ?Copy@XKeyEffect@@UAEPAVXBaseKey@@PAVXAniAction@@@Z 00447360 f i SprDat.obj
 0001:000463c0       ?GetToolTipSize@XKeyEffect@@UAEXPAM0@Z 004473c0 f i SprDat.obj
 0001:00046430       ?GetToolTipString@XKeyEffect@@UAE?AV?$CStringT@_WV?$StrTraitMFC@_WV?$ChTraitsCRT@_W@ATL@@@@@ATL@@XZ 00447430 f i SprDat.obj
 0001:00046610       ??0XKeyRot@@QAE@PAVXAniAction@@W4xTYPE@XBaseKey@@MW42XBaseLayer@@HM@Z 00447610 f i SprDat.obj
 0001:000466a0       ?ValueAssign@XKeyRot@@UAEXPAVXBaseKey@@@Z 004476a0 f i SprDat.obj
 0001:00046760       ?Copy@XKeyRot@@UAEPAVXBaseKey@@PAVXAniAction@@@Z 00447760 f i SprDat.obj
 0001:000467c0       ?GetToolTipSize@XKeyScale@@UAEXPAM0@Z 004477c0 f i SprDat.obj
 0001:000467c0       ?GetToolTipSize@XKeyRot@@UAEXPAM0@Z 004477c0 f i SprDat.obj
 0001:00046830       ?GetToolTipString@XKeyRot@@UAE?AV?$CStringT@_WV?$StrTraitMFC@_WV?$ChTraitsCRT@_W@ATL@@@@@ATL@@XZ 00447830 f i SprDat.obj
 0001:00046920       ??0XKeyScale@@QAE@PAVXAniAction@@W4xTYPE@XBaseKey@@MW42XBaseLayer@@HMM@Z 00447920 f i SprDat.obj
 0001:000469b0       ?ValueAssign@XKeyScale@@UAEXPAVXBaseKey@@@Z 004479b0 f i SprDat.obj
 0001:00046a80       ?Copy@XKeyScale@@UAEPAVXBaseKey@@PAVXAniAction@@@Z 00447a80 f i SprDat.obj
 0001:00046af0       ?GetToolTipString@XKeyScale@@UAE?AV?$CStringT@_WV?$StrTraitMFC@_WV?$ChTraitsCRT@_W@ATL@@@@@ATL@@XZ 00447af0 f i SprDat.obj
 0001:00046bf0       ??0XKeyCreateObj@@QAE@PAVXAniAction@@@Z 00447bf0 f i SprDat.obj
 0001:00046c50       ??0XKeyCreateObj@@QAE@PAVXAniAction@@AAVXBaseKey@@AAV0@@Z 00447c50 f i SprDat.obj
 0001:00046ce0       ??0XKeyEvent@@QAE@PAVXAniAction@@MW4xTYPE@XBaseLayer@@HW42KE@@MM@Z 00447ce0 f i SprDat.obj
 0001:00046dc0       ??0XKeyEvent@@QAE@PAVXAniAction@@MPAVXBaseLayer@@GMM@Z 00447dc0 f i SprDat.obj
 0001:00046e60       ??0XKeyEvent@@QAE@PAVXAniAction@@AAVXBaseKey@@AAV0@@Z 00447e60 f i SprDat.obj
 0001:00046f20       ??1XKeyEvent@@UAE@XZ       00447f20 f i SprDat.obj
 0001:00046fd0       ?Execute@XKeyEvent@@UAEXPAVXSprObj@@M@Z 00447fd0 f i SprDat.obj
 0001:00046ff0       ?ValueAssign@XKeyEvent@@UAEXPAVXBaseKey@@@Z 00447ff0 f i SprDat.obj
 0001:00047020       ?Copy@XKeyEvent@@UAEPAVXBaseKey@@PAVXAniAction@@@Z 00448020 f i SprDat.obj
 0001:000470e0       ?GetToolTipSize@XKeyEvent@@UAEXPAM0@Z 004480e0 f i SprDat.obj
 0001:00047150       ??_GXKeyEvent@@UAEPAXI@Z   00448150 f i SprDat.obj
 0001:00047150       ??_EXKeyEvent@@UAEPAXI@Z   00448150 f i * CIL library *:* CIL module *
 0001:00047180       ??4XKeyEvent@@QAEAAV0@ABV0@@Z 00448180 f i SprDat.obj
 0001:00047220       ??0XKeyDummy@@QAE@PAVXAniAction@@MW4xTYPE@XBaseLayer@@HH@Z 00448220 f i SprDat.obj
 0001:000472a0       ?Execute@XKeyDummy@@UAEXPAVXSprObj@@M@Z 004482a0 f i SprDat.obj
 0001:00047310       ?ValueAssign@XKeyDummy@@UAEXPAVXBaseKey@@@Z 00448310 f i SprDat.obj
 0001:00047380       ?Copy@XKeyDummy@@UAEPAVXBaseKey@@PAVXAniAction@@@Z 00448380 f i SprDat.obj
 0001:000473d0       ?GetToolTipSize@XKeyDummy@@UAEXPAM0@Z 004483d0 f i SprDat.obj
 0001:00047440       ?GetToolTipString@XKeyDummy@@UAE?AV?$CStringT@_WV?$StrTraitMFC@_WV?$ChTraitsCRT@_W@ATL@@@@@ATL@@XZ 00448440 f i SprDat.obj
 0001:000475a0       ??0XKeySound@@QAE@PAVXAniAction@@MW4xTYPE@XBaseLayer@@HK@Z 004485a0 f i SprDat.obj
 0001:00047620       ?ValueAssign@XKeySound@@UAEXPAVXBaseKey@@@Z 00448620 f i SprDat.obj
 0001:00047680       ?Copy@XKeySound@@UAEPAVXBaseKey@@PAVXAniAction@@@Z 00448680 f i SprDat.obj
 0001:000476d0       ?GetToolTipSize@XKeySound@@UAEXPAM0@Z 004486d0 f i SprDat.obj
 0001:00047730       ?GetToolTipString@XKeySound@@UAE?AV?$CStringT@_WV?$StrTraitMFC@_WV?$ChTraitsCRT@_W@ATL@@@@@ATL@@XZ 00448730 f i SprDat.obj
 0001:00047810       ?Init@XAniAction@@AAEXXZ   00448810 f i SprDat.obj
 0001:000478b0       ??0XAniAction@@QAE@PAVXSprDat@@K@Z 004488b0 f i SprDat.obj
 0001:00047a10       ??0XAniAction@@QAE@PAVXSprDat@@KPB_W@Z 00448a10 f i SprDat.obj
 0001:00047b80       ?Destroy@XAniAction@@AAEXXZ 00448b80 f   SprDat.obj
 0001:00047c10       ?Save@XAniAction@@QAEXPAVXResFile@@@Z 00448c10 f   SprDat.obj
 0001:00047e60       ?AddLayerInfo@XAniAction@@QAEPAULAYER_INFO@@W4xTYPE@XBaseLayer@@HH@Z 00448e60 f   SprDat.obj
 0001:00047f40       ?Load@XAniAction@@QAEXPAVXSprDat@@PAVXResFile@@@Z 00448f40 f   SprDat.obj
 0001:00048ef0       ?GetLayerInfo@XAniAction@@QAEPAULAYER_INFO@@W4xTYPE@XBaseLayer@@H@Z 00449ef0 f   SprDat.obj
 0001:00048f90       ?AddKey@XAniAction@@QAE?AV?$_List_iterator@V?$_List_val@U?$_List_simple_types@PAVXBaseKey@@@std@@@std@@@std@@PAVXBaseKey@@MH@Z 00449f90 f   SprDat.obj
 0001:00049140       ?AddKeyImage@XAniAction@@QAEPAVXKeyImage@@MPAVXBaseLayer@@PAVXSprite@@@Z 0044a140 f   SprDat.obj
 0001:00049210       ?AddKeyDummy@XAniAction@@QAEPAVXKeyDummy@@MPAVXBaseLayer@@H@Z 0044a210 f   SprDat.obj
 0001:000492e0       ?AddKeyPos@XAniAction@@QAEPAVXKeyPos@@MW4xTYPE@XBaseLayer@@HMM@Z 0044a2e0 f   SprDat.obj
 0001:000493c0       ?AddKeyEffect@XAniAction@@QAEPAVXKeyEffect@@MW4xTYPE@XBaseLayer@@HHKW4xDM_TYPE@@M@Z 0044a3c0 f   SprDat.obj
 0001:000494a0       ?AddKeyEventCreateObj@XAniAction@@QAEPAVXKeyEvent@@MPAVXBaseLayer@@GMM@Z 0044a4a0 f   SprDat.obj
 0001:00049570       ?FindPrevKey@XAniAction@@QAEPAVXBaseKey@@W4xTYPE@2@W4xSubType@2@MPAVXBaseLayer@@@Z 0044a570 f   SprDat.obj
 0001:000495e0       ?ExecuteKey@XAniAction@@QAEXPAVXSprObj@@AAV?$_List_iterator@V?$_List_val@U?$_List_simple_types@PAVXBaseKey@@@std@@@std@@@std@@M@Z 0044a5e0 f   SprDat.obj
 0001:00049650       ?FindKey@XAniAction@@QAEPAVXBaseKey@@PAVXBaseLayer@@W4xTYPE@2@W4xSubType@2@M@Z 0044a650 f   SprDat.obj
 0001:000496d0       ?SortKey@XAniAction@@QAEXXZ 0044a6d0 f   SprDat.obj
 0001:00049940       ?DelKey@XAniAction@@AAEXPAVXSprObj@@PAVXBaseKey@@@Z 0044a940 f   SprDat.obj
 0001:00049b40       ?GetRangeKey@XAniAction@@QAEPAVXBaseKey@@PAVXSprObj@@PAV2@1@Z 0044ab40 f   SprDat.obj
 0001:00049c00       ?DelLayerLinkKey@XAniAction@@QAEHPAVXBaseLayer@@@Z 0044ac00 f   SprDat.obj
 0001:00049c90       ?DelLayerInfo@XAniAction@@AAEPAULAYER_INFO@@PAVXBaseLayer@@H@Z 0044ac90 f   SprDat.obj
 0001:00049d20       ?InsertLayerInfo@XAniAction@@AAEXPAVXBaseLayer@@PAULAYER_INFO@@@Z 0044ad20 f   SprDat.obj
 0001:00049da0       ?CopyAction@XAniAction@@QAEXPAV1@H@Z 0044ada0 f   SprDat.obj
 0001:00049f10       ?CompositLuaCodes@XAniAction@@QAEXPADH@Z 0044af10 f   SprDat.obj
 0001:0004a0c0       ?Destroy@XSprDat@@AAEXXZ   0044b0c0 f   SprDat.obj
 0001:0004a160       ?GetSpriteIndex@XSprDat@@QAEPAVXSprite@@H@Z 0044b160 f   SprDat.obj
 0001:0004a1a0       ?GenerateActID@XSprDat@@QAEKXZ 0044b1a0 f   SprDat.obj
 0001:0004a1f0       ?GetAction@XSprDat@@QAEPAVXAniAction@@K@Z 0044b1f0 f   SprDat.obj
 0001:0004a220       ?CreateAction@XSprDat@@AAEPAVXAniAction@@PB_W@Z 0044b220 f   SprDat.obj
 0001:0004a320       ?AddSprite@XSprDat@@QAEPAVXSprite@@MMMMHHPAK@Z 0044b320 f   SprDat.obj
 0001:0004a540       ?AddAniFrame@XSprDat@@QAEPAVXSprite@@PAVXSprObj@@MMMMHHPAKH@Z 0044b540 f   SprDat.obj
 0001:0004a5e0       ?Save@XSprDat@@QAEHPB_W@Z  0044b5e0 f   SprDat.obj
 0001:0004a960       ?Load@XSprDat@@QAEHPB_WH@Z 0044b960 f   SprDat.obj
 0001:0004b060       ?DelAction@XSprDat@@AAEPAVXAniAction@@K@Z 0044c060 f   SprDat.obj
 0001:0004b0c0       ?FindUseSprite@XSprDat@@QAEPAVXBaseKey@@PAVXSprite@@@Z 0044c0c0 f   SprDat.obj
 0001:0004b140       ?IsExistSpr@XSprDat@@QAEPAVXSprite@@PAKHH@Z 0044c140 f   SprDat.obj
 0001:0004b1f0       ?IsExistSprInfo@XSprDat@@QAEPAVXSprite@@PB_WPAUtagRECT@@@Z 0044c1f0 f   SprDat.obj
 0001:0004b2b0       ?_Buyheadnode@?$_Tree_alloc@$0A@U?$_Tree_base_types@U?$pair@$$CBKPAVXBaseKey@@@std@@V?$allocator@U?$pair@$$CBKPAVXBaseKey@@@std@@@2@@std@@@std@@QAEPAU?$_Tree_node@U?$pair@$$CBKPAVXBaseKey@@@std@@PAX@2@XZ 0044c2b0 f i SprDat.obj
 0001:0004b2e0       ??$sort@P6A_NPAVXBaseKey@@0@Z@?$list@PAVXBaseKey@@V?$allocator@PAVXBaseKey@@@std@@@std@@QAEXP6A_NPAVXBaseKey@@0@Z@Z 0044c2e0 f i SprDat.obj
 0001:0004b580       ??$sort@P6A_NPAVXSprite@@0@Z@?$list@PAVXSprite@@V?$allocator@PAVXSprite@@@std@@@std@@QAEXP6A_NPAVXSprite@@0@Z@Z 0044c580 f i SprDat.obj
 0001:0004b820       ??$merge@P6A_NPAVXBaseKey@@0@Z@?$list@PAVXBaseKey@@V?$allocator@PAVXBaseKey@@@std@@@std@@QAEXAAV01@P6A_NPAVXBaseKey@@1@Z@Z 0044c820 f i SprDat.obj
 0001:0004b8a0       ??$merge@P6A_NPAVXSprite@@0@Z@?$list@PAVXSprite@@V?$allocator@PAVXSprite@@@std@@@std@@QAEXAAV01@P6A_NPAVXSprite@@1@Z@Z 0044c8a0 f i SprDat.obj
 0001:0004b923       ??_EXSprite@@WBA@AEPAXI@Z  0044c923 f i SprDat.obj
 0001:0004b930       ?Save@XSprite@@QAEXPAVXResFile@@@Z 0044c930 f   Sprite.obj
 0001:0004bae0       ?Load@XSprite@@QAEXPAVXResFile@@PAVXSprDat@@@Z 0044cae0 f   Sprite.obj
 0001:0004bd30       ?GetMatrix@XSprite@@QAEPAUD3DXMATRIX@@PAU2@MM@Z 0044cd30 f   Sprite.obj
 0001:0004beb0       ?ConvertLowReso@XSprite@@QAEHXZ 0044ceb0 f   Sprite.obj
 0001:0004c1d0       ?Init@XBaseLayer@@AAEXXZ   0044d1d0 f i SprObj.obj
 0001:0004c250       ??0XBaseLayer@@QAE@W4xTYPE@0@PB_WH@Z 0044d250 f i SprObj.obj
 0001:0004c310       ??1XLayerMove@@UAE@XZ      0044d310 f i SprObj.obj
 0001:0004c310       ??1XBaseLayer@@UAE@XZ      0044d310 f i SprObj.obj
 0001:0004c340       ?IsSameLayer@XBaseLayer@@UAEHPAV1@@Z 0044d340 f i SprObj.obj
 0001:0004c370       ?GetPixel@XBaseLayer@@UAEKMMMMABUD3DXMATRIX@@PAE111@Z 0044d370 f i SprObj.obj
 0001:0004c370       ?GetPixel@XLayerMove@@UAEKMMMMABUD3DXMATRIX@@PAE111@Z 0044d370 f i SprObj.obj
 0001:0004c380       ?GetPixel@XBaseLayer@@UAEKABUD3DXMATRIX@@ABUD3DXVECTOR2@@PAE222@Z 0044d380 f i SprObj.obj
 0001:0004c380       ?DockToFrameWindow@CBasePane@@UAEHKPBUtagRECT@@KPAV1@HH@Z 0044d380 f i uafxcw:afxbasepane.obj
 0001:0004c380       ?DockToFrameWindow@CPane@@UAEHKPBUtagRECT@@KPAVCBasePane@@HH@Z 0044d380 f i uafxcw:afxpane.obj
 0001:0004c380       ?FloatPane@CBasePane@@UAEHVCRect@@W4AFX_DOCK_METHOD@@_N@Z 0044d380 f i uafxcw:afxbasepane.obj
 0001:0004c380       ?OnNcPaint@CMFCVisualManager@@UAEHPAVCWnd@@ABVCObList@@VCRect@@@Z 0044d380 f i uafxcw:afxvisualmanager.obj
 0001:0004c390       ?OnSetData@COleDataSource@@UAEHPAUtagFORMATETC@@PAUtagSTGMEDIUM@@H@Z 0044d390 f i uafxcw:oledobj2.obj
 0001:0004c390       ?OnCompareItems@CMFCListCtrl@@UAEHJJH@Z 0044d390 f i uafxcw:afxlistctrl.obj
 0001:0004c390       ?OnDrawMenuImage@COleDocIPFrameWndEx@@UAEHPAVCDC@@PBVCMFCToolBarMenuButton@@ABVCRect@@@Z 0044d390 f i uafxcw:afxoledocipframewndex.obj
 0001:0004c390       ?DoCreateKeyDialog@XBaseLayer@@UAEPAVXBaseKey@@PAVXAniAction@@MW4xSubType@1@@Z 0044d390 f i SprObj.obj
 0001:0004c390       ?OnScrollBy@CView@@UAEHVCSize@@H@Z 0044d390 f i uafxcw:viewcore.obj
 0001:0004c390       ?OnGesturePressAndTap@CWnd@@MAEHVCPoint@@J@Z 0044d390 f i uafxcw:wincore.obj
 0001:0004c390       ?OnDrawMenuImage@COleIPFrameWndEx@@UAEHPAVCDC@@PBVCMFCToolBarMenuButton@@ABVCRect@@@Z 0044d390 f i uafxcw:afxoleipframewndex.obj
 0001:0004c390       ?OnGestureZoom@CWnd@@MAEHVCPoint@@J@Z 0044d390 f i uafxcw:wincore.obj
 0001:0004c390       ?DockPane@CBasePane@@UAEHPAV1@PBUtagRECT@@W4AFX_DOCK_METHOD@@@Z 0044d390 f i uafxcw:afxbasepane.obj
 0001:0004c390       ?OnScroll@CView@@UAEHIIH@Z 0044d390 f i uafxcw:viewcore.obj
 0001:0004c390       ?OnGetCellFont@CMFCListCtrl@@UAEPAUHFONT__@@HHK@Z 0044d390 f i uafxcw:afxshelllistctrl.obj
 0001:0004c3a0       ??_EXLayerMove@@UAEPAXI@Z  0044d3a0 f i * CIL library *:* CIL module *
 0001:0004c3a0       ??_EXBaseLayer@@UAEPAXI@Z  0044d3a0 f i * CIL library *:* CIL module *
 0001:0004c3a0       ??_EXLayerObject@@UAEPAXI@Z 0044d3a0 f i * CIL library *:* CIL module *
 0001:0004c3a0       ??_GXLayerEvent@@UAEPAXI@Z 0044d3a0 f i SprObj.obj
 0001:0004c3a0       ??_EXLayerImage@@UAEPAXI@Z 0044d3a0 f i * CIL library *:* CIL module *
 0001:0004c3a0       ??_GXBaseLayer@@UAEPAXI@Z  0044d3a0 f i SprObj.obj
 0001:0004c3a0       ??_GXLayerImage@@UAEPAXI@Z 0044d3a0 f i SprObj.obj
 0001:0004c3a0       ??_EXLayerEvent@@UAEPAXI@Z 0044d3a0 f i * CIL library *:* CIL module *
 0001:0004c3a0       ??_GXLayerSound@@UAEPAXI@Z 0044d3a0 f i SprObj.obj
 0001:0004c3a0       ??_EXLayerSound@@UAEPAXI@Z 0044d3a0 f i * CIL library *:* CIL module *
 0001:0004c3a0       ??_GXLayerObject@@UAEPAXI@Z 0044d3a0 f i SprObj.obj
 0001:0004c3a0       ??_GXLayerMove@@UAEPAXI@Z  0044d3a0 f i SprObj.obj
 0001:0004c3f0       ?Init@XLayerMove@@AAEXXZ   0044d3f0 f i SprObj.obj
 0001:0004c460       ?Clear@XLayerMove@@UAEXXZ  0044d460 f i SprObj.obj
 0001:0004c4d0       ??0XLayerImage@@QAE@XZ     0044d4d0 f i SprObj.obj
 0001:0004c5c0       ?Clear@XLayerImage@@UAEXXZ 0044d5c0 f i SprObj.obj
 0001:0004c5c0       ?Clear@XLayerObject@@UAEXXZ 0044d5c0 f i SprObj.obj
 0001:0004c630       ?Copy@XLayerImage@@UAEPAVXBaseLayer@@XZ 0044d630 f i SprObj.obj
 0001:0004c6b0       ??4XLayerMove@@QAEAAV0@ABV0@@Z 0044d6b0 f i SprObj.obj
 0001:0004c7d0       ??0XLayerObject@@QAE@XZ    0044d7d0 f i SprObj.obj
 0001:0004c8c0       ?Copy@XLayerObject@@UAEPAVXBaseLayer@@XZ 0044d8c0 f i SprObj.obj
 0001:0004c940       ??0XLayerDummy@@QAE@XZ     0044d940 f i SprObj.obj
 0001:0004ca70       ??0XLayerDummy@@QAE@H@Z    0044da70 f i SprObj.obj
 0001:0004cb30       ?Copy@XLayerDummy@@UAEPAVXBaseLayer@@XZ 0044db30 f i SprObj.obj
 0001:0004cbc0       ?OnSelected@XLayerDummy@@UAEXH@Z 0044dbc0 f i SprObj.obj
 0001:0004cc30       ??_EXLayerDummy@@UAEPAXI@Z 0044dc30 f i * CIL library *:* CIL module *
 0001:0004cc30       ??_GXLayerDummy@@UAEPAXI@Z 0044dc30 f i SprObj.obj
 0001:0004ccc0       ??0XLayerEvent@@QAE@XZ     0044dcc0 f i SprObj.obj
 0001:0004cd90       ?Copy@XLayerEvent@@UAEPAVXBaseLayer@@XZ 0044dd90 f i SprObj.obj
 0001:0004ce50       ??0XLayerSound@@QAE@XZ     0044de50 f i SprObj.obj
 0001:0004cf20       ?Copy@XLayerSound@@UAEPAVXBaseLayer@@XZ 0044df20 f i SprObj.obj
 0001:0004cfe0       ??0XSprObj@@QAE@K@Z        0044dfe0 f i SprObj.obj
 0001:0004d080       ?ClearLayer@XObjAct@@QAEXXZ 0044e080 f   SprObj.obj
 0001:0004d0b0       ?FrameMove@XObjAct@@QAEXMMPAVXSprObj@@@Z 0044e0b0 f   SprObj.obj
 0001:0004d110       ?Draw@XObjAct@@QAEXABUD3DXMATRIX@@@Z 0044e110 f   SprObj.obj
 0001:0004d160       ?DestroyLayer@XObjAct@@QAEXXZ 0044e160 f   SprObj.obj
 0001:0004d1b0       ?CreateLayer@XObjAct@@AAEPAVXBaseLayer@@KW4xTYPE@2@HMM@Z 0044e1b0 f   SprObj.obj
 0001:0004d470       ?CalcLayerY@XObjAct@@QAEXXZ 0044e470 f   SprObj.obj
 0001:0004d5c0       ?CheckPushLayer@XObjAct@@QAEPAVXBaseLayer@@MMMPAW4xSubType@2@@Z 0044e5c0 f   SprObj.obj
 0001:0004d6e0       ?DelLayer@XObjAct@@AAEXPAVXBaseLayer@@H@Z 0044e6e0 f   SprObj.obj
 0001:0004d780       ?DoDelEmptyLayer@XObjAct@@QAEXXZ 0044e780 f   SprObj.obj
 0001:0004d820       ?InsertLayer@XObjAct@@QAEXPAVXBaseLayer@@0@Z 0044e820 f   SprObj.obj
 0001:0004d950       ?GetPixel@XObjAct@@QAEKMMMMABUD3DXMATRIX@@PAE111@Z 0044e950 f   SprObj.obj
 0001:0004da20       ?GetLayerInPixel@XObjAct@@QAEPAVXBaseLayer@@ABUD3DXMATRIX@@ABUD3DXVECTOR2@@@Z 0044ea20 f   SprObj.obj
 0001:0004daa0       ?Destroy@XSprObj@@AAEXXZ   0044eaa0 f   SprObj.obj
 0001:0004db10       ?AddObjAct@XSprObj@@QAEXPAVXObjAct@@@Z 0044eb10 f   SprObj.obj
 0001:0004dbb0       ?CreateAction@XSprObj@@QAEPAVXAniAction@@PB_W@Z 0044ebb0 f   SprObj.obj
 0001:0004dc40       ?CreateAction@XSprObj@@QAEXPAVXAniAction@@@Z 0044ec40 f   SprObj.obj
 0001:0004dd20       ?SetAction@XSprObj@@QAEXKW4xRPT_TYPE@@@Z 0044ed20 f   SprObj.obj
 0001:0004de30       ?DelAction@XSprObj@@QAEPAVXObjAct@@K@Z 0044ee30 f   SprObj.obj
 0001:0004df00       ?FrameMove@XSprObj@@QAEXM@Z 0044ef00 f   SprObj.obj
 0001:0004e0a0       ?MoveFrame@XSprObj@@QAEXM@Z 0044f0a0 f   SprObj.obj
 0001:0004e1d0       ?Draw@XSprObj@@QAEXABUD3DXMATRIX@@@Z 0044f1d0 f   SprObj.obj
 0001:0004e3f0       ?GetPixel@XSprObj@@QAEKMMMMABUD3DXMATRIX@@PAE111@Z 0044f3f0 f   SprObj.obj
 0001:0004e4c0       ?GetMatrix@XSprObj@@QAEPAUD3DXMATRIX@@PAU2@MM@Z 0044f4c0 f   SprObj.obj
 0001:0004e640       ?Save@XSprObj@@QAEHPB_W@Z  0044f640 f   SprObj.obj
 0001:0004e760       ?Load@XSprObj@@QAEHPB_W@Z  0044f760 f   SprObj.obj
 0001:0004e9c0       ?DestroySprObj@XSprObj@@QAEXK@Z 0044f9c0 f   SprObj.obj
 0001:0004ea30       ?AddSprObj@XSprObj@@QAEPAV1@PB_WKW4xRPT_TYPE@@KK@Z 0044fa30 f   SprObj.obj
 0001:0004ecc0       ?JumpKeyPos@XSprObj@@QAEXPAVXAniAction@@M@Z 0044fcc0 f   SprObj.obj
 0001:0004ed20       ?UpdateMatrix@XSprObj@@QAEXXZ 0044fd20 f   SprObj.obj
 0001:0004ef00       ?CalcBoundBox@XSprObj@@QAEXXZ 0044ff00 f   SprObj.obj
 0001:0004f090       ??$sort@P6A_NPAVXBaseLayer@@0@Z@?$list@PAVXBaseLayer@@V?$allocator@PAVXBaseLayer@@@std@@@std@@QAEXP6A_NPAVXBaseLayer@@0@Z@Z 00450090 f i SprObj.obj
 0001:0004f330       ??$merge@P6A_NPAVXBaseLayer@@0@Z@?$list@PAVXBaseLayer@@V?$allocator@PAVXBaseLayer@@@std@@@std@@QAEXAAV01@P6A_NPAVXBaseLayer@@1@Z@Z 00450330 f i SprObj.obj
 0001:0004f3b0       ?invoke@?$functor@HPAUlua_State@@XXXXXX@lua_tinker@@SAHPAUlua_State@@@Z 004503b0 f i XLuaSprObj.obj
 0001:0004f3d0       ??0XSprObj@@QAE@PBD@Z      004503d0 f i XLuaSprObj.obj
 0001:0004f4a0       ?LuaSetRotate@XSprObj@@QAEXM@Z 004504a0 f i XLuaSprObj.obj
 0001:0004f4c0       ?LuaSetScale@XSprObj@@QAEXM@Z 004504c0 f i XLuaSprObj.obj
 0001:0004f4e0       ?LuaSetScaleXY@XSprObj@@QAEXMM@Z 004504e0 f i XLuaSprObj.obj
 0001:0004f500       ?LuaAddSprObj@XSprObj@@QAEPAV1@KKPBDKW4xRPT_TYPE@@@Z 00450500 f i XLuaSprObj.obj
 0001:0004f580       ?Console@LUA@@YAHPAUlua_State@@@Z 00450580 f   XLuaSprObj.obj
 0001:0004f660       ?RegisterLua@XLuaSprObj@@UAEXXZ 00450660 f   XLuaSprObj.obj
 0001:0004f770       ??$class_add@VXSprObj@@@lua_tinker@@YAXPAUlua_State@@PBD@Z 00450770 f i XLuaSprObj.obj
 0001:0004f840       ??$constructor@VXSprObj@@PBD@lua_tinker@@YAHPAUlua_State@@@Z 00450840 f i XLuaSprObj.obj
 0001:0004f900       ??$class_con@VXSprObj@@P6AHPAUlua_State@@@Z@lua_tinker@@YAXPAUlua_State@@P6AH0@Z@Z 00450900 f i XLuaSprObj.obj
 0001:0004f980       ??$class_def@VXSprObj@@P81@AEXKW4xRPT_TYPE@@@Z@lua_tinker@@YAXPAUlua_State@@PBDP8XSprObj@@AEXKW4xRPT_TYPE@@@Z@Z 00450980 f i XLuaSprObj.obj
 0001:0004fa00       ??$class_def@VXSprObj@@P81@AEXM@Z@lua_tinker@@YAXPAUlua_State@@PBDP8XSprObj@@AEXM@Z@Z 00450a00 f i XLuaSprObj.obj
 0001:0004fa80       ??$class_def@VXSprObj@@P81@AEXMM@Z@lua_tinker@@YAXPAUlua_State@@PBDP8XSprObj@@AEXMM@Z@Z 00450a80 f i XLuaSprObj.obj
 0001:0004fb00       ??$class_def@VXSprObj@@P81@AEPAV1@KKPBDKW4xRPT_TYPE@@@Z@lua_tinker@@YAXPAUlua_State@@PBDP8XSprObj@@AEPAV2@KK1KW4xRPT_TYPE@@@Z@Z 00450b00 f i XLuaSprObj.obj
 0001:0004fb80       ??_E?$val2user@VXSprObj@@@lua_tinker@@UAEPAXI@Z 00450b80 f i * CIL library *:* CIL module *
 0001:0004fb80       ??_G?$val2user@VXSprObj@@@lua_tinker@@UAEPAXI@Z 00450b80 f i XLuaSprObj.obj
 0001:0004fbf0       ??$destroyer@VXSprObj@@@lua_tinker@@YAHPAUlua_State@@@Z 00450bf0 f i XLuaSprObj.obj
 0001:0004fc10       ?invoke@?$mem_functor@XVXSprObj@@KW4xRPT_TYPE@@XXXXX@lua_tinker@@SAHPAUlua_State@@@Z 00450c10 f i XLuaSprObj.obj
 0001:0004fcd0       ?invoke@?$mem_functor@XVXSprObj@@MXXXXXX@lua_tinker@@SAHPAUlua_State@@@Z 00450cd0 f i XLuaSprObj.obj
 0001:0004fd60       ?invoke@?$mem_functor@XVXSprObj@@MMXXXXX@lua_tinker@@SAHPAUlua_State@@@Z 00450d60 f i XLuaSprObj.obj
 0001:0004fe00       ?invoke@?$mem_functor@PAVXSprObj@@V1@KKPBDKW4xRPT_TYPE@@XX@lua_tinker@@SAHPAUlua_State@@@Z 00450e00 f i XLuaSprObj.obj
 0001:0004ff70       ?AddDummyLayer@XObjActTool@@UAEPAVXLayerDummy@@XZ 00450f70 f   XSprObjTool.obj
 0001:0004ffe0       ?DrawLayerLabel@XObjActTool@@UAEXMMPAVXBaseLayer@@@Z 00450fe0 f   XSprObjTool.obj
 0001:000501c8       ?AfxNewHandler@@YAHI@Z     004511c8 f   uafxcw:afxmem.obj
 0001:000501cd       ??2@YAPAXI@Z               004511cd f   uafxcw:afxmem.obj
 0001:000501fa       ??_V@YAXPAX@Z              004511fa f   uafxcw:afxmem.obj
 0001:000501fa       ??3@YAXPAX@Z               004511fa f   uafxcw:afxmem.obj
 0001:000501ff       ??_U@YAPAXI@Z              004511ff f   uafxcw:afxmem.obj
 0001:00050208       ?AfxSetNewHandler@@YGP6AHI@ZP6AHI@Z@Z 00451208 f   uafxcw:afxmem.obj
 0001:0005021d       ?AfxMessageBox@@YGHIII@Z   0045121d f   uafxcw:appui1.obj
 0001:0005027f       ?AfxMessageBox@@YGHPB_WII@Z 0045127f f   uafxcw:appui1.obj
 0001:000502ae       ?DoEnableModeless@CWinApp@@SAXH@Z 004512ae f   uafxcw:appui1.obj
 0001:000502e0       ?DoMessageBox@CWinApp@@UAEHPB_WII@Z 004512e0 f   uafxcw:appui1.obj
 0001:000502f9       ?EnableModeless@CWinApp@@QAEXH@Z 004512f9 f   uafxcw:appui1.obj
 0001:00050309       ?GetRoutingFrame_@CCmdTarget@@KGPAVCFrameWnd@@XZ 00451309 f   uafxcw:appui1.obj
 0001:00050315       ?GetSafeOwner_@CWnd@@SGPAUHWND__@@PAU2@PAPAU2@@Z 00451315 f   uafxcw:appui1.obj
 0001:000503b1       ?ShowAppMessageBox@CWinApp@@SAHPAV1@PB_WII@Z 004513b1 f   uafxcw:appui1.obj
 0001:0005051d       ??0CPushRoutingView@@QAE@PAVCView@@@Z 0045151d f i uafxcw:viewcore.obj
 0001:0005055d       ??0CView@@IAE@XZ           0045155d f   uafxcw:viewcore.obj
 0001:00050571       ??1CPushRoutingView@@QAE@XZ 00451571 f i uafxcw:viewcore.obj
 0001:0005058d       ??1CView@@UAE@XZ           0045158d f   uafxcw:viewcore.obj
 0001:0005069c       ??_9CView@@$BBII@AE        0045169c f i uafxcw:viewcore.obj
 0001:000506a4       ?CalcWindowRect@CView@@UAEXPAUtagRECT@@I@Z 004516a4 f   uafxcw:viewcore.obj
 0001:00050718       ?GetParentSplitter@CView@@SGPAVCSplitterWnd@@PBVCWnd@@H@Z 00451718 f   uafxcw:viewcore.obj
 0001:00050781       ?GetScrollBarCtrl@CView@@UBEPAVCScrollBar@@H@Z 00451781 f   uafxcw:viewcore.obj
 0001:000507f9       ?GetThisMessageMap@CView@@KGPBUAFX_MSGMAP@@XZ 004517f9 f   uafxcw:viewcore.obj
 0001:000507ff       ?OnActivateView@CView@@MAEXHPAV1@0@Z 004517ff f   uafxcw:viewcore.obj
 0001:00050820       ?OnCmdMsg@CView@@UAEHIHPAXPAUAFX_CMDHANDLERINFO@@@Z 00451820 f   uafxcw:viewcore.obj
 0001:00050887       ?OnCreate@CView@@IAEHPAUtagCREATESTRUCTW@@@Z 00451887 f   uafxcw:viewcore.obj
 0001:000508b8       ?OnDestroy@CView@@IAEXXZ   004518b8 f   uafxcw:viewcore.obj
 0001:000508e6       ?OnDragScroll@CView@@UAEKKVCPoint@@@Z 004518e6 f   uafxcw:viewcore.obj
 0001:000508ee       ?OnDropEx@CView@@UAEKPAVCOleDataObject@@KKVCPoint@@@Z 004518ee f   uafxcw:viewcore.obj
 0001:000508f4       ?OnEndPrintPreview@CView@@MAEXPAVCDC@@PAUCPrintInfo@@UtagPOINT@@PAVCPreviewView@@@Z 004518f4 f   uafxcw:viewcore.obj
 0001:000509ad       ?OnInitialUpdate@CView@@UAEXXZ 004519ad f   uafxcw:viewcore.obj
 0001:000509bb       ?OnMouseActivate@CView@@IAEHPAVCWnd@@II@Z 004519bb f   uafxcw:viewcore.obj
 0001:00050a2f       ?OnNextPaneCmd@CView@@IAEHI@Z 00451a2f f   uafxcw:viewcore.obj
 0001:00050a5c       ?OnPaint@CView@@IAEXXZ     00451a5c f   uafxcw:viewcore.obj
 0001:00050aa7       ?OnPrepareDC@CView@@UAEXPAVCDC@@PAUCPrintInfo@@@Z 00451aa7 f   uafxcw:viewcore.obj
 0001:00050ad7       ?OnPrint@CView@@MAEXPAVCDC@@PAUCPrintInfo@@@Z 00451ad7 f   uafxcw:viewcore.obj
 0001:00050ae9       ?OnPrintClient@CView@@IAEJPAVCDC@@I@Z 00451ae9 f   uafxcw:viewcore.obj
 0001:00050b2b       ?OnSplitCmd@CView@@IAEHI@Z 00451b2b f   uafxcw:viewcore.obj
 0001:00050b47       ?OnUpdate@CView@@MAEXPAV1@JPAVCObject@@@Z 00451b47 f   uafxcw:viewcore.obj
 0001:00050b57       ?OnUpdateNextPaneMenu@CView@@IAEXPAVCCmdUI@@@Z 00451b57 f   uafxcw:viewcore.obj
 0001:00050b95       ?OnUpdateSplitCmd@CView@@IAEXPAVCCmdUI@@@Z 00451b95 f   uafxcw:viewcore.obj
 0001:00050bca       ?Pop@CPushRoutingView@@QAEXXZ 00451bca f i uafxcw:viewcore.obj
 0001:00050bea       ?PostNcDestroy@CView@@MAEXXZ 00451bea f   uafxcw:viewcore.obj
 0001:00050bea       ?PostNcDestroy@CFrameWnd@@MAEXXZ 00451bea f   uafxcw:winfrm.obj
 0001:00050bf6       ?PreCreateWindow@CView@@MAEHAAUtagCREATESTRUCTW@@@Z 00451bf6 f   uafxcw:viewcore.obj
 0001:00050c32       ?CreateObject@CWnd@@SGPAVCObject@@XZ 00451c32 f   uafxcw:wincore.obj
 0001:00050c5f       ??$AccessibilityCreateInstance@VCAccessibleProxy@ATL@@@@YGJPAPAV?$CComObjectNoLock@VCAccessibleProxy@ATL@@@ATL@@@Z 00451c5f f i uafxcw:wincore.obj
 0001:00050ce7       ??0CCriticalSection@@QAE@XZ 00451ce7 f i uafxcw:wincore.obj
 0001:00050d22       ??0CTestCmdUI@@QAE@XZ      00451d22 f   uafxcw:wincore.obj
 0001:00050d3b       ??0CWnd@@AAE@PAUHWND__@@@Z 00451d3b f   uafxcw:wincore.obj
 0001:00050da4       ??0CWnd@@QAE@XZ            00451da4 f   uafxcw:wincore.obj
 0001:00050e07       ??1?$CComObjectNoLock@VCAccessibleProxy@ATL@@@ATL@@UAE@XZ 00451e07 f i uafxcw:wincore.obj
 0001:00050e32       ??1CCriticalSection@@UAE@XZ 00451e32 f i uafxcw:wincore.obj
 0001:00050e4d       ??1CInternalGlobalLock@@QAE@XZ 00451e4d f i uafxcw:wincore.obj
 0001:00050e52       ??1CWnd@@UAE@XZ            00451e52 f   uafxcw:wincore.obj
 0001:00050ee4       ??1_AFX_HTMLHELP_STATE@@UAE@XZ 00451ee4 f   uafxcw:wincore.obj
 0001:00050efa       ??3CObject@@SGXPAX0@Z      00451efa f i uafxcw:wincore.obj
 0001:00050f0a       ??_G?$CComObjectNoLock@VCAccessibleProxy@ATL@@@ATL@@UAEPAXI@Z 00451f0a f i uafxcw:wincore.obj
 0001:00050f0a       ??_E?$CComObjectNoLock@VCAccessibleProxy@ATL@@@ATL@@UAEPAXI@Z 00451f0a f i uafxcw:wincore.obj
 0001:00050f29       ??_E?$CMap@PAVCWnd@@PAV1@PAVCHwndRenderTarget@@PAV2@@@UAEPAXI@Z 00451f29 f i uafxcw:wincore.obj
 0001:00050f29       ??_G?$CMap@PAVCWnd@@PAV1@PAVCHwndRenderTarget@@PAV2@@@UAEPAXI@Z 00451f29 f i uafxcw:wincore.obj
 0001:00050f4e       ??_GCCriticalSection@@UAEPAXI@Z 00451f4e f i uafxcw:wincore.obj
 0001:00050f4e       ??_ECCriticalSection@@UAEPAXI@Z 00451f4e f i uafxcw:wincore.obj
 0001:00050f6d       ??_ECWnd@@UAEPAXI@Z        00451f6d f i uafxcw:wincore.obj
 0001:00050f6d       ??_GCWnd@@UAEPAXI@Z        00451f6d f i uafxcw:wincore.obj
 0001:00050f8c       ??_E_AFX_HTMLHELP_STATE@@UAEPAXI@Z 00451f8c f i uafxcw:wincore.obj
 0001:00050f8c       ??_G_AFX_HTMLHELP_STATE@@UAEPAXI@Z 00451f8c f i uafxcw:wincore.obj
 0001:00050faa       ?ActivateTopParent@CWnd@@QAEXXZ 00451faa f   uafxcw:wincore.obj
 0001:00050ff1       ?AddRef@?$CComObjectNoLock@VCAccessibleProxy@ATL@@@ATL@@UAGKXZ 00451ff1 f i uafxcw:wincore.obj
 0001:00051001       ?AddRef@?$CComObjectNoLock@VCAccessibleProxy@ATL@@@ATL@@W3AGKXZ 00452001 f i uafxcw:wincore.obj
 0001:0005100b       ?AddRef@?$CComObjectNoLock@VCAccessibleProxy@ATL@@@ATL@@WBA@AGKXZ 0045200b f i uafxcw:wincore.obj
 0001:00051015       ?AddRef@XAccessible@CWnd@@UAGKXZ 00452015 f   uafxcw:wincore.obj
 0001:00051053       ?AddRef@XAccessibleServer@CWnd@@UAGKXZ 00452053 f   uafxcw:wincore.obj
 0001:00051091       ?AfxCallWndProc@@YGJPAVCWnd@@PAUHWND__@@IIJ@Z 00452091 f   uafxcw:wincore.obj
 0001:00051197       ?AfxEndDeferRegisterClass@@YGHJ@Z 00452197 f   uafxcw:wincore.obj
 0001:00051486       ?AfxFindMessageEntry@@YGPBUAFX_MSGMAP_ENTRY@@PBU1@III@Z 00452486 f   uafxcw:wincore.obj
 0001:000514c6       ?AfxGetParentOwner@@YGPAUHWND__@@PAU1@@Z 004524c6 f   uafxcw:wincore.obj
 0001:0005150d       ?AfxHookWindowCreate@@YGXPAVCWnd@@@Z 0045250d f   uafxcw:wincore.obj
 0001:00051566       ?AfxHtmlHelp@@YGPAUHWND__@@PAU1@PB_WIK@Z 00452566 f   uafxcw:wincore.obj
 0001:000515e5       ?AfxInitNetworkAddressControl@@YGHXZ 004525e5 f   uafxcw:wincore.obj
 0001:00051611       ?AfxInvariantStrICmp@@YAHPB_W0@Z 00452611 f i uafxcw:wincore.obj
 0001:00051632       ?AfxRegisterClass@@YGHPAUtagWNDCLASSW@@@Z 00452632 f   uafxcw:wincore.obj
 0001:000516bc       ?AfxRegisterWndClass@@YGPB_WIPAUHICON__@@PAUHBRUSH__@@0@Z 004526bc f   uafxcw:wincore.obj
 0001:000517c2       ?AfxRepositionWindow@@YGXPAUAFX_SIZEPARENTPARAMS@@PAUHWND__@@PBUtagRECT@@@Z 004527c2 f   uafxcw:wincore.obj
 0001:00051875       ?AfxUnhookWindowCreate@@YGHXZ 00452875 f   uafxcw:wincore.obj
 0001:000518c2       ?AfxWndProc@@YGJPAUHWND__@@IIJ@Z 004528c2 f   uafxcw:wincore.obj
 0001:0005190d       ?AllocSysString@?$CStringT@_WV?$StrTraitMFC@_WV?$ChTraitsCRT@_W@ATL@@@@@ATL@@QBEPA_WXZ 0045290d f i uafxcw:wincore.obj
 0001:00051922       ?AppendChar@?$CSimpleStringT@_W$0A@@ATL@@QAEX_W@Z 00452922 f i uafxcw:wincore.obj
 0001:0005194f       ?AtlCrtErrorCheck@ATL@@YAHH@Z 0045294f f i uafxcw:wincore.obj
 0001:0005198a       ?AtlIAccessibleGetIDsOfNamesHelper@ATL@@YGJABU_GUID@@PAPA_WIKPAJ@Z 0045298a f i uafxcw:wincore.obj
 0001:000519fc       ?AtlIAccessibleInvokeHelper@ATL@@YGJPAUIAccessible@@JABU_GUID@@KGPAUtagDISPPARAMS@@PAUtagVARIANT@@PAUtagEXCEPINFO@@PAI@Z 004529fc f i uafxcw:wincore.obj
 0001:00052014       ?AtlInternalQueryInterface@ATL@@YGJPAXPBU_ATL_INTMAP_ENTRY@1@ABU_GUID@@PAPAX@Z 00453014 f i uafxcw:wincore.obj
 0001:000520b4       ?AtlLoadSystemLibraryUsingFullPath@ATL@@YAPAUHINSTANCE__@@PB_W@Z 004530b4 f i uafxcw:wincore.obj
 0001:0005219e       ?Attach@CWnd@@QAEHPAUHWND__@@@Z 0045319e f   uafxcw:wincore.obj
 0001:000521da       ?CalcWindowRect@CWnd@@UAEXPAUtagRECT@@I@Z 004531da f   uafxcw:wincore.obj
 0001:00052209       ?CancelToolTips@CWnd@@SGXH@Z 00453209 f   uafxcw:wincore.obj
 0001:0005225e       ?CenterWindow@CWnd@@QAEXPAV1@@Z 0045325e f   uafxcw:wincore.obj
 0001:0005245b       ?Construct@?$ConstructDestruct@VCWnd@@@@SGXPAVCObject@@@Z 0045345b f i uafxcw:wincore.obj
 0001:00052482       ?ContinueModal@CWnd@@UAEHXZ 00453482 f   uafxcw:wincore.obj
 0001:00052489       ?Create@CWnd@@UAEHPB_W0KABUtagRECT@@PAV1@IPAUCCreateContext@@@Z 00453489 f   uafxcw:wincore.obj
 0001:000524d2       ?CreateAccessibleProxy@CWnd@@UAEJIJPAJ@Z 004534d2 f   uafxcw:wincore.obj
 0001:00052590       ?CreateControlContainer@CWnd@@MAEHPAPAVCOleControlContainer@@@Z 00453590 f   uafxcw:wincore.obj
 0001:000525aa       ?CreateControlSite@CWnd@@MAEHPAVCOleControlContainer@@PAPAVCOleControlSite@@IABU_GUID@@@Z 004535aa f   uafxcw:wincore.obj
 0001:000525c4       ?CreateEx@CWnd@@UAEHKPB_W0KABUtagRECT@@PAV1@IPAX@Z 004535c4 f   uafxcw:wincore.obj
 0001:00052608       ?CreateEx@CWnd@@UAEHKPB_W0KHHHHPAUHWND__@@PAUHMENU__@@PAX@Z 00453608 f   uafxcw:wincore.obj
 0001:000526e9       ?CreateObject@?$CProcessLocal@V_AFX_HTMLHELP_STATE@@@@SGPAVCNoTrackObject@@XZ 004536e9 f i uafxcw:wincore.obj
 0001:000526fe       ?CreateObject@?$CThreadLocal@V_AFX_THREAD_STATE@@@@SGPAVCNoTrackObject@@XZ 004536fe f i uafxcw:wincore.obj
 0001:0005272d       ?DefWindowProcW@CWnd@@MAEJIIJ@Z 0045372d f   uafxcw:wincore.obj
 0001:00052778       ?Default@CWnd@@IAEJXZ      00453778 f   uafxcw:wincore.obj
 0001:000527ab       ?DestroyWindow@CWnd@@UAEHXZ 004537ab f   uafxcw:wincore.obj
 0001:00052804       ?Detach@CWnd@@QAEPAUHWND__@@XZ 00453804 f   uafxcw:wincore.obj
 0001:00052832       ?DoD2DPaint@CWnd@@IAEHXZ   00453832 f   uafxcw:wincore.obj
 0001:000528cd       ?Enable@CTestCmdUI@@UAEXH@Z 004538cd f   uafxcw:wincore.obj
 0001:000528cd       ?Enable@CMFCColorBarCmdUI@@UAEXH@Z 004538cd f   uafxcw:afxcolorbar.obj
 0001:000528e1       ?EnableScrollBarCtrl@CWnd@@QAEXHH@Z 004538e1 f   uafxcw:wincore.obj
 0001:00052925       ?EndModalLoop@CWnd@@UAEXH@Z 00453925 f   uafxcw:wincore.obj
 0001:0005294d       ?EnsureStdObj@CWnd@@UAEJXZ 0045394d f   uafxcw:wincore.obj
 0001:0005296c       ?ExecuteDlgInit@CWnd@@QAEHPB_W@Z 0045396c f   uafxcw:wincore.obj
 0001:000529d6       ?FromHandle@CWnd@@SGPAV1@PAUHWND__@@@Z 004539d6 f   uafxcw:wincore.obj
 0001:00052a00       ?FromHandlePermanent@CWnd@@SGPAV1@PAUHWND__@@@Z 00453a00 f   uafxcw:wincore.obj
 0001:00052a24       ?GetAccessibilityHitTest@CWnd@@QAEJJJPAUtagVARIANT@@@Z 00453a24 f   uafxcw:wincore.obj
 0001:00052ac7       ?GetAccessibilityLocation@CWnd@@QAEJUtagVARIANT@@PAJ111@Z 00453ac7 f   uafxcw:wincore.obj
 0001:00052bc3       ?GetAccessibleChild@CWnd@@QAEJUtagVARIANT@@PAPAUIDispatch@@@Z 00453bc3 f   uafxcw:wincore.obj
 0001:00052c34       ?GetAccessibleChildCount@CWnd@@QAEJXZ 00453c34 f   uafxcw:wincore.obj
 0001:00052c4b       ?GetAccessibleName@CWnd@@QAEJUtagVARIANT@@PAPA_W@Z 00453c4b f   uafxcw:wincore.obj
 0001:00052d44       ?GetBufferSetLength@?$CSimpleStringT@_W$0A@@ATL@@QAEPA_WH@Z 00453d44 f i uafxcw:wincore.obj
 0001:00052d67       ?GetControlContainer@CWnd@@QAEPAVCOleControlContainer@@XZ 00453d67 f   uafxcw:wincore.obj
 0001:00052d6b       ?GetCurrentMessage@CWnd@@KGPBUtagMSG@@XZ 00453d6b f   uafxcw:wincore.obj
 0001:00052da8       ?GetDescendantWindow@CWnd@@SGPAV1@PAUHWND__@@HH@Z 00453da8 f   uafxcw:wincore.obj
 0001:00052e1f       ?GetDlgItemTextW@CWnd@@QBEHHAAV?$CStringT@_WV?$StrTraitMFC@_WV?$ChTraitsCRT@_W@ATL@@@@@ATL@@@Z 00453e1f f   uafxcw:wincore.obj
 0001:00052e91       ?GetEnumVariant@XAccessibleServer@CWnd@@UAGJPAPAUIEnumVARIANT@@@Z 00453e91 f   uafxcw:wincore.obj
 0001:00052eae       ?GetHWND@XAccessibleServer@CWnd@@UAGJPAPAUHWND__@@@Z 00453eae f   uafxcw:wincore.obj
 0001:00052ee4       ?GetIDsOfNames@?$IAccessibleProxyImpl@VCAccessibleProxy@ATL@@@ATL@@UAGJABU_GUID@@PAPA_WIKPAJ@Z 00453ee4 f i uafxcw:wincore.obj
 0001:00052f11       ?GetIDsOfNames@XAccessible@CWnd@@UAGJABU_GUID@@PAPA_WIKPAJ@Z 00453f11 f   uafxcw:wincore.obj
 0001:00052f2c       ?GetInterfaceMap@CWnd@@MBEPBUAFX_INTERFACEMAP@@XZ 00453f2c f   uafxcw:wincore.obj
 0001:00052f32       ?GetMenu@CWnd@@UBEPAVCMenu@@XZ 00453f32 f   uafxcw:wincore.obj
 0001:00052f42       ?GetThisMessageMap@CWnd@@KGPBUAFX_MSGMAP@@XZ 00453f42 f   uafxcw:wincore.obj
 0001:00052f42       ?GetMessageMap@CWnd@@MBEPBUAFX_MSGMAP@@XZ 00453f42 f   uafxcw:wincore.obj
 0001:00052f48       ?GetNext@?$_CTypedPtrList@VCPtrList@@PAUCOleControlSiteOrWnd@@@@QAEAAPAUCOleControlSiteOrWnd@@AAPAU__POSITION@@@Z 00453f48 f i uafxcw:wincore.obj
 0001:00052f51       ?GetOwner@CWnd@@QBEPAV1@XZ 00453f51 f i uafxcw:wincore.obj
 0001:00052f6c       ?GetParentFrame@CWnd@@QBEPAVCFrameWnd@@XZ 00453f6c f   uafxcw:wincore.obj
 0001:00052fa7       ?GetParentOwner@CWnd@@QBEPAV1@XZ 00453fa7 f   uafxcw:wincore.obj
 0001:00052feb       ?GetRuntimeClass@CWnd@@UBEPAUCRuntimeClass@@XZ 00453feb f   uafxcw:wincore.obj
 0001:00052ff1       ?GetSafeOwner@CWnd@@SGPAV1@PAV1@PAPAUHWND__@@@Z 00453ff1 f   uafxcw:wincore.obj
 0001:00053011       ?GetScrollInfo@CWnd@@QAEHHPAUtagSCROLLINFO@@I@Z 00454011 f   uafxcw:wincore.obj
 0001:0005304f       ?GetScrollLimit@CWnd@@QAEHH@Z 0045404f f   uafxcw:wincore.obj
 0001:000530ac       ?GetScrollPos@CWnd@@QBEHH@Z 004540ac f   uafxcw:wincore.obj
 0001:000530d6       ?GetScrollRange@CWnd@@QBEXHPAH0@Z 004540d6 f   uafxcw:wincore.obj
 0001:00053106       ?GetSuperWndProcAddr@CWnd@@MAEPAP6GJPAUHWND__@@IIJ@ZXZ 00454106 f   uafxcw:wincore.obj
 0001:0005310a       ?GetTopLevelFrame@CWnd@@QBEPAVCFrameWnd@@XZ 0045410a f   uafxcw:wincore.obj
 0001:00053149       ?GetTopLevelParent@CWnd@@QBEPAV1@XZ 00454149 f   uafxcw:wincore.obj
 0001:00053170       ?GetTypeInfo@?$IAccessibleProxyImpl@VCAccessibleProxy@ATL@@@ATL@@UAGJIKPAPAUITypeInfo@@@Z 00454170 f i uafxcw:wincore.obj
 0001:00053197       ?GetTypeInfoCount@?$IAccessibleProxyImpl@VCAccessibleProxy@ATL@@@ATL@@UAGJPAI@Z 00454197 f i uafxcw:wincore.obj
 0001:000531b8       ?GetTypeInfoCount@XAccessible@CWnd@@UAGJPAI@Z 004541b8 f   uafxcw:wincore.obj
 0001:000531d5       ?GetWindowLessChildCount@CWnd@@QAEJXZ 004541d5 f   uafxcw:wincore.obj
 0001:0005321d       ?GetWindowPlacement@CWnd@@QBEHPAUtagWINDOWPLACEMENT@@@Z 0045421d f   uafxcw:wincore.obj
 0001:00053237       ?GetWindowTextW@CWnd@@QBEXAAV?$CStringT@_WV?$StrTraitMFC@_WV?$ChTraitsCRT@_W@ATL@@@@@ATL@@@Z 00454237 f   uafxcw:wincore.obj
 0001:0005327d       ?GetWindowedChildCount@CWnd@@QAEJXZ 0045427d f   uafxcw:wincore.obj
 0001:000532ad       ?GrayCtlColor@CWnd@@SGHPAUHDC__@@PAUHWND__@@IPAUHBRUSH__@@K@Z 004542ad f   uafxcw:wincore.obj
 0001:00053339       ?HandleFloatingSysCommand@CWnd@@QAEHIJ@Z 00454339 f   uafxcw:wincore.obj
 0001:000533ef       ?HtmlHelpW@CWnd@@UAEXKI@Z  004543ef f   uafxcw:wincore.obj
 0001:00053463       ?Init@CCriticalSection@@AAEJXZ 00454463 f i uafxcw:wincore.obj
 0001:00053489       ?InlineIsEqualUnknown@ATL@@YGHABU_GUID@@@Z 00454489 f i uafxcw:wincore.obj
 0001:000534b1       ?Invoke@?$IAccessibleProxyImpl@VCAccessibleProxy@ATL@@@ATL@@UAGJJABU_GUID@@KGPAUtagDISPPARAMS@@PAUtagVARIANT@@PAUtagEXCEPINFO@@PAI@Z 004544b1 f i uafxcw:wincore.obj
 0001:000534e7       ?Invoke@XAccessible@CWnd@@UAGJJABU_GUID@@KGPAUtagDISPPARAMS@@PAUtagVARIANT@@PAUtagEXCEPINFO@@PAI@Z 004544e7 f   uafxcw:wincore.obj
 0001:0005353b       ?IsTopParentActive@CWnd@@QBEHXZ 0045453b f   uafxcw:wincore.obj
 0001:00053577       ?IsTracking@CFrameWnd@@QAEHXZ 00454577 f   uafxcw:wincore.obj
 0001:00053598       ?Lock@CCriticalSection@@UAEHK@Z 00454598 f i uafxcw:wincore.obj
 0001:000535a8       ?Lock@CInternalGlobalLock@@QAEXH@Z 004545a8 f i uafxcw:wincore.obj
 0001:000535d7       ?LockRenderTarget@CWnd@@QAEPAVCHwndRenderTarget@@XZ 004545d7 f   uafxcw:wincore.obj
 0001:00053608       ?MessageBoxW@CWnd@@QAEHPB_W0I@Z 00454608 f   uafxcw:wincore.obj
 0001:0005363b       ?ModifyStyle@CWnd@@SGHPAUHWND__@@KKI@Z 0045463b f   uafxcw:wincore.obj
 0001:00053655       ?ModifyStyleEx@CWnd@@SGHPAUHWND__@@KKI@Z 00454655 f   uafxcw:wincore.obj
 0001:0005366f       ?OnActivateTopLevel@CWnd@@IAEJIJ@Z 0045466f f   uafxcw:wincore.obj
 0001:0005369b       ?OnVKeyToItem@CWnd@@IAEHIPAVCListBox@@I@Z 0045469b f   uafxcw:wincore.obj
 0001:0005369b       ?OnCharToItem@CWnd@@IAEHIPAVCListBox@@I@Z 0045469b f   uafxcw:wincore.obj
 0001:000536c6       ?OnChildNotify@CWnd@@MAEHIIJPAJ@Z 004546c6 f   uafxcw:wincore.obj
 0001:00053713       ?OnCommand@CWnd@@MAEHIJ@Z  00454713 f   uafxcw:wincore.obj
 0001:000537ab       ?OnCompareItem@CWnd@@IAEHHPAUtagCOMPAREITEMSTRUCT@@@Z 004547ab f   uafxcw:wincore.obj
 0001:000537d8       ?OnCtlColor@CWnd@@IAEPAUHBRUSH__@@PAVCDC@@PAV1@I@Z 004547d8 f   uafxcw:wincore.obj
 0001:00053802       ?OnDeleteItem@CWnd@@IAEXHPAUtagDELETEITEMSTRUCT@@@Z 00454802 f   uafxcw:wincore.obj
 0001:00053825       ?OnDestroy@CWnd@@IAEXXZ    00454825 f   uafxcw:wincore.obj
 0001:000538bd       ?OnDevModeChange@CWnd@@IAEXPA_W@Z 004548bd f   uafxcw:wincore.obj
 0001:00053909       ?OnDisplayChange@CWnd@@IAEXIHH@Z 00454909 f   uafxcw:wincore.obj
 0001:00053952       ?OnDragList@CWnd@@IAEJIJ@Z 00454952 f   uafxcw:wincore.obj
 0001:0005397f       ?OnDrawIconicThumbnailOrLivePreview@CWnd@@UAEXAAVCDC@@VCRect@@VCSize@@HAAH@Z 0045497f f   uafxcw:wincore.obj
 0001:000539a1       ?OnDrawItem@CWnd@@IAEXHPAUtagDRAWITEMSTRUCT@@@Z 004549a1 f   uafxcw:wincore.obj
 0001:000539e1       ?OnEnterIdle@CWnd@@IAEXIPAV1@@Z 004549e1 f   uafxcw:wincore.obj
 0001:00053a1f       ?OnFinalRelease@CWnd@@UAEXXZ 00454a1f f   uafxcw:wincore.obj
 0001:00053a30       ?OnGesture@CWnd@@IAEJIJ@Z  00454a30 f   uafxcw:wincore.obj
 0001:00053cb5       ?OnGetObject@CWnd@@IAEJIJ@Z 00454cb5 f   uafxcw:wincore.obj
 0001:00053cf3       ?OnHelpInfo@CWnd@@IAEHPAUtagHELPINFO@@@Z 00454cf3 f   uafxcw:wincore.obj
 0001:00053d5d       ?OnMeasureItem@CWnd@@IAEXHPAUtagMEASUREITEMSTRUCT@@@Z 00454d5d f   uafxcw:wincore.obj
 0001:00053de6       ?OnNTCtlColor@CWnd@@IAEJIJ@Z 00454de6 f   uafxcw:wincore.obj
 0001:00053e38       ?OnNcDestroy@CWnd@@IAEXXZ  00454e38 f   uafxcw:wincore.obj
 0001:00053f5d       ?OnNotify@CWnd@@MAEHIJPAJ@Z 00454f5d f   uafxcw:wincore.obj
 0001:00053fe9       ?OnPaint@CWnd@@IAEXXZ      00454fe9 f   uafxcw:wincore.obj
 0001:00054032       ?OnParentNotify@CWnd@@IAEXIJ@Z 00455032 f   uafxcw:wincore.obj
 0001:00054060       ?OnSetFocus@CWnd@@IAEXPAV1@@Z 00455060 f   uafxcw:wincore.obj
 0001:00054081       ?OnSettingChange@CWnd@@IAEXIPB_W@Z 00455081 f   uafxcw:wincore.obj
 0001:000540ad       ?OnSysColorChange@CWnd@@IAEXXZ 004550ad f   uafxcw:wincore.obj
 0001:000540f3       ?OnTabletQuerySystemGestureStatus@CWnd@@IAEJIJ@Z 004550f3 f   uafxcw:wincore.obj
 0001:00054131       ?OnToolHitTest@CWnd@@UBEHVCPoint@@PAUtagTOOLINFOW@@@Z 00455131 f   uafxcw:wincore.obj
 0001:000541a4       ?OnTouchInputs@CWnd@@MAEHIPAUtagTOUCHINPUT@@@Z 004551a4 f   uafxcw:wincore.obj
 0001:00054215       ?OnTouchMessage@CWnd@@IAEJIJ@Z 00455215 f   uafxcw:wincore.obj
 0001:00054329       ?OnVScroll@CWnd@@IAEXIIPAVCScrollBar@@@Z 00455329 f   uafxcw:wincore.obj
 0001:00054329       ?OnHScroll@CWnd@@IAEXIIPAVCScrollBar@@@Z 00455329 f   uafxcw:wincore.obj
 0001:0005434d       ?OnWndMsg@CWnd@@MAEHIIJPAJ@Z 0045534d f   uafxcw:wincore.obj
 0001:00054c5d       ?PreCreateWindow@CWnd@@UAEHAAUtagCREATESTRUCTW@@@Z 00455c5d f   uafxcw:wincore.obj
 0001:00054c96       ?PreTranslateInput@CWnd@@QAEHPAUtagMSG@@@Z 00455c96 f   uafxcw:wincore.obj
 0001:00054cc9       ?PreTranslateMessage@CWnd@@UAEHPAUtagMSG@@@Z 00455cc9 f   uafxcw:wincore.obj
 0001:00054ce8       ?PrepareForHelp@CWnd@@QAEXXZ 00455ce8 f   uafxcw:wincore.obj
 0001:00054d65       ?QueryInterface@?$CComObjectNoLock@VCAccessibleProxy@ATL@@@ATL@@UAGJABU_GUID@@PAPAX@Z 00455d65 f i uafxcw:wincore.obj
 0001:00054d7f       ?QueryInterface@?$CComObjectNoLock@VCAccessibleProxy@ATL@@@ATL@@W3AGJABU_GUID@@PAPAX@Z 00455d7f f i uafxcw:wincore.obj
 0001:00054d89       ?QueryInterface@?$CComObjectNoLock@VCAccessibleProxy@ATL@@@ATL@@WBA@AGJABU_GUID@@PAPAX@Z 00455d89 f i uafxcw:wincore.obj
 0001:00054d93       ?QueryInterface@XAccessible@CWnd@@UAGJABU_GUID@@PAPAX@Z 00455d93 f   uafxcw:wincore.obj
 0001:00054dd7       ?QueryInterface@XAccessibleServer@CWnd@@UAGJABU_GUID@@PAPAX@Z 00455dd7 f   uafxcw:wincore.obj
 0001:00054e1b       ?ReflectChildNotify@CWnd@@IAEHIIJPAJ@Z 00455e1b f   uafxcw:wincore.obj
 0001:00054f16       ?ReflectLastMsg@CWnd@@KGHPAUHWND__@@PAJ@Z 00455f16 f   uafxcw:wincore.obj
 0001:00054fb8       ?RegisterTouchWindow@CWnd@@QAEHHK@Z 00455fb8 f   uafxcw:wincore.obj
 0001:00055087       ?Release@?$CComObjectNoLock@VCAccessibleProxy@ATL@@@ATL@@UAGKXZ 00456087 f i uafxcw:wincore.obj
 0001:000550a8       ?Release@?$CComObjectNoLock@VCAccessibleProxy@ATL@@@ATL@@W3AGKXZ 004560a8 f i uafxcw:wincore.obj
 0001:000550b2       ?Release@?$CComObjectNoLock@VCAccessibleProxy@ATL@@@ATL@@WBA@AGKXZ 004560b2 f i uafxcw:wincore.obj
 0001:000550bc       ?Release@XAccessible@CWnd@@UAGKXZ 004560bc f   uafxcw:wincore.obj
 0001:000550fa       ?Release@XAccessibleServer@CWnd@@UAGKXZ 004560fa f   uafxcw:wincore.obj
 0001:00055138       ?ReleaseBuffer@?$CSimpleStringT@_W$0A@@ATL@@QAEXH@Z 00456138 f i uafxcw:wincore.obj
 0001:00055164       ?RemoveKey@?$CMap@PAVCWnd@@PAV1@PAVCImageList@@PAV2@@@QAEHPAVCWnd@@@Z 00456164 f i uafxcw:afxmdiclientareawnd.obj
 0001:00055164       ?RemoveKey@?$CMap@IIPAUHWND__@@PAU1@@@QAEHI@Z 00456164 f i uafxcw:afxpaneframewnd.obj
 0001:00055164       ?RemoveKey@?$CMap@IIPAVCObList@@PAV1@@@QAEHI@Z 00456164 f i uafxcw:afxcontextmenumanager.obj
 0001:00055164       ?RemoveKey@?$CMap@IIHH@@QAEHI@Z 00456164 f i uafxcw:afxcommandmanager.obj
 0001:00055164       ?RemoveKey@?$CMap@PAVCWnd@@PAV1@PAVCHwndRenderTarget@@PAV2@@@QAEHPAVCWnd@@@Z 00456164 f i uafxcw:wincore.obj
 0001:00055164       ?RemoveKey@?$CMap@HHII@@QAEHH@Z 00456164 f i uafxcw:afxmousemanager.obj
 0001:000551d2       ?RepositionBars@CWnd@@QAEXIIIIPAUtagRECT@@PBU2@H@Z 004561d2 f   uafxcw:wincore.obj
 0001:00055337       ?RunModalLoop@CWnd@@QAEHK@Z 00456337 f   uafxcw:wincore.obj
 0001:00055488       ?ScrollWindow@CWnd@@QAEXHHPBUtagRECT@@0@Z 00456488 f   uafxcw:wincore.obj
 0001:0005556c       ?SendChildNotifyLastMsg@CWnd@@QAEHPAJ@Z 0045656c f   uafxcw:wincore.obj
 0001:000555a8       ?SendMessageToDescendants@CWnd@@SGXPAUHWND__@@IIJHH@Z 004565a8 f   uafxcw:wincore.obj
 0001:00055625       ?SetMenu@CWnd@@UAEHPAVCMenu@@@Z 00456625 f   uafxcw:wincore.obj
 0001:00055640       ?SetProxy@CWnd@@UAEJPAUIAccessibleProxy@@@Z 00456640 f   uafxcw:wincore.obj
 0001:0005564f       ?SetProxy@XAccessibleServer@CWnd@@UAGJPAUIAccessibleProxy@@@Z 0045664f f   uafxcw:wincore.obj
 0001:00055694       ?SetScrollInfo@CWnd@@QAEHHPAUtagSCROLLINFO@@H@Z 00456694 f   uafxcw:wincore.obj
 0001:000556d2       ?SetScrollPos@CWnd@@QAEHHHH@Z 004566d2 f   uafxcw:wincore.obj
 0001:00055702       ?SetScrollRange@CWnd@@QAEXHHHH@Z 00456702 f   uafxcw:wincore.obj
 0001:00055735       ?SetServer@?$IAccessibleProxyImpl@VCAccessibleProxy@ATL@@@ATL@@UAGJPAUIAccessible@@PAUIAccessibleServer@@@Z 00456735 f i uafxcw:wincore.obj
 0001:0005574d       ?SetWindowPlacement@CWnd@@QAEHPBUtagWINDOWPLACEMENT@@@Z 0045674d f   uafxcw:wincore.obj
 0001:00055767       ?SubclassDlgItem@CWnd@@QAEHIPAV1@@Z 00456767 f   uafxcw:wincore.obj
 0001:000557d1       ?SubclassWindow@CWnd@@QAEHPAUHWND__@@@Z 004567d1 f   uafxcw:wincore.obj
 0001:00055815       ?TrackPopupMenu@CMenu@@QAEHIHHPAVCWnd@@PBUtagRECT@@@Z 00456815 f   uafxcw:wincore.obj
 0001:0005586b       ?Unlock@CCriticalSection@@UAEHXZ 0045686b f i uafxcw:wincore.obj
 0001:00055879       ?Unlock@CInternalGlobalLock@@QAEXXZ 00456879 f i uafxcw:wincore.obj
 0001:00055892       ?UnsubclassWindow@CWnd@@QAEPAUHWND__@@XZ 00456892 f   uafxcw:wincore.obj
 0001:000558b9       ?UpdateData@CWnd@@QAEHH@Z  004568b9 f   uafxcw:wincore.obj
 0001:00055946       ?UpdateDialogControls@CWnd@@QAEXPAVCCmdTarget@@H@Z 00456946 f   uafxcw:wincore.obj
 0001:00055a4e       ?WalkPreTranslateTree@CWnd@@SGHPAUHWND__@@PAUtagMSG@@@Z 00456a4e f   uafxcw:wincore.obj
 0001:00055a92       ?WinHelpInternal@CWnd@@UAEXKI@Z 00456a92 f   uafxcw:wincore.obj
 0001:00055ae4       ?WinHelpW@CWnd@@UAEXKI@Z   00456ae4 f   uafxcw:wincore.obj
 0001:00055b59       ?WindowProc@CWnd@@MAEJIIJ@Z 00456b59 f   uafxcw:wincore.obj
 0001:00055b9e       ?_AfxActivationWndProc@@YGJPAUHWND__@@IIJ@Z 00456b9e f   uafxcw:wincore.obj
 0001:00055d05       ?_AfxCbtFilterHook@@YGJHIJ@Z 00456d05 f   uafxcw:wincore.obj
 0001:00055f0c       ?_AfxFindPopupMenuFromID@@YGPAVCMenu@@PAV1@I@Z 00456f0c f   uafxcw:wincore.obj
 0001:00055f81       ?_AfxHandleActivate@@YGXPAVCWnd@@I0@Z 00456f81 f   uafxcw:wincore.obj
 0001:00055ff8       ?_AfxHandleSetCursor@@YGHPAVCWnd@@II@Z 00456ff8 f   uafxcw:wincore.obj
 0001:0005606e       ?_AfxInitCommonControls@@YGJPAUtagINITCOMMONCONTROLSEX@@J@Z 0045706e f   uafxcw:wincore.obj
 0001:0005608a       ?_AfxModifyStyle@@YGHPAUHWND__@@HKKI@Z 0045708a f   uafxcw:wincore.obj
 0001:000560da       ?_AfxPostInitDialog@@YGXPAVCWnd@@ABUtagRECT@@K@Z 004570da f   uafxcw:wincore.obj
 0001:0005617b       ?_AfxPreInitDialog@@YGXPAVCWnd@@PAUtagRECT@@PAK@Z 0045717b f   uafxcw:wincore.obj
 0001:0005619f       ?_AfxRegisterWithIcon@@YGHPAUtagWNDCLASSW@@PB_WI@Z 0045719f f   uafxcw:wincore.obj
 0001:000561e3       ?accDoDefaultAction@?$IAccessibleProxyImpl@VCAccessibleProxy@ATL@@@ATL@@UAGJUtagVARIANT@@@Z 004571e3 f i uafxcw:wincore.obj
 0001:00056211       ?accDoDefaultAction@CWnd@@UAEJUtagVARIANT@@@Z 00457211 f   uafxcw:wincore.obj
 0001:00056231       ?accDoDefaultAction@XAccessible@CWnd@@UAGJUtagVARIANT@@@Z 00457231 f   uafxcw:wincore.obj
 0001:0005627f       ?accHitTest@?$IAccessibleProxyImpl@VCAccessibleProxy@ATL@@@ATL@@UAGJJJPAUtagVARIANT@@@Z 0045727f f i uafxcw:wincore.obj
 0001:000562b3       ?accHitTest@CWnd@@UAEJJJPAUtagVARIANT@@@Z 004572b3 f   uafxcw:wincore.obj
 0001:000562cc       ?accHitTest@XAccessible@CWnd@@UAGJJJPAUtagVARIANT@@@Z 004572cc f   uafxcw:wincore.obj
 0001:00056317       ?accLocation@?$IAccessibleProxyImpl@VCAccessibleProxy@ATL@@@ATL@@UAGJPAJ000UtagVARIANT@@@Z 00457317 f i uafxcw:wincore.obj
 0001:00056370       ?accLocation@CWnd@@UAEJPAJ000UtagVARIANT@@@Z 00457370 f   uafxcw:wincore.obj
 0001:0005639c       ?accLocation@XAccessible@CWnd@@UAGJPAJ000UtagVARIANT@@@Z 0045739c f   uafxcw:wincore.obj
 0001:000563f6       ?accNavigate@?$IAccessibleProxyImpl@VCAccessibleProxy@ATL@@@ATL@@UAGJJUtagVARIANT@@PAU3@@Z 004573f6 f i uafxcw:wincore.obj
 0001:00056437       ?accNavigate@CWnd@@UAEJJUtagVARIANT@@PAU2@@Z 00457437 f   uafxcw:wincore.obj
 0001:0005645d       ?accNavigate@XAccessible@CWnd@@UAGJJUtagVARIANT@@PAU3@@Z 0045745d f   uafxcw:wincore.obj
 0001:000564b1       ?accSelect@?$IAccessibleProxyImpl@VCAccessibleProxy@ATL@@@ATL@@UAGJJUtagVARIANT@@@Z 004574b1 f i uafxcw:wincore.obj
 0001:000564e2       ?accSelect@CWnd@@UAEJJUtagVARIANT@@@Z 004574e2 f   uafxcw:wincore.obj
 0001:00056505       ?accSelect@XAccessible@CWnd@@UAGJJUtagVARIANT@@@Z 00457505 f   uafxcw:wincore.obj
 0001:00056556       ?afxMapHWND@@YGPAVCHandleMap@@H@Z 00457556 f   uafxcw:wincore.obj
 0001:000565c7       ?get_accChild@?$IAccessibleProxyImpl@VCAccessibleProxy@ATL@@@ATL@@UAGJUtagVARIANT@@PAPAUIDispatch@@@Z 004575c7 f i uafxcw:wincore.obj
 0001:00056605       ?get_accChild@CWnd@@UAEJUtagVARIANT@@PAPAUIDispatch@@@Z 00457605 f   uafxcw:wincore.obj
 0001:00056628       ?get_accChild@XAccessible@CWnd@@UAGJUtagVARIANT@@PAPAUIDispatch@@@Z 00457628 f   uafxcw:wincore.obj
 0001:00056679       ?get_accChildCount@?$IAccessibleProxyImpl@VCAccessibleProxy@ATL@@@ATL@@UAGJPAJ@Z 00457679 f i uafxcw:wincore.obj
 0001:000566a7       ?get_accChildCount@CWnd@@UAEJPAJ@Z 004576a7 f   uafxcw:wincore.obj
 0001:000566ba       ?get_accChildCount@XAccessible@CWnd@@UAGJPAJ@Z 004576ba f   uafxcw:wincore.obj
 0001:000566ff       ?get_accDefaultAction@?$IAccessibleProxyImpl@VCAccessibleProxy@ATL@@@ATL@@UAGJUtagVARIANT@@PAPA_W@Z 004576ff f i uafxcw:wincore.obj
 0001:0005673d       ?get_accDefaultAction@CWnd@@UAEJUtagVARIANT@@PAPA_W@Z 0045773d f   uafxcw:wincore.obj
 0001:00056760       ?get_accDefaultAction@XAccessible@CWnd@@UAGJUtagVARIANT@@PAPA_W@Z 00457760 f   uafxcw:wincore.obj
 0001:000567b1       ?get_accDescription@?$IAccessibleProxyImpl@VCAccessibleProxy@ATL@@@ATL@@UAGJUtagVARIANT@@PAPA_W@Z 004577b1 f i uafxcw:wincore.obj
 0001:000567ef       ?get_accDescription@CWnd@@UAEJUtagVARIANT@@PAPA_W@Z 004577ef f   uafxcw:wincore.obj
 0001:00056812       ?get_accDescription@XAccessible@CWnd@@UAGJUtagVARIANT@@PAPA_W@Z 00457812 f   uafxcw:wincore.obj
 0001:00056863       ?get_accFocus@?$IAccessibleProxyImpl@VCAccessibleProxy@ATL@@@ATL@@UAGJPAUtagVARIANT@@@Z 00457863 f i uafxcw:wincore.obj
 0001:00056891       ?get_accFocus@CWnd@@UAEJPAUtagVARIANT@@@Z 00457891 f   uafxcw:wincore.obj
 0001:000568a4       ?get_accFocus@XAccessible@CWnd@@UAGJPAUtagVARIANT@@@Z 004578a4 f   uafxcw:wincore.obj
 0001:000568e9       ?get_accHelp@?$IAccessibleProxyImpl@VCAccessibleProxy@ATL@@@ATL@@UAGJUtagVARIANT@@PAPA_W@Z 004578e9 f i uafxcw:wincore.obj
 0001:00056927       ?get_accHelp@CWnd@@UAEJUtagVARIANT@@PAPA_W@Z 00457927 f   uafxcw:wincore.obj
 0001:0005694a       ?get_accHelp@XAccessible@CWnd@@UAGJUtagVARIANT@@PAPA_W@Z 0045794a f   uafxcw:wincore.obj
 0001:0005699b       ?get_accHelpTopic@?$IAccessibleProxyImpl@VCAccessibleProxy@ATL@@@ATL@@UAGJPAPA_WUtagVARIANT@@PAJ@Z 0045799b f i uafxcw:wincore.obj
 0001:000569e2       ?get_accHelpTopic@CWnd@@UAEJPAPA_WUtagVARIANT@@PAJ@Z 004579e2 f   uafxcw:wincore.obj
 0001:00056a08       ?get_accHelpTopic@XAccessible@CWnd@@UAGJPAPA_WUtagVARIANT@@PAJ@Z 00457a08 f   uafxcw:wincore.obj
 0001:00056a5c       ?get_accKeyboardShortcut@?$IAccessibleProxyImpl@VCAccessibleProxy@ATL@@@ATL@@UAGJUtagVARIANT@@PAPA_W@Z 00457a5c f i uafxcw:wincore.obj
 0001:00056a9a       ?get_accKeyboardShortcut@CWnd@@UAEJUtagVARIANT@@PAPA_W@Z 00457a9a f   uafxcw:wincore.obj
 0001:00056abd       ?get_accKeyboardShortcut@XAccessible@CWnd@@UAGJUtagVARIANT@@PAPA_W@Z 00457abd f   uafxcw:wincore.obj
 0001:00056b0e       ?get_accName@?$IAccessibleProxyImpl@VCAccessibleProxy@ATL@@@ATL@@UAGJUtagVARIANT@@PAPA_W@Z 00457b0e f i uafxcw:wincore.obj
 0001:00056b4c       ?get_accName@CWnd@@UAEJUtagVARIANT@@PAPA_W@Z 00457b4c f   uafxcw:wincore.obj
 0001:00056b6f       ?get_accName@XAccessible@CWnd@@UAGJUtagVARIANT@@PAPA_W@Z 00457b6f f   uafxcw:wincore.obj
 0001:00056bc0       ?get_accParent@?$IAccessibleProxyImpl@VCAccessibleProxy@ATL@@@ATL@@UAGJPAPAUIDispatch@@@Z 00457bc0 f i uafxcw:wincore.obj
 0001:00056bee       ?get_accParent@CWnd@@UAEJPAPAUIDispatch@@@Z 00457bee f   uafxcw:wincore.obj
 0001:00056c01       ?get_accParent@XAccessible@CWnd@@UAGJPAPAUIDispatch@@@Z 00457c01 f   uafxcw:wincore.obj
 0001:00056c46       ?get_accRole@?$IAccessibleProxyImpl@VCAccessibleProxy@ATL@@@ATL@@UAGJUtagVARIANT@@PAU3@@Z 00457c46 f i uafxcw:wincore.obj
 0001:00056c84       ?get_accRole@CWnd@@UAEJUtagVARIANT@@PAU2@@Z 00457c84 f   uafxcw:wincore.obj
 0001:00056ca7       ?get_accRole@XAccessible@CWnd@@UAGJUtagVARIANT@@PAU3@@Z 00457ca7 f   uafxcw:wincore.obj
 0001:00056cf8       ?get_accSelection@?$IAccessibleProxyImpl@VCAccessibleProxy@ATL@@@ATL@@UAGJPAUtagVARIANT@@@Z 00457cf8 f i uafxcw:wincore.obj
 0001:00056d26       ?get_accSelection@CWnd@@UAEJPAUtagVARIANT@@@Z 00457d26 f   uafxcw:wincore.obj
 0001:00056d39       ?get_accSelection@XAccessible@CWnd@@UAGJPAUtagVARIANT@@@Z 00457d39 f   uafxcw:wincore.obj
 0001:00056d7e       ?get_accState@?$IAccessibleProxyImpl@VCAccessibleProxy@ATL@@@ATL@@UAGJUtagVARIANT@@PAU3@@Z 00457d7e f i uafxcw:wincore.obj
 0001:00056dbc       ?get_accState@CWnd@@UAEJUtagVARIANT@@PAU2@@Z 00457dbc f   uafxcw:wincore.obj
 0001:00056ddf       ?get_accState@XAccessible@CWnd@@UAGJUtagVARIANT@@PAU3@@Z 00457ddf f   uafxcw:wincore.obj
 0001:00056e30       ?get_accValue@?$IAccessibleProxyImpl@VCAccessibleProxy@ATL@@@ATL@@UAGJUtagVARIANT@@PAPA_W@Z 00457e30 f i uafxcw:wincore.obj
 0001:00056e6e       ?get_accValue@CWnd@@UAEJUtagVARIANT@@PAPA_W@Z 00457e6e f   uafxcw:wincore.obj
 0001:00056e91       ?get_accValue@XAccessible@CWnd@@UAGJUtagVARIANT@@PAPA_W@Z 00457e91 f   uafxcw:wincore.obj
 0001:00056ee2       ?put_accName@?$IAccessibleProxyImpl@VCAccessibleProxy@ATL@@@ATL@@UAGJUtagVARIANT@@PA_W@Z 00457ee2 f i uafxcw:wincore.obj
 0001:00056ee2       ?put_accValue@?$IAccessibleProxyImpl@VCAccessibleProxy@ATL@@@ATL@@UAGJUtagVARIANT@@PA_W@Z 00457ee2 f i uafxcw:wincore.obj
 0001:00056efd       ?put_accValue@CWnd@@UAEJUtagVARIANT@@PA_W@Z 00457efd f   uafxcw:wincore.obj
 0001:00056efd       ?put_accName@CWnd@@UAEJUtagVARIANT@@PA_W@Z 00457efd f   uafxcw:wincore.obj
 0001:00056f20       ?put_accName@XAccessible@CWnd@@UAGJUtagVARIANT@@PA_W@Z 00457f20 f   uafxcw:wincore.obj
 0001:00056f71       ?put_accValue@XAccessible@CWnd@@UAGJUtagVARIANT@@PA_W@Z 00457f71 f   uafxcw:wincore.obj
 0001:00056fc2       _CommctrlIsolationAwarePrivatetRgCebPnQQeRff_pbZPgYQP_QYY@4 00457fc2 f i uafxcw:wincore.obj
 0001:0005705e       _InlineIsEqualGUID         0045805e f i uafxcw:wincore.obj
 0001:0005708e       _IsolationAwareActivateActCtx@8 0045808e f i uafxcw:wincore.obj
 0001:000570be       _IsolationAwareCreateActCtxW@4 004580be f i uafxcw:wincore.obj
 0001:000570f1       _IsolationAwareCreateWindowExW@48 004580f1 f i uafxcw:wincore.obj
 0001:0005719d       _IsolationAwareDeactivateActCtx@8 0045819d f i uafxcw:wincore.obj
 0001:000571cd       _IsolationAwareFindActCtxSectionStringW@20 004581cd f i uafxcw:wincore.obj
 0001:000571fd       _IsolationAwareGetClassInfoExW@12 004581fd f i uafxcw:wincore.obj
 0001:0005728e       _IsolationAwareInitCommonControlsEx@4 0045828e f i uafxcw:wincore.obj
 0001:00057333       _IsolationAwareLoadLibraryW@4 00458333 f i uafxcw:wincore.obj
 0001:000573be       _IsolationAwarePrivatenPgViNgRzlnPgpgk@4 004583be f i uafxcw:wincore.obj
 0001:0005742e       _IsolationAwarePrivatezltRgCebPnQQeRff@12 0045842e f i uafxcw:wincore.obj
 0001:00057460       _IsolationAwarePrivatezltRgzbQhYRuNaQYRJ@4 00458460 f i uafxcw:wincore.obj
 0001:0005746a       _IsolationAwarePrivatezltRgzbQhYRuNaQYRn@4 0045846a f i uafxcw:wincore.obj
 0001:00057474       _IsolationAwarePrivatezlybNQyVOeNelJ@4 00458474 f i uafxcw:wincore.obj
 0001:0005747e       _IsolationAwarePrivatezlybNQyVOeNeln@4 0045847e f i uafxcw:wincore.obj
 0001:00057488       _IsolationAwareRegisterClassW@4 00458488 f i uafxcw:wincore.obj
 0001:00057516       _WinbaseIsolationAwarePrivatetRgzlnPgpgk@0 00458516 f i uafxcw:wincore.obj
 0001:000576f5       ?AfxClassInit@@YGXPAUCRuntimeClass@@@Z 004586f5 f   uafxcw:objcore.obj
 0001:0005771e       ?AfxDynamicDownCast@@YAPAVCObject@@PAUCRuntimeClass@@PAV1@@Z 0045871e f   uafxcw:objcore.obj
 0001:0005773f       ?CreateObject@CRuntimeClass@@QAEPAVCObject@@XZ 0045873f f   uafxcw:objcore.obj
 0001:00057784       ?GetRuntimeClass@CObject@@UBEPAUCRuntimeClass@@XZ 00458784 f   uafxcw:objcore.obj
 0001:0005778a       ?IsDerivedFrom@CRuntimeClass@@QBEHPBU1@@Z 0045878a f   uafxcw:objcore.obj
 0001:000577b4       ?IsKindOf@CObject@@QBEHPBUCRuntimeClass@@@Z 004587b4 f   uafxcw:objcore.obj
 0001:000577d1       ?CreateObject@CMiniFrameWnd@@SGPAVCObject@@XZ 004587d1 f   uafxcw:winmini.obj
 0001:00057801       ??0CMiniFrameWnd@@QAE@XZ   00458801 f   uafxcw:winmini.obj
 0001:0005782b       ??1CMiniFrameWnd@@UAE@XZ   0045882b f   uafxcw:winmini.obj
 0001:0005786d       ??_GCMiniFrameWnd@@UAEPAXI@Z 0045886d f i uafxcw:winmini.obj
 0001:0005786d       ??_ECMiniFrameWnd@@UAEPAXI@Z 0045886d f i uafxcw:winmini.obj
 0001:0005788c       ?Create@CMiniFrameWnd@@UAEHPB_W0KABUtagRECT@@PAVCWnd@@I@Z 0045888c f   uafxcw:winmini.obj
 0001:000578ac       ?CreateEx@CMiniFrameWnd@@UAEHKPB_W0KABUtagRECT@@PAVCWnd@@I@Z 004588ac f   uafxcw:winmini.obj
 0001:0005791f       ?GetMessageMap@CMiniFrameWnd@@MBEPBUAFX_MSGMAP@@XZ 0045891f f   uafxcw:winmini.obj
 0001:0005791f       ?GetThisMessageMap@CMiniFrameWnd@@KGPBUAFX_MSGMAP@@XZ 0045891f f   uafxcw:winmini.obj
 0001:00057925       ?GetRuntimeClass@CMiniFrameWnd@@UBEPAUCRuntimeClass@@XZ 00458925 f   uafxcw:winmini.obj
 0001:0005792b       ?OnFloatStatus@CPaneFrameWnd@@IAEJIJ@Z 0045892b f   uafxcw:afxpaneframewnd.obj
 0001:0005792b       ?OnFloatStatus@CMiniFrameWnd@@QAEJIJ@Z 0045892b f   uafxcw:winmini.obj
 0001:000579d8       ?OnGetMinMaxInfo@CMiniFrameWnd@@QAEXPAUtagMINMAXINFO@@@Z 004589d8 f   uafxcw:winmini.obj
 0001:00057a52       ?OnNcActivate@CMiniFrameWnd@@QAEHH@Z 00458a52 f   uafxcw:winmini.obj
 0001:00057a7f       ?OnNcHitTest@CMiniFrameWnd@@QAEJVCPoint@@@Z 00458a7f f   uafxcw:winmini.obj
 0001:00057ba5       ?OnQueryCenterWnd@CMiniFrameWnd@@QAEJIJ@Z 00458ba5 f   uafxcw:winmini.obj
 0001:00057bcb       ?OnSysCommand@CMiniFrameWnd@@QAEXIJ@Z 00458bcb f   uafxcw:winmini.obj
 0001:00057c34       ?PreCreateWindow@CMiniFrameWnd@@MAEHAAUtagCREATESTRUCTW@@@Z 00458c34 f   uafxcw:winmini.obj
 0001:00057c72       ?CreateObject@CPaneFrameWnd@@SGPAVCObject@@XZ 00458c72 f   uafxcw:afxpaneframewnd.obj
 0001:00057ca2       ??0?$CList@PAUHWND__@@PAU1@@@QAE@H@Z 00458ca2 f i uafxcw:afxpaneframewnd.obj
 0001:00057cc8       ??0CArchiveException@@QAE@HPB_W@Z 00458cc8 f i uafxcw:afxpaneframewnd.obj
 0001:00057d11       ??0CPaneFrameWnd@@QAE@XZ   00458d11 f   uafxcw:afxpaneframewnd.obj
 0001:00057e51       ??1?$CList@PAUHWND__@@PAU1@@@UAE@XZ 00458e51 f i uafxcw:afxpaneframewnd.obj
 0001:00057e5c       ??1CBitmap@@UAE@XZ         00458e5c f i uafxcw:afxpaneframewnd.obj
 0001:00057e5c       ??1CPngImage@@UAE@XZ       00458e5c f i uafxcw:afxtoolbarimages.obj
 0001:00057e67       ??1CPaneFrameWnd@@UAE@XZ   00458e67 f   uafxcw:afxpaneframewnd.obj
 0001:00057eb9       ??1CRgn@@UAE@XZ            00458eb9 f i uafxcw:afxpaneframewnd.obj
 0001:00057ec4       ??5@YGAAVCArchive@@AAV0@AAPAVCPaneFrameWnd@@@Z 00458ec4 f   uafxcw:afxpaneframewnd.obj
 0001:00057ee0       ??5CArchive@@QAEAAV0@AAJ@Z 00458ee0 f i uafxcw:afxpaneframewnd.obj
 0001:00057ee0       ??5CArchive@@QAEAAV0@AAK@Z 00458ee0 f i uafxcw:afxpaneframewnd.obj
 0001:00057f25       ??6CArchive@@QAEAAV0@K@Z   00458f25 f i uafxcw:afxpaneframewnd.obj
 0001:00057f25       ??6CArchive@@QAEAAV0@J@Z   00458f25 f i uafxcw:afxpaneframewnd.obj
 0001:00057f62       ??_E?$CList@PAUHWND__@@PAU1@@@UAEPAXI@Z 00458f62 f i uafxcw:afxpaneframewnd.obj
 0001:00057f62       ??_G?$CList@PAUHWND__@@PAU1@@@UAEPAXI@Z 00458f62 f i uafxcw:afxpaneframewnd.obj
 0001:00057f87       ??_E?$CMap@IIPAUHWND__@@PAU1@@@UAEPAXI@Z 00458f87 f i uafxcw:afxpaneframewnd.obj
 0001:00057f87       ??_G?$CMap@IIPAUHWND__@@PAU1@@@UAEPAXI@Z 00458f87 f i uafxcw:afxpaneframewnd.obj
 0001:00057fac       ??_ECArchiveException@@UAEPAXI@Z 00458fac f i uafxcw:afxpaneframewnd.obj
 0001:00057fac       ??_GCArchiveException@@UAEPAXI@Z 00458fac f i uafxcw:afxpaneframewnd.obj
 0001:00057fd7       ??_ECPngImage@@UAEPAXI@Z   00458fd7 f i uafxcw:afxtoolbarimages.obj
 0001:00057fd7       ??_ECBitmap@@UAEPAXI@Z     00458fd7 f i uafxcw:afxpaneframewnd.obj
 0001:00057fd7       ??_GCBitmap@@UAEPAXI@Z     00458fd7 f i uafxcw:afxpaneframewnd.obj
 0001:00057fd7       ??_GCPngImage@@UAEPAXI@Z   00458fd7 f i uafxcw:afxtoolbarimages.obj
 0001:00057ffc       ??_ECPaneFrameWnd@@UAEPAXI@Z 00458ffc f i uafxcw:afxpaneframewnd.obj
 0001:00057ffc       ??_GCPaneFrameWnd@@UAEPAXI@Z 00458ffc f i uafxcw:afxpaneframewnd.obj
 0001:0005801b       ??_GCRgn@@UAEPAXI@Z        0045901b f i uafxcw:afxpaneframewnd.obj
 0001:0005801b       ??_ECRgn@@UAEPAXI@Z        0045901b f i uafxcw:afxpaneframewnd.obj
 0001:00058040       ?AddButton@CPaneFrameWnd@@MAEXI@Z 00459040 f   uafxcw:afxpaneframewnd.obj
 0001:000580e2       ?AddPane@CPaneFrameWnd@@UAEXPAVCBasePane@@@Z 004590e2 f   uafxcw:afxpaneframewnd.obj
 0001:00058208       ?AddRemovePaneFromGlobalList@CPaneFrameWnd@@SGHPAVCBasePane@@H@Z 00459208 f   uafxcw:afxpaneframewnd.obj
 0001:000582ce       ?AddTail@?$CList@PAVIControlSiteFactory@@PAV1@@@QAEPAU__POSITION@@PAVIControlSiteFactory@@@Z 004592ce f i uafxcw:occmgr.obj
 0001:000582ce       ?AddTail@?$CList@PAU_ITEMIDLIST@@PAU1@@@QAEPAU__POSITION@@PAU_ITEMIDLIST@@@Z 004592ce f i uafxcw:afxshelltreectrl.obj
 0001:000582ce       ?AddTail@?$CList@PAUHWND__@@PAU1@@@QAEPAU__POSITION@@PAUHWND__@@@Z 004592ce f i uafxcw:afxpaneframewnd.obj
 0001:000582ce       ?AddTail@?$CList@PAVCMDIChildWndEx@@PAV1@@@QAEPAU__POSITION@@PAVCMDIChildWndEx@@@Z 004592ce f i uafxcw:afxmdiclientareawnd.obj
 0001:000582ce       ?AddTail@?$CList@PAVCMFCPropertyGridProperty@@PAV1@@@QAEPAU__POSITION@@PAVCMFCPropertyGridProperty@@@Z 004592ce f i uafxcw:afxpropertygridctrl.obj
 0001:000582ce       ?AddTail@?$CList@PAVCPropertyPage@@PAV1@@@QAEPAU__POSITION@@PAVCPropertyPage@@@Z 004592ce f i uafxcw:afxtoolbarscustomizedialog.obj
 0001:000582ce       ?AddTail@?$CList@KK@@QAEPAU__POSITION@@K@Z 004592ce f i uafxcw:afxcolorbar.obj
 0001:000582ce       ?AddTail@?$CList@PAVCMFCButton@@PAV1@@@QAEPAU__POSITION@@PAVCMFCButton@@@Z 004592ce f i uafxcw:afxvslistbox.obj
 0001:000582ce       ?AddTail@?$CList@PAVCFrameWnd@@PAV1@@@QAEPAU__POSITION@@PAVCFrameWnd@@@Z 004592ce f i uafxcw:afxframeimpl.obj
 0001:000582ce       ?AddTail@?$CList@PAUHINSTANCE__@@PAU1@@@QAEPAU__POSITION@@PAUHINSTANCE__@@@Z 004592ce f i uafxcw:afxtoolbarimages.obj
 0001:000582fa       ?AdjustLayout@CPaneFrameWnd@@UAEXXZ 004592fa f   uafxcw:afxpaneframewnd.obj
 0001:00058330       ?AreMDITabs@CMDIFrameWndEx@@QBEHPAH@Z 00459330 f i uafxcw:afxpaneframewnd.obj
 0001:00058373       ?ArrangeCaptionButtons@CPaneFrameWnd@@IAEXXZ 00459373 f   uafxcw:afxpaneframewnd.obj
 0001:00058464       ?BitBlt@CDC@@QAEHHHHHPAV1@HHK@Z 00459464 f i uafxcw:afxpaneframewnd.obj
 0001:00058494       ?CalcBorderSize@CPaneFrameWnd@@UBEXAAVCRect@@@Z 00459494 f   uafxcw:afxpaneframewnd.obj
 0001:000584e2       ?CalcExpectedDockedRect@CPaneFrameWnd@@UAEXPAVCWnd@@VCPoint@@AAVCRect@@AAHPAPAVCDockablePane@@@Z 004594e2 f i uafxcw:afxpaneframewnd.obj
 0001:000584f8       ?CalcMinSize@CPaneFrameWnd@@MAEXAAVCSize@@PAUtagMINMAXINFO@@@Z 004594f8 f   uafxcw:afxpaneframewnd.obj
 0001:0005859a       ?CanBeAttached@CPaneFrameWnd@@UBEHXZ 0045959a f i uafxcw:afxpaneframewnd.obj
 0001:000585c0       ?CanBeDockedToPane@CPaneFrameWnd@@UBEHPBVCDockablePane@@@Z 004595c0 f   uafxcw:afxpaneframewnd.obj
 0001:000585eb       ?CloseMiniFrame@CPaneFrameWnd@@MAEXXZ 004595eb f   uafxcw:afxpaneframewnd.obj
 0001:00058622       ?ConvertToTabbedDocument@CPaneFrameWnd@@UAEXXZ 00459622 f   uafxcw:afxpaneframewnd.obj
 0001:0005865f       ?Create@CPaneFrameWnd@@UAEHPB_WKABUtagRECT@@PAVCWnd@@PAUCCreateContext@@@Z 0045965f f   uafxcw:afxpaneframewnd.obj
 0001:0005867c       ?CreateCompatibleDC@CDC@@QAEHPAV1@@Z 0045967c f i uafxcw:afxpaneframewnd.obj
 0001:000586a0       ?CreateEx@CPaneFrameWnd@@UAEHKPB_WKABUtagRECT@@PAVCWnd@@PAUCCreateContext@@@Z 004596a0 f   uafxcw:afxpaneframewnd.obj
 0001:0005877d       ?DockPane@CPaneFrameWnd@@UAEPAVCDockablePane@@AAH@Z 0045977d f   uafxcw:afxpaneframewnd.obj
 0001:000589e4       ?DockPaneStandard@CPaneFrameWnd@@MAEPAVCDockablePane@@AAH@Z 004599e4 f   uafxcw:afxpaneframewnd.obj
 0001:00058a5b       ?EnterDragMode@CPaneFrameWnd@@MAEXPAUHWND__@@@Z 00459a5b f   uafxcw:afxpaneframewnd.obj
 0001:00058b12       ?FillRect@CDC@@QAEXPBUtagRECT@@PAVCBrush@@@Z 00459b12 f i uafxcw:afxpaneframewnd.obj
 0001:00058b30       ?Find@?$CList@PAVIControlSiteFactory@@PAV1@@@QBEPAU__POSITION@@PAVIControlSiteFactory@@PAU2@@Z 00459b30 f i uafxcw:occmgr.obj
 0001:00058b30       ?Find@?$CList@II@@QBEPAU__POSITION@@IPAU2@@Z 00459b30 f i uafxcw:afxtoolbar.obj
 0001:00058b30       ?Find@?$CList@PAUHWND__@@PAU1@@@QBEPAU__POSITION@@PAUHWND__@@PAU2@@Z 00459b30 f i uafxcw:afxpaneframewnd.obj
 0001:00058b62       ?FindButton@CPaneFrameWnd@@IBEPAVCMFCCaptionButton@@I@Z 00459b62 f   uafxcw:afxpaneframewnd.obj
 0001:00058ba8       ?FindButton@CPaneFrameWnd@@IBEPAVCMFCCaptionButton@@VCPoint@@@Z 00459ba8 f   uafxcw:afxpaneframewnd.obj
 0001:00058c5d       ?FindFloatingPaneByID@CPaneFrameWnd@@SGPAVCBasePane@@I@Z 00459c5d f   uafxcw:afxpaneframewnd.obj
 0001:00058c95       ?FreeNode@?$CList@PAVCMFCPropertyGridProperty@@PAV1@@@IAEXPAUCNode@1@@Z 00459c95 f i uafxcw:afxpropertygridctrl.obj
 0001:00058c95       ?FreeNode@?$CList@PAVCPropertyPage@@PAV1@@@IAEXPAUCNode@1@@Z 00459c95 f i uafxcw:afxtoolbarscustomizedialog.obj
 0001:00058c95       ?FreeNode@?$CList@PAUHWND__@@AAPAU1@@@IAEXPAUCNode@1@@Z 00459c95 f i uafxcw:afxdockingmanager.obj
 0001:00058c95       ?FreeNode@?$CList@IAAI@@IAEXPAUCNode@1@@Z 00459c95 f i uafxcw:afxdockingmanager.obj
 0001:00058c95       ?FreeNode@?$CList@PAVCFrameWnd@@PAV1@@@IAEXPAUCNode@1@@Z 00459c95 f i uafxcw:afxframeimpl.obj
 0001:00058c95       ?FreeNode@?$CList@PAVCMFCButton@@PAV1@@@IAEXPAUCNode@1@@Z 00459c95 f i uafxcw:afxvslistbox.obj
 0001:00058c95       ?FreeNode@?$CList@PAUHWND__@@PAU1@@@IAEXPAUCNode@1@@Z 00459c95 f i uafxcw:afxpaneframewnd.obj
 0001:00058cb1       ?GetCaptionButtonTotalWidth@CPaneFrameWnd@@IBEHXZ 00459cb1 f   uafxcw:afxpaneframewnd.obj
 0001:00058d0e       ?GetCaptionHeight@CPaneFrameWnd@@UBEHXZ 00459d0e f i uafxcw:afxpaneframewnd.obj
 0001:00058d15       ?GetCaptionRect@CPaneFrameWnd@@UBEXAAVCRect@@@Z 00459d15 f   uafxcw:afxpaneframewnd.obj
 0001:00058dd2       ?GetCaptionText@CPaneFrameWnd@@UAE?AV?$CStringT@_WV?$StrTraitMFC@_WV?$ChTraitsCRT@_W@ATL@@@@@ATL@@XZ 00459dd2 f   uafxcw:afxpaneframewnd.obj
 0001:00058e55       ?GetDockingMode@CPaneFrameWnd@@UBE?AW4AFX_DOCK_TYPE@@XZ 00459e55 f   uafxcw:afxpaneframewnd.obj
 0001:00058e7e       ?GetFirstVisiblePane@CPaneFrameWnd@@UBEPAVCWnd@@XZ 00459e7e f   uafxcw:afxpaneframewnd.obj
 0001:00058e9d       ?GetGlobalData@@YAPAUAFX_GLOBAL_DATA@@XZ 00459e9d f i uafxcw:afxpaneframewnd.obj
 0001:00058ec1       ?GetInstance@CMFCVisualManager@@SGPAV1@XZ 00459ec1 f i uafxcw:afxpaneframewnd.obj
 0001:00058f2f       ?GetMessageMap@CPaneFrameWnd@@MBEPBUAFX_MSGMAP@@XZ 00459f2f f   uafxcw:afxpaneframewnd.obj
 0001:00058f2f       ?GetThisMessageMap@CPaneFrameWnd@@KGPBUAFX_MSGMAP@@XZ 00459f2f f   uafxcw:afxpaneframewnd.obj
 0001:00058f35       ?GetNext@CPtrList@@QAEAAPAXAAPAU__POSITION@@@Z 00459f35 f i uafxcw:wincore.obj
 0001:00058f35       ?GetNext@CStringList@@QAEAAV?$CStringT@_WV?$StrTraitMFC@_WV?$ChTraitsCRT@_W@ATL@@@@@ATL@@AAPAU__POSITION@@@Z 00459f35 f i uafxcw:afxtoolbarscustomizedialog.obj
 0001:00058f35       ?GetNext@CObList@@QAEAAPAVCObject@@AAPAU__POSITION@@@Z 00459f35 f i uafxcw:afxpaneframewnd.obj
 0001:00058f35       ?GetNext@CStringList@@QBEABV?$CStringT@_WV?$StrTraitMFC@_WV?$ChTraitsCRT@_W@ATL@@@@@ATL@@AAPAU__POSITION@@@Z 00459f35 f i uafxcw:afxtoolbarscustomizedialog.obj
 0001:00058f52       ?GetNext@CObList@@QBEPBVCObject@@AAPAU__POSITION@@@Z 00459f52 f i uafxcw:afxpaneframewnd.obj
 0001:00058f52       ?GetNext@CPtrList@@QBEPBXAAPAU__POSITION@@@Z 00459f52 f i uafxcw:winocc.obj
 0001:00058f6f       ?GetPane@CPaneFrameWnd@@UBEPAVCWnd@@XZ 00459f6f f   uafxcw:afxpaneframewnd.obj
 0001:00058f7b       ?GetPaneCount@CPaneFrameWnd@@UBEHXZ 00459f7b f i uafxcw:afxpaneframewnd.obj
 0001:00058f8d       ?GetPaneList@CPaneFrameWnd@@KGXAAVCObList@@PAUCRuntimeClass@@H@Z 00459f8d f   uafxcw:afxpaneframewnd.obj
 0001:00059037       ?GetRuntimeClass@CPaneFrameWnd@@UBEPAUCRuntimeClass@@XZ 0045a037 f   uafxcw:afxpaneframewnd.obj
 0001:0005903d       ?GetSize@CMFCCaptionButton@@SG?AVCSize@@XZ 0045a03d f i uafxcw:afxpaneframewnd.obj
 0001:0005909b       ?GetSmartDockingManager@CDockingManager@@QAEPAVCSmartDockingManager@@XZ 0045a09b f i uafxcw:afxpaneframewnd.obj
 0001:0005911d       ?GetVisiblePaneCount@CPaneFrameWnd@@UBEHXZ 0045a11d f i uafxcw:afxpaneframewnd.obj
 0001:0005914e       ?HitTest@CPaneFrameWnd@@UAEJVCPoint@@H@Z 0045a14e f   uafxcw:afxpaneframewnd.obj
 0001:000595c1       ?InitHashTable@?$CMap@V?$CStringT@_WV?$StrTraitMFC@_WV?$ChTraitsCRT@_W@ATL@@@@@ATL@@PB_WV12@PB_W@@QAEXIH@Z 0045a5c1 f i uafxcw:afxdatarecovery.obj
 0001:000595c1       ?InitHashTable@?$CMap@IIII@@QAEXIH@Z 0045a5c1 f i uafxcw:afxpopupmenubar.obj
 0001:000595c1       ?InitHashTable@?$CMap@PAUHWND__@@PAU1@HH@@QAEXIH@Z 0045a5c1 f i uafxcw:afxvisualmanageroffice2007.obj
 0001:000595c1       ?InitHashTable@?$CMap@PAVCWnd@@PAV1@PAVCHwndRenderTarget@@PAV2@@@QAEXIH@Z 0045a5c1 f i uafxcw:wincore.obj
 0001:000595c1       ?InitHashTable@?$CMap@IIHH@@QAEXIH@Z 0045a5c1 f i uafxcw:afxtoolbar.obj
 0001:000595c1       ?InitHashTable@?$CMap@V?$CStringT@_WV?$StrTraitMFC@_WV?$ChTraitsCRT@_W@ATL@@@@@ATL@@PB_WPAVCObList@@PAV3@@@QAEXIH@Z 0045a5c1 f i uafxcw:afxtoolbarscustomizedialog.obj
 0001:000595c1       ?InitHashTable@?$CMap@HHII@@QAEXIH@Z 0045a5c1 f i uafxcw:afxmousemanager.obj
 0001:000595c1       ?InitHashTable@?$CMap@PAVCWnd@@PAV1@PAVCImageList@@PAV2@@@QAEXIH@Z 0045a5c1 f i uafxcw:afxmdiclientareawnd.obj
 0001:000595c1       ?InitHashTable@?$CMap@PAVCDocument@@PAV1@V?$CStringT@_WV?$StrTraitMFC@_WV?$ChTraitsCRT@_W@ATL@@@@@ATL@@PB_W@@QAEXIH@Z 0045a5c1 f i uafxcw:afxdatarecovery.obj
 0001:000595c1       ?InitHashTable@?$CMap@IIPAVCObList@@PAV1@@@QAEXIH@Z 0045a5c1 f i uafxcw:afxcontextmenumanager.obj
 0001:000595c1       ?InitHashTable@?$CMap@IIPAUHWND__@@PAU1@@@QAEXIH@Z 0045a5c1 f i uafxcw:afxpaneframewnd.obj
 0001:000595c1       ?InitHashTable@?$CMap@KKV?$CStringT@_WV?$StrTraitMFC@_WV?$ChTraitsCRT@_W@ATL@@@@@ATL@@PB_W@@QAEXIH@Z 0045a5c1 f i uafxcw:afxcolorbar.obj
 0001:000595c1       ?InitHashTable@?$CMap@IIPAUHMENU__@@PAU1@@@QAEXIH@Z 0045a5c1 f i uafxcw:afxcontextmenumanager.obj
 0001:000595c1       ?InitHashTable@?$CMap@IIKK@@QAEXIH@Z 0045a5c1 f i uafxcw:afxcolorbar.obj
 0001:000595c1       ?InitHashTable@?$CMap@HHHH@@QAEXIH@Z 0045a5c1 f i uafxcw:afxribbonpanel.obj
 0001:000595c1       ?InitHashTable@?$CMap@IIPAVCPane@@PAV1@@@QAEXIH@Z 0045a5c1 f i uafxcw:afxdockingmanager.obj
 0001:000595c1       ?InitHashTable@?$CMap@V?$CStringT@_WV?$StrTraitMFC@_WV?$ChTraitsCRT@_W@ATL@@@@@ATL@@PB_WPAVCDocument@@PAV3@@@QAEXIH@Z 0045a5c1 f i uafxcw:afxdatarecovery.obj
 0001:000595c1       ?InitHashTable@?$CMap@IIPAVCMFCRibbonStatusBarPane@@PAV1@@@QAEXIH@Z 0045a5c1 f i uafxcw:afxribbonstatusbarpane.obj
 0001:000595c1       ?InitHashTable@?$CMap@V?$CStringT@_WV?$StrTraitMFC@_WV?$ChTraitsCRT@_W@ATL@@@@@ATL@@PB_WHH@@QAEXIH@Z 0045a5c1 f i uafxcw:afxmousemanager.obj
 0001:000595c1       ?InitHashTable@?$CMap@PAUHMENU__@@AAPAU1@PAXAAPAX@@QAEXIH@Z 0045a5c1 f i uafxcw:afxmenuhash.obj
 0001:000595c1       ?InitHashTable@?$CMap@PAUHICON__@@PAU1@HH@@QAEXIH@Z 0045a5c1 f i uafxcw:afxbasetabctrl.obj
 0001:000595c1       ?InitHashTable@?$CMap@V?$CStringT@_WV?$StrTraitMFC@_WV?$ChTraitsCRT@_W@ATL@@@@@ATL@@PB_W_N_N@@QAEXIH@Z 0045a5c1 f i uafxcw:afxdatarecovery.obj
 0001:000595c1       ?InitHashTable@?$CMap@IIPAUHICON__@@PAU1@@@QAEXIH@Z 0045a5c1 f i uafxcw:afxtabctrl.obj
 0001:000595c1       ?InitHashTable@?$CMap@IAAIPAVCMFCToolBarButton@@AAPAV1@@@QAEXIH@Z 0045a5c1 f i uafxcw:afxtoolbar.obj
 0001:000595c1       ?InitHashTable@?$CMap@V?$CStringT@_WV?$StrTraitMFC@_WV?$ChTraitsCRT@_W@ATL@@@@@ATL@@PB_WPAUHMENU__@@PAU3@@@QAEXIH@Z 0045a5c1 f i uafxcw:afxcontextmenumanager.obj
 0001:00059624       ?IsCustModeAndNotFloatingToolbar@CPaneFrameWnd@@IBEHXZ 0045a624 f   uafxcw:afxpaneframewnd.obj
 0001:00059651       ?IsRollDown@CPaneFrameWnd@@UBEHXZ 0045a651 f   uafxcw:afxpaneframewnd.obj
 0001:000596dd       ?IsRollUp@CPaneFrameWnd@@UBEHXZ 0045a6dd f   uafxcw:afxpaneframewnd.obj
 0001:0005974b       ?KillDockingTimer@CPaneFrameWnd@@QAEXXZ 0045a74b f   uafxcw:afxpaneframewnd.obj
 0001:0005976b       ?KillRollupTimer@CPaneFrameWnd@@IAEXXZ 0045a76b f   uafxcw:afxpaneframewnd.obj
 0001:0005979f       ?LoadState@CPaneFrameWnd@@UAEHPB_WI@Z 0045a79f f   uafxcw:afxpaneframewnd.obj
 0001:000597d9       ?MoveDragFrame@CPaneFrameWnd@@IAEXXZ 0045a7d9 f   uafxcw:afxpaneframewnd.obj
 0001:000597e7       ?MoveMiniFrame@CPaneFrameWnd@@IAEHXZ 0045a7e7 f   uafxcw:afxpaneframewnd.obj
 0001:0005989e       ?NewNode@?$CList@PAVIControlSiteFactory@@PAV1@@@IAEPAUCNode@1@PAU21@0@Z 0045a89e f i uafxcw:occmgr.obj
 0001:0005989e       ?NewNode@?$CList@PAVCMDIChildWndEx@@PAV1@@@IAEPAUCNode@1@PAU21@0@Z 0045a89e f i uafxcw:afxmdiclientareawnd.obj
 0001:0005989e       ?NewNode@?$CList@PAU_ITEMIDLIST@@PAU1@@@IAEPAUCNode@1@PAU21@0@Z 0045a89e f i uafxcw:afxshelltreectrl.obj
 0001:0005989e       ?NewNode@?$CList@PAUHWND__@@AAPAU1@@@IAEPAUCNode@1@PAU21@0@Z 0045a89e f i uafxcw:afxdockingmanager.obj
 0001:0005989e       ?NewNode@?$CList@PAVCMFCButton@@PAV1@@@IAEPAUCNode@1@PAU21@0@Z 0045a89e f i uafxcw:afxvslistbox.obj
 0001:0005989e       ?NewNode@?$CList@PAVCPropertyPage@@PAV1@@@IAEPAUCNode@1@PAU21@0@Z 0045a89e f i uafxcw:afxtoolbarscustomizedialog.obj
 0001:0005989e       ?NewNode@?$CList@PAUHWND__@@PAU1@@@IAEPAUCNode@1@PAU21@0@Z 0045a89e f i uafxcw:afxpaneframewnd.obj
 0001:0005989e       ?NewNode@?$CList@IAAI@@IAEPAUCNode@1@PAU21@0@Z 0045a89e f i uafxcw:afxdockingmanager.obj
 0001:0005989e       ?NewNode@?$CList@PAUHINSTANCE__@@PAU1@@@IAEPAUCNode@1@PAU21@0@Z 0045a89e f i uafxcw:afxtoolbarimages.obj
 0001:0005989e       ?NewNode@?$CList@PAVCMFCPropertyGridProperty@@PAV1@@@IAEPAUCNode@1@PAU21@0@Z 0045a89e f i uafxcw:afxpropertygridctrl.obj
 0001:0005989e       ?NewNode@?$CList@PAVCFrameWnd@@PAV1@@@IAEPAUCNode@1@PAU21@0@Z 0045a89e f i uafxcw:afxframeimpl.obj
 0001:0005989e       ?NewNode@?$CList@KK@@IAEPAUCNode@1@PAU21@0@Z 0045a89e f i uafxcw:afxcolorbar.obj
 0001:000598fc       ?OnBeforeDock@CPaneFrameWnd@@UAEHXZ 0045a8fc f   uafxcw:afxpaneframewnd.obj
 0001:000599bf       ?OnCancelMode@CPaneFrameWnd@@IAEXXZ 0045a9bf f   uafxcw:afxpaneframewnd.obj
 0001:00059b00       ?OnCancelMode@CWnd@@IAEXXZ 0045ab00 f i uafxcw:afxpaneframewnd.obj
 0001:00059b00       ?OnPaint@CCommonDialog@@IAEXXZ 0045ab00 f i uafxcw:dlgcomm.obj
 0001:00059b00       ?OnCancelMode@CMFCColorPickerCtrl@@IAEXXZ 0045ab00 f i uafxcw:afxcolorpickerctrl.obj
 0001:00059b00       ?OnCancel@CCommonDialog@@MAEXXZ 0045ab00 f i uafxcw:dlgcomm.obj
 0001:00059b05       ?OnCapture@CPaneFrameWnd@@MAEXH@Z 0045ab05 f   uafxcw:afxpaneframewnd.obj
 0001:00059b97       ?OnChar@CPaneFrameWnd@@IAEXIII@Z 0045ab97 f   uafxcw:afxpaneframewnd.obj
 0001:00059c2d       ?OnCheckEmptyState@CPaneFrameWnd@@IAEJIJ@Z 0045ac2d f   uafxcw:afxpaneframewnd.obj
 0001:00059c59       ?OnCheckRollState@CPaneFrameWnd@@MAEXXZ 0045ac59 f   uafxcw:afxpaneframewnd.obj
 0001:00059d7b       ?OnClose@CPaneFrameWnd@@IAEXXZ 0045ad7b f   uafxcw:afxpaneframewnd.obj
 0001:00059d83       ?OnCloseMiniFrame@CPaneFrameWnd@@MAEHXZ 0045ad83 f   uafxcw:afxpaneframewnd.obj
 0001:00059e11       ?OnContextMenu@CPaneFrameWnd@@IAEXPAVCWnd@@VCPoint@@@Z 0045ae11 f   uafxcw:afxpaneframewnd.obj
 0001:00059f35       ?OnCreate@CPaneFrameWnd@@IAEHPAUtagCREATESTRUCTW@@@Z 0045af35 f   uafxcw:afxpaneframewnd.obj
 0001:00059f71       ?OnDestroy@CPaneFrameWnd@@IAEXXZ 0045af71 f   uafxcw:afxpaneframewnd.obj
 0001:0005a016       ?OnDockToRecentPos@CPaneFrameWnd@@UAEXXZ 0045b016 f   uafxcw:afxpaneframewnd.obj
 0001:0005a090       ?OnDrawBorder@CPaneFrameWnd@@MAEXPAVCDC@@@Z 0045b090 f   uafxcw:afxpaneframewnd.obj
 0001:0005a1ed       ?OnDrawCaptionButtons@CPaneFrameWnd@@MAEXPAVCDC@@@Z 0045b1ed f   uafxcw:afxpaneframewnd.obj
 0001:0005a292       ?OnExitSizeMove@CPaneFrameWnd@@IAEXXZ 0045b292 f   uafxcw:afxpaneframewnd.obj
 0001:0005a2bf       ?OnGetMinMaxInfo@CPaneFrameWnd@@IAEXPAUtagMINMAXINFO@@@Z 0045b2bf f   uafxcw:afxpaneframewnd.obj
 0001:0005a318       ?OnIdleUpdateCmdUI@CPaneFrameWnd@@IAEJIJ@Z 0045b318 f   uafxcw:afxpaneframewnd.obj
 0001:0005a38d       ?OnKillRollUpTimer@CPaneFrameWnd@@UAEXXZ 0045b38d f   uafxcw:afxpaneframewnd.obj
 0001:0005a3c1       ?OnLButtonDblClk@CPaneFrameWnd@@IAEXIVCPoint@@@Z 0045b3c1 f   uafxcw:afxpaneframewnd.obj
 0001:0005a40b       ?OnLButtonDown@CPaneFrameWnd@@IAEXIVCPoint@@@Z 0045b40b f   uafxcw:afxpaneframewnd.obj
 0001:0005a4d6       ?OnLButtonUp@CPaneFrameWnd@@IAEXIVCPoint@@@Z 0045b4d6 f   uafxcw:afxpaneframewnd.obj
 0001:0005a6de       ?OnMouseActivate@CPaneFrameWnd@@IAEHPAVCWnd@@II@Z 0045b6de f   uafxcw:afxpaneframewnd.obj
 0001:0005a77b       ?OnMouseMove@CPaneFrameWnd@@IAEXIVCPoint@@@Z 0045b77b f   uafxcw:afxpaneframewnd.obj
 0001:0005afc8       ?OnMovePane@CPaneFrameWnd@@UAEXPAVCPane@@VCPoint@@@Z 0045bfc8 f   uafxcw:afxpaneframewnd.obj
 0001:0005b024       ?OnMoving@CPaneFrameWnd@@IAEXIPAUtagRECT@@@Z 0045c024 f   uafxcw:afxpaneframewnd.obj
 0001:0005b037       ?OnNcActivate@CPaneFrameWnd@@IAEHH@Z 0045c037 f   uafxcw:afxpaneframewnd.obj
 0001:0005b0ab       ?OnNcCalcSize@CPaneFrameWnd@@IAEXHPAUtagNCCALCSIZE_PARAMS@@@Z 0045c0ab f   uafxcw:afxpaneframewnd.obj
 0001:0005b114       ?OnNcCreate@CPaneFrameWnd@@IAEHPAUtagCREATESTRUCTW@@@Z 0045c114 f   uafxcw:afxpaneframewnd.obj
 0001:0005b114       ?OnNcCreate@CMiniFrameWnd@@QAEHPAUtagCREATESTRUCTW@@@Z 0045c114 f   uafxcw:winmini.obj
 0001:0005b1b1       ?OnNcDestroy@CPaneFrameWnd@@IAEXXZ 0045c1b1 f   uafxcw:afxpaneframewnd.obj
 0001:0005b1cf       ?OnNcHitTest@CPaneFrameWnd@@IAEJVCPoint@@@Z 0045c1cf f   uafxcw:afxpaneframewnd.obj
 0001:0005b1e6       ?OnNcMouseMove@CPaneFrameWnd@@IAEXIVCPoint@@@Z 0045c1e6 f   uafxcw:afxpaneframewnd.obj
 0001:0005b215       ?OnNcPaint@CPaneFrameWnd@@IAEXXZ 0045c215 f   uafxcw:afxpaneframewnd.obj
 0001:0005b72b       ?OnNeedTipText@CPaneFrameWnd@@IAEHIPAUtagNMHDR@@PAJ@Z 0045c72b f   uafxcw:afxpaneframewnd.obj
 0001:0005b84c       ?OnPaneRecalcLayout@CPaneFrameWnd@@UAEXXZ 0045c84c f   uafxcw:afxpaneframewnd.obj
 0001:0005b950       ?OnPressButtons@CPaneFrameWnd@@MAEXI@Z 0045c950 f   uafxcw:afxpaneframewnd.obj
 0001:0005bd25       ?OnSetCursor@CPaneFrameWnd@@IAEHPAVCWnd@@II@Z 0045cd25 f   uafxcw:afxpaneframewnd.obj
 0001:0005bda5       ?OnSetFocus@CPaneFrameWnd@@IAEXPAVCWnd@@@Z 0045cda5 f   uafxcw:afxpaneframewnd.obj
 0001:0005be5a       ?OnSetRollUpTimer@CPaneFrameWnd@@UAEXXZ 0045ce5a f   uafxcw:afxpaneframewnd.obj
 0001:0005be8e       ?OnSettingChange@CPaneFrameWnd@@IAEXIPB_W@Z 0045ce8e f   uafxcw:afxpaneframewnd.obj
 0001:0005beae       ?OnSize@CPaneFrameWnd@@IAEXIHH@Z 0045ceae f   uafxcw:afxpaneframewnd.obj
 0001:0005bf53       ?OnSizing@CPaneFrameWnd@@IAEXIPAUtagRECT@@@Z 0045cf53 f   uafxcw:afxpaneframewnd.obj
 0001:0005c199       ?OnTimer@CPaneFrameWnd@@IAEXI@Z 0045d199 f   uafxcw:afxpaneframewnd.obj
 0001:0005c1ea       ?OnTrackCaptionButtons@CPaneFrameWnd@@MAEXVCPoint@@@Z 0045d1ea f   uafxcw:afxpaneframewnd.obj
 0001:0005c2e9       ?OnUpdateToolTips@CPaneFrameWnd@@IAEJIJ@Z 0045d2e9 f   uafxcw:afxpaneframewnd.obj
 0001:0005c319       ?OnWindowPosChanging@CPaneFrameWnd@@IAEXPAUtagWINDOWPOS@@@Z 0045d319 f   uafxcw:afxpaneframewnd.obj
 0001:0005c3ed       ?PaneFromPoint@CPaneFrameWnd@@UAEPAVCBasePane@@VCPoint@@HH@Z 0045d3ed f   uafxcw:afxpaneframewnd.obj
 0001:0005c474       ?PreCreateWindow@CPaneFrameWnd@@MAEHAAUtagCREATESTRUCTW@@@Z 0045d474 f   uafxcw:afxpaneframewnd.obj
 0001:0005c48b       ?PreTranslateMessage@CPaneFrameWnd@@UAEHPAUtagMSG@@@Z 0045d48b f   uafxcw:afxpaneframewnd.obj
 0001:0005c52b       ?RecalcCaptionHeight@CPaneFrameWnd@@MAEXXZ 0045d52b f   uafxcw:afxpaneframewnd.obj
 0001:0005c56f       ?RedrawAll@CPaneFrameWnd@@SGXXZ 0045d56f f   uafxcw:afxpaneframewnd.obj
 0001:0005c5a1       ?RedrawCaptionButton@CPaneFrameWnd@@IAEXPAVCMFCCaptionButton@@@Z 0045d5a1 f   uafxcw:afxpaneframewnd.obj
 0001:0005c60f       ?RemoveAllCaptionButtons@CPaneFrameWnd@@IAEXXZ 0045d60f f   uafxcw:afxpaneframewnd.obj
 0001:0005c647       ?RemoveAt@?$CList@PAVCFrameWnd@@PAV1@@@QAEXPAU__POSITION@@@Z 0045d647 f i uafxcw:afxframeimpl.obj
 0001:0005c647       ?RemoveAt@?$CList@PAUHWND__@@AAPAU1@@@QAEXPAU__POSITION@@@Z 0045d647 f i uafxcw:afxdockingmanager.obj
 0001:0005c647       ?RemoveAt@?$CList@IAAI@@QAEXPAU__POSITION@@@Z 0045d647 f i uafxcw:afxdockingmanager.obj
 0001:0005c647       ?RemoveAt@?$CList@PAUHWND__@@PAU1@@@QAEXPAU__POSITION@@@Z 0045d647 f i uafxcw:afxpaneframewnd.obj
 0001:0005c680       ?RemoveNonValidPanes@CPaneFrameWnd@@UAEXXZ 0045d680 f   uafxcw:afxpaneframewnd.obj
 0001:0005c6eb       ?RemovePane@CPaneFrameWnd@@UAEXPAVCBasePane@@HH@Z 0045d6eb f   uafxcw:afxpaneframewnd.obj
 0001:0005c762       ?ReplacePane@CPaneFrameWnd@@UAEXPAVCBasePane@@0@Z 0045d762 f   uafxcw:afxpaneframewnd.obj
 0001:0005c7b7       ?SaveRecentFloatingState@CPaneFrameWnd@@MAEXXZ 0045d7b7 f   uafxcw:afxpaneframewnd.obj
 0001:0005c83c       ?SaveState@CPaneFrameWnd@@UAEHPB_WI@Z 0045d83c f   uafxcw:afxpaneframewnd.obj
 0001:0005c876       ?Serialize@CPaneFrameWnd@@UAEXAAVCArchive@@@Z 0045d876 f   uafxcw:afxpaneframewnd.obj
 0001:0005ca0c       ?SetCaptionButtons@CPaneFrameWnd@@UAEXK@Z 0045da0c f   uafxcw:afxpaneframewnd.obj
 0001:0005cab4       ?SetCaptionButtonsToolTips@CPaneFrameWnd@@IAEXXZ 0045dab4 f   uafxcw:afxpaneframewnd.obj
 0001:0005cba2       ?SetDockState@CPaneFrameWnd@@UAEXPAVCDockingManager@@@Z 0045dba2 f   uafxcw:afxpaneframewnd.obj
 0001:0005ce18       ?SetDockingTimer@CPaneFrameWnd@@QAEXI@Z 0045de18 f   uafxcw:afxpaneframewnd.obj
 0001:0005ce4a       ?SetParent@CWnd@@QAEPAV1@PAV1@@Z 0045de4a f i uafxcw:afxpaneframewnd.obj
 0001:0005ce6b       ?SetPreDockState@CPaneFrameWnd@@UAEHW4AFX_PREDOCK_STATE@@PAVCBasePane@@W4AFX_DOCK_METHOD@@@Z 0045de6b f   uafxcw:afxpaneframewnd.obj
 0001:0005cf72       ?SetRollUpTimer@CPaneFrameWnd@@IAEXXZ 0045df72 f   uafxcw:afxpaneframewnd.obj
 0001:0005cfb0       ?SizeToContent@CPaneFrameWnd@@UAEXXZ 0045dfb0 f   uafxcw:afxpaneframewnd.obj
 0001:0005d061       ?StartSDocking@CDockingManager@@QAEXPAVCWnd@@@Z 0045e061 f i uafxcw:afxpaneframewnd.obj
 0001:0005d09b       ?StartTearOff@CPaneFrameWnd@@QAEHPAVCMFCPopupMenu@@@Z 0045e09b f   uafxcw:afxpaneframewnd.obj
 0001:0005d383       ?StopCaptionButtonsTracking@CPaneFrameWnd@@MAEXXZ 0045e383 f   uafxcw:afxpaneframewnd.obj
 0001:0005d3ea       ?TrimLeft@?$CStringT@_WV?$StrTraitMFC@_WV?$ChTraitsCRT@_W@ATL@@@@@ATL@@QAEAAV12@XZ 0045e3ea f i uafxcw:afxpaneframewnd.obj
 0001:0005d44e       ?TrimRight@?$CStringT@_WV?$StrTraitMFC@_WV?$ChTraitsCRT@_W@ATL@@@@@ATL@@QAEAAV12@XZ 0045e44e f i uafxcw:afxpaneframewnd.obj
 0001:0005d4a0       ?UpdateTooltips@CPaneFrameWnd@@IAEXXZ 0045e4a0 f   uafxcw:afxpaneframewnd.obj
 0001:0005d5b4       ?CreateObject@CMultiPaneFrameWnd@@SGPAVCObject@@XZ 0045e5b4 f   uafxcw:afxmultipaneframewnd.obj
 0001:0005d5e4       ??0CMultiPaneFrameWnd@@QAE@XZ 0045e5e4 f   uafxcw:afxmultipaneframewnd.obj
 0001:0005d625       ??1CMultiPaneFrameWnd@@UAE@XZ 0045e625 f   uafxcw:afxmultipaneframewnd.obj
 0001:0005d65c       ??_GCMultiPaneFrameWnd@@UAEPAXI@Z 0045e65c f i uafxcw:afxmultipaneframewnd.obj
 0001:0005d65c       ??_ECMultiPaneFrameWnd@@UAEPAXI@Z 0045e65c f i uafxcw:afxmultipaneframewnd.obj
 0001:0005d67b       ?AddPane@CMultiPaneFrameWnd@@UAEXPAVCBasePane@@@Z 0045e67b f   uafxcw:afxmultipaneframewnd.obj
 0001:0005d6c8       ?AddRecentPane@CMultiPaneFrameWnd@@UAEHPAVCDockablePane@@@Z 0045e6c8 f   uafxcw:afxmultipaneframewnd.obj
 0001:0005d820       ?AdjustPaneFrames@CMultiPaneFrameWnd@@UAEXXZ 0045e820 f   uafxcw:afxmultipaneframewnd.obj
 0001:0005d871       ?CalcExpectedDockedRect@CMultiPaneFrameWnd@@UAEXPAVCWnd@@VCPoint@@AAVCRect@@AAHPAPAVCDockablePane@@@Z 0045e871 f   uafxcw:afxmultipaneframewnd.obj
 0001:0005d8d9       ?CanBeAttached@CMultiPaneFrameWnd@@UBEHXZ 0045e8d9 f i uafxcw:afxmultipaneframewnd.obj
 0001:0005d8e4       ?CanBeDockedToPane@CMultiPaneFrameWnd@@UBEHPBVCDockablePane@@@Z 0045e8e4 f   uafxcw:afxmultipaneframewnd.obj
 0001:0005d94f       ?CheckGripperVisibility@CMultiPaneFrameWnd@@UAEXXZ 0045e94f f   uafxcw:afxmultipaneframewnd.obj
 0001:0005d99e       ?CloseMiniFrame@CMultiPaneFrameWnd@@UAEXXZ 0045e99e f   uafxcw:afxmultipaneframewnd.obj
 0001:0005d9c4       ?ConvertToTabbedDocument@CMultiPaneFrameWnd@@UAEXXZ 0045e9c4 f   uafxcw:afxmultipaneframewnd.obj
 0001:0005da45       ?DockFrame@CMultiPaneFrameWnd@@UAEHPAVCPaneFrameWnd@@W4AFX_DOCK_METHOD@@@Z 0045ea45 f   uafxcw:afxmultipaneframewnd.obj
 0001:0005dc54       ?DockPane@CMultiPaneFrameWnd@@UAEHPAVCDockablePane@@@Z 0045ec54 f   uafxcw:afxmultipaneframewnd.obj
 0001:0005dd76       ?DockPaneStandard@CMultiPaneFrameWnd@@MAEPAVCDockablePane@@AAH@Z 0045ed76 f   uafxcw:afxmultipaneframewnd.obj
 0001:0005deeb       ?DockRecentPaneToMainFrame@CMultiPaneFrameWnd@@UAEXPAVCDockablePane@@@Z 0045eeeb f   uafxcw:afxmultipaneframewnd.obj
 0001:0005df0e       ?GetCaptionText@CMultiPaneFrameWnd@@UAE?AV?$CStringT@_WV?$StrTraitMFC@_WV?$ChTraitsCRT@_W@ATL@@@@@ATL@@XZ 0045ef0e f   uafxcw:afxmultipaneframewnd.obj
 0001:0005df81       ?GetFirstVisiblePane@CMultiPaneFrameWnd@@UBEPAVCWnd@@XZ 0045ef81 f i uafxcw:afxmultipaneframewnd.obj
 0001:0005df8c       ?GetMessageMap@CMultiPaneFrameWnd@@MBEPBUAFX_MSGMAP@@XZ 0045ef8c f   uafxcw:afxmultipaneframewnd.obj
 0001:0005df92       ?GetPane@CMultiPaneFrameWnd@@UBEPAVCWnd@@XZ 0045ef92 f   uafxcw:afxmultipaneframewnd.obj
 0001:0005dfba       ?GetPaneCount@CMultiPaneFrameWnd@@UBEHXZ 0045efba f i uafxcw:afxmultipaneframewnd.obj
 0001:0005dfc1       ?GetRuntimeClass@CMultiPaneFrameWnd@@UBEPAUCRuntimeClass@@XZ 0045efc1 f   uafxcw:afxmultipaneframewnd.obj
 0001:0005dfc7       ?GetVisiblePaneCount@CMultiPaneFrameWnd@@UBEHXZ 0045efc7 f i uafxcw:afxmultipaneframewnd.obj
 0001:0005dfd2       ?InsertPane@CMultiPaneFrameWnd@@UAEHPAVCBasePane@@0H@Z 0045efd2 f   uafxcw:afxmultipaneframewnd.obj
 0001:0005dfe6       ?LoadState@CMultiPaneFrameWnd@@UAEHPB_WI@Z 0045efe6 f   uafxcw:afxmultipaneframewnd.obj
 0001:0005e036       ?OnCheckEmptyState@CMultiPaneFrameWnd@@IAEJIJ@Z 0045f036 f   uafxcw:afxmultipaneframewnd.obj
 0001:0005e0b0       ?OnCreate@CMultiPaneFrameWnd@@IAEHPAUtagCREATESTRUCTW@@@Z 0045f0b0 f   uafxcw:afxmultipaneframewnd.obj
 0001:0005e0de       ?OnDockToRecentPos@CMultiPaneFrameWnd@@UAEXXZ 0045f0de f   uafxcw:afxmultipaneframewnd.obj
 0001:0005e1cb       ?OnGetMinMaxInfo@CMultiPaneFrameWnd@@IAEXPAUtagMINMAXINFO@@@Z 0045f1cb f   uafxcw:afxmultipaneframewnd.obj
 0001:0005e209       ?OnIdleUpdateCmdUI@CMultiPaneFrameWnd@@IAEJIJ@Z 0045f209 f   uafxcw:afxmultipaneframewnd.obj
 0001:0005e21c       ?OnKillRollUpTimer@CMultiPaneFrameWnd@@UAEXXZ 0045f21c f   uafxcw:afxmultipaneframewnd.obj
 0001:0005e29a       ?OnLButtonDblClk@CMultiPaneFrameWnd@@IAEXIVCPoint@@@Z 0045f29a f   uafxcw:afxmultipaneframewnd.obj
 0001:0005e2a5       ?OnPaneRecalcLayout@CMultiPaneFrameWnd@@UAEXXZ 0045f2a5 f   uafxcw:afxmultipaneframewnd.obj
 0001:0005e3a2       ?OnSetFocus@CMultiPaneFrameWnd@@IAEXPAVCWnd@@@Z 0045f3a2 f   uafxcw:afxmultipaneframewnd.obj
 0001:0005e47c       ?OnSetRollUpTimer@CMultiPaneFrameWnd@@UAEXXZ 0045f47c f   uafxcw:afxmultipaneframewnd.obj
 0001:0005e4fc       ?OnShowPane@CMultiPaneFrameWnd@@UAEXPAVCDockablePane@@H@Z 0045f4fc f   uafxcw:afxmultipaneframewnd.obj
 0001:0005e581       ?OnSize@CMultiPaneFrameWnd@@IAEXIHH@Z 0045f581 f   uafxcw:afxmultipaneframewnd.obj
 0001:0005e5b0       ?PaneFromPoint@CMultiPaneFrameWnd@@UAEPAVCBasePane@@VCPoint@@HH@Z 0045f5b0 f   uafxcw:afxmultipaneframewnd.obj
 0001:0005e5f7       ?RemoveNonValidPanes@CMultiPaneFrameWnd@@UAEXXZ 0045f5f7 f   uafxcw:afxmultipaneframewnd.obj
 0001:0005e602       ?RemovePane@CMultiPaneFrameWnd@@UAEXPAVCBasePane@@HH@Z 0045f602 f   uafxcw:afxmultipaneframewnd.obj
 0001:0005e6d7       ?ReplacePane@CMultiPaneFrameWnd@@UAEXPAVCBasePane@@0@Z 0045f6d7 f   uafxcw:afxmultipaneframewnd.obj
 0001:0005e6fd       ?SaveRecentFloatingState@CMultiPaneFrameWnd@@MAEXXZ 0045f6fd f   uafxcw:afxmultipaneframewnd.obj
 0001:0005e782       ?SaveState@CMultiPaneFrameWnd@@UAEHPB_WI@Z 0045f782 f   uafxcw:afxmultipaneframewnd.obj
 0001:0005e7d2       ?Serialize@CMultiPaneFrameWnd@@UAEXAAVCArchive@@@Z 0045f7d2 f   uafxcw:afxmultipaneframewnd.obj
 0001:0005e7ed       ?SetDockState@CMultiPaneFrameWnd@@UAEXPAVCDockingManager@@@Z 0045f7ed f   uafxcw:afxmultipaneframewnd.obj
 0001:0005ed20       ?SetPreDockState@CMultiPaneFrameWnd@@UAEHW4AFX_PREDOCK_STATE@@PAVCBasePane@@W4AFX_DOCK_METHOD@@@Z 0045fd20 f   uafxcw:afxmultipaneframewnd.obj
 0001:0005f1b3       ?StoreRecentDockSiteInfo@CMultiPaneFrameWnd@@UAEXPAVCPane@@@Z 004601b3 f   uafxcw:afxmultipaneframewnd.obj
 0001:0005f1fd       ?StoreRecentTabRelatedInfo@CMultiPaneFrameWnd@@UAEXPAVCDockablePane@@0@Z 004601fd f   uafxcw:afxmultipaneframewnd.obj
 0001:0005f235       ??$?5_WV?$StrTraitMFC@_WV?$ChTraitsCRT@_W@ATL@@@@@CArchive@@QAEAAV0@AAV?$CStringT@_WV?$StrTraitMFC@_WV?$ChTraitsCRT@_W@ATL@@@@@ATL@@@Z 00460235 f i uafxcw:strcore.obj
 0001:0005f38d       ??$?6_WV?$StrTraitMFC@_WV?$ChTraitsCRT@_W@ATL@@@@@CArchive@@QAEAAV0@ABV?$CStringT@_WV?$StrTraitMFC@_WV?$ChTraitsCRT@_W@ATL@@@@@ATL@@@Z 0046038d f i uafxcw:strcore.obj
 0001:0005f3bc       ??$AtlMultiplyThrow@I@ATL@@YAIII@Z 004603bc f i uafxcw:strcore.obj
 0001:0005f3e4       ??$HashKey@PB_W@@YGIPB_W@Z 004603e4 f   uafxcw:strcore.obj
 0001:0005f440       ??$SerializeElements@V?$CStringT@_WV?$StrTraitMFC@_WV?$ChTraitsCRT@_W@ATL@@@@@ATL@@@@YGXAAVCArchive@@PAV?$CStringT@_WV?$StrTraitMFC@_WV?$ChTraitsCRT@_W@ATL@@@@@ATL@@H@Z 00460440 f   uafxcw:strcore.obj
 0001:0005f445       ??$SerializeElementsInsertExtract@V?$CStringT@_WV?$StrTraitMFC@_WV?$ChTraitsCRT@_W@ATL@@@@@ATL@@@@YGXAAVCArchive@@PAV?$CStringT@_WV?$StrTraitMFC@_WV?$ChTraitsCRT@_W@ATL@@@@@ATL@@H@Z 00460445 f i uafxcw:strcore.obj
 0001:0005f490       ??0?$CStringT@_WV?$StrTraitMFC@_WV?$ChTraitsCRT@_W@ATL@@@@@ATL@@QAE@PBDH@Z 00460490 f i uafxcw:strcore.obj
 0001:0005f503       ??1?$CTempBuffer@D$0IA@VCCRTAllocator@ATL@@@ATL@@QAE@XZ 00460503 f i uafxcw:strcore.obj
 0001:0005f503       ??1?$CTempBuffer@_W$09VCCRTAllocator@ATL@@@ATL@@QAE@XZ 00460503 f i uafxcw:afxmaskededit.obj
 0001:0005f503       ??1?$CTempBuffer@_W$0IA@VCCRTAllocator@ATL@@@ATL@@QAE@XZ 00460503 f i uafxcw:strcore.obj
 0001:0005f50f       ??1CComBSTR@ATL@@QAE@XZ    0046050f f i uafxcw:strcore.obj
 0001:0005f518       ?AfxA2WHelper@@YGPA_WPA_WPBDH@Z 00460518 f   uafxcw:strcore.obj
 0001:0005f52f       ?AfxGetStringManager@@YGPAUIAtlStringMgr@ATL@@XZ 0046052f f   uafxcw:strcore.obj
 0001:0005f535       ?Allocate@?$CTempBuffer@D$0IA@VCCRTAllocator@ATL@@@ATL@@QAEPADI@Z 00460535 f i uafxcw:strcore.obj
 0001:0005f564       ?Allocate@?$CTempBuffer@_W$0IA@VCCRTAllocator@ATL@@@ATL@@QAEPA_WI@Z 00460564 f i uafxcw:strcore.obj
 0001:0005f593       ?Allocate@CAfxStringMgr@@UAEPAUCStringData@ATL@@HH@Z 00460593 f   uafxcw:strcore.obj
 0001:0005f5d0       ?AtlA2WHelper@@YGPA_WPA_WPBDHI@Z 004605d0 f i uafxcw:strcore.obj
 0001:0005f608       ?GetReBarCtrl@CMFCReBar@@QBEAAVCReBarCtrl@@XZ 00460608 f   uafxcw:afxrebar.obj
 0001:0005f608       ?Clone@CAfxStringMgr@@UAEPAUIAtlStringMgr@ATL@@XZ 00460608 f   uafxcw:strcore.obj
 0001:0005f608       ?GetActiveFrame@CFrameWnd@@UAEPAV1@XZ 00460608 f   uafxcw:winfrm.obj
 0001:0005f60b       ?ConvertToBaseType@?$ChTraitsCRT@D@ATL@@SAXPADHPB_WH@Z 0046060b f i uafxcw:strcore.obj
 0001:0005f629       ?Empty@?$CSimpleStringT@D$0A@@ATL@@QAEXXZ 00460629 f i uafxcw:strcore.obj
 0001:0005f65e       ?FreeHeap@?$CTempBuffer@D$0IA@VCCRTAllocator@ATL@@@ATL@@AAEXXZ 0046065e f i uafxcw:strcore.obj
 0001:0005f65e       ?FreeHeap@?$CTempBuffer@_W$0IA@VCCRTAllocator@ATL@@@ATL@@AAEXXZ 0046065e f i uafxcw:strcore.obj
 0001:0005f65e       ?FreeHeap@?$CTempBuffer@_W$09VCCRTAllocator@ATL@@@ATL@@AAEXXZ 0046065e f i uafxcw:afxmaskededit.obj
 0001:0005f667       ?GetBaseTypeLength@?$ChTraitsCRT@D@ATL@@SAHPB_WH@Z 00460667 f i uafxcw:strcore.obj
 0001:0005f681       ?GetNilString@CAfxStringMgr@@UAEPAUCStringData@ATL@@XZ 00460681 f   uafxcw:strcore.obj
 0001:0005f68f       ?Reallocate@CAfxStringMgr@@UAEPAUCStringData@ATL@@PAU23@HH@Z 0046068f f   uafxcw:strcore.obj
 0001:0005f6bf       ??_GCOleException@@UAEPAXI@Z 004606bf f i uafxcw:olemisc.obj
 0001:0005f6bf       ??_ECOleException@@UAEPAXI@Z 004606bf f i uafxcw:olemisc.obj
 0001:0005f6df       ?AfxMergeMenus@@YGPAUHMENU__@@PAU1@0PAJHH@Z 004606df f   uafxcw:olemisc.obj
 0001:0005f94b       ?AfxThrowOleException@@YGXJ@Z 0046094b f   uafxcw:olemisc.obj
 0001:0005f99d       ?AfxUnmergeMenus@@YGXPAUHMENU__@@00@Z 0046099d f   uafxcw:olemisc.obj
 0001:0005fa49       ?AtlCoTaskMemCAlloc@ATL@@YAPAXKK@Z 00460a49 f i uafxcw:olemisc.obj
 0001:0005fa78       ?GetErrorMessage@COleException@@UBEHPA_WIPAI@Z 00460a78 f   uafxcw:olemisc.obj
 0001:0005fad9       ?GetRuntimeClass@COleException@@UBEPAUCRuntimeClass@@XZ 00460ad9 f   uafxcw:olemisc.obj
 0001:0005fadf       ?Process@COleException@@SGJPBVCException@@@Z 00460adf f   uafxcw:olemisc.obj
 0001:0005fb31       ?_AfxCopyGlobalMemory@@YGPAXPAX0@Z 00460b31 f   uafxcw:olemisc.obj
 0001:0005fbac       ?_AfxCopyStgMedium@@YGHGPAUtagSTGMEDIUM@@0@Z 00460bac f   uafxcw:olemisc.obj
 0001:0005fe1f       ?_AfxFillFormatEtc@@YGPAUtagFORMATETC@@PAU1@G0@Z 00460e1f f   uafxcw:olemisc.obj
 0001:0005fe5d       ?_AfxOleCopyFormatEtc@@YGXPAUtagFORMATETC@@0@Z 00460e5d f   uafxcw:olemisc.obj
 0001:0005fe91       ?_AfxOleCopyTargetDevice@@YGPAUtagDVTARGETDEVICE@@PAU1@@Z 00460e91 f   uafxcw:olemisc.obj
 0001:0005fec5       ??0CException@@QAE@H@Z     00460ec5 f   uafxcw:except.obj
 0001:0005fed4       ??0CException@@QAE@XZ      00460ed4 f   uafxcw:except.obj
 0001:0005fede       ??_GCNotSupportedException@@UAEPAXI@Z 00460ede f i uafxcw:except.obj
 0001:0005fede       ??_ECUserException@@UAEPAXI@Z 00460ede f i uafxcw:wingdi.obj
 0001:0005fede       ??_ECMemoryException@@UAEPAXI@Z 00460ede f i uafxcw:except.obj
 0001:0005fede       ??_ECInvalidArgException@@UAEPAXI@Z 00460ede f i uafxcw:except.obj
 0001:0005fede       ??_GCMemoryException@@UAEPAXI@Z 00460ede f i uafxcw:except.obj
 0001:0005fede       ??_GCResourceException@@UAEPAXI@Z 00460ede f i uafxcw:wingdi.obj
 0001:0005fede       ??_GCUserException@@UAEPAXI@Z 00460ede f i uafxcw:wingdi.obj
 0001:0005fede       ??_GCInvalidArgException@@UAEPAXI@Z 00460ede f i uafxcw:except.obj
 0001:0005fede       ??_ECNotSupportedException@@UAEPAXI@Z 00460ede f i uafxcw:except.obj
 0001:0005fede       ??_ECResourceException@@UAEPAXI@Z 00460ede f i uafxcw:wingdi.obj
 0001:0005fefe       ?AfxThrowInvalidArgException@@YGXXZ 00460efe f   uafxcw:except.obj
 0001:0005ff18       ?AfxThrowMemoryException@@YGXXZ 00460f18 f   uafxcw:except.obj
 0001:0005ff32       ?AfxThrowNotSupportedException@@YGXXZ 00460f32 f   uafxcw:except.obj
 0001:0005ff4c       ?Delete@CException@@QAEXXZ 00460f4c f   uafxcw:except.obj
 0001:0005ff5a       ?GetErrorMessage@CException@@UAEHPA_WIPAI@Z 00460f5a f   uafxcw:except.obj
 0001:0005ff63       ?GetErrorMessage@CSimpleException@@UBEHPA_WIPAI@Z 00460f63 f   uafxcw:except.obj
 0001:0005ffbe       ?GetRuntimeClass@CInvalidArgException@@UBEPAUCRuntimeClass@@XZ 00460fbe f   uafxcw:except.obj
 0001:0005ffc4       ?GetRuntimeClass@CMemoryException@@UBEPAUCRuntimeClass@@XZ 00460fc4 f   uafxcw:except.obj
 0001:0005ffca       ?GetRuntimeClass@CNotSupportedException@@UBEPAUCRuntimeClass@@XZ 00460fca f   uafxcw:except.obj
 0001:0005ffd0       ?GetRuntimeClass@CSimpleException@@UBEPAUCRuntimeClass@@XZ 00460fd0 f   uafxcw:except.obj
 0001:0005ffd6       ?InitString@CSimpleException@@QAEXXZ 00460fd6 f   uafxcw:except.obj
 0001:0005ffff       ?ReportError@CException@@UAEHII@Z 00460fff f   uafxcw:except.obj
 0001:00060070       ?AfxExtractSubString@@YGHAAV?$CStringT@_WV?$StrTraitMFC@_WV?$ChTraitsCRT@_W@ATL@@@@@ATL@@PB_WH_W@Z 00461070 f   uafxcw:winstr.obj
 0001:000600f5       ?AfxFindStringResourceHandle@@YGPAUHINSTANCE__@@I@Z 004610f5 f   uafxcw:winstr.obj
 0001:00060100       ?AfxLoadString@@YGHIPA_WI@Z 00461100 f   uafxcw:winstr.obj
 0001:00060167       ??0CFormView@@IAE@I@Z      00461167 f   uafxcw:viewform.obj
 0001:000601a9       ??1CFormView@@UAE@XZ       004611a9 f   uafxcw:viewform.obj
 0001:000602cd       ??_GCFormView@@UAEPAXI@Z   004612cd f i uafxcw:viewform.obj
 0001:000602cd       ??_ECFormView@@UAEPAXI@Z   004612cd f i uafxcw:viewform.obj
 0001:000602ec       ?Create@CFormView@@MAEHPB_W0KABUtagRECT@@PAVCWnd@@IPAUCCreateContext@@@Z 004612ec f   uafxcw:viewform.obj
 0001:0006043a       ?GetThisMessageMap@CFormView@@KGPBUAFX_MSGMAP@@XZ 0046143a f   uafxcw:viewform.obj
 0001:0006043a       ?GetMessageMap@CFormView@@MBEPBUAFX_MSGMAP@@XZ 0046143a f   uafxcw:viewform.obj
 0001:00060440       ?GetOccDialogInfo@CFormView@@MAEPAU_AFX_OCC_DIALOG_INFO@@XZ 00461440 f   uafxcw:viewform.obj
 0001:000604ec       ?GetRuntimeClass@CFormView@@UBEPAUCRuntimeClass@@XZ 004614ec f   uafxcw:viewform.obj
 0001:000604f2       ?HandleInitDialog@CFormView@@IAEJIJ@Z 004614f2 f   uafxcw:viewform.obj
 0001:00060523       ?OnActivateFrame@CFormView@@MAEXIPAVCFrameWnd@@@Z 00461523 f   uafxcw:viewform.obj
 0001:00060535       ?OnActivateView@CFormView@@MAEXHPAVCView@@0@Z 00461535 f   uafxcw:viewform.obj
 0001:00060559       ?OnCreate@CFormView@@IAEHPAUtagCREATESTRUCTW@@@Z 00461559 f   uafxcw:viewform.obj
 0001:00060571       ?OnDraw@CFormView@@MAEXPAVCDC@@@Z 00461571 f   uafxcw:viewform.obj
 0001:0006057a       ?OnInitialUpdate@CFormView@@UAEXXZ 0046157a f   uafxcw:viewform.obj
 0001:0006058c       ?OnPrintClient@CFormView@@IAEJPAVCDC@@I@Z 0046158c f   uafxcw:viewform.obj
 0001:00060595       ?OnSetFocus@CFormView@@IAEXPAVCWnd@@@Z 00461595 f   uafxcw:viewform.obj
 0001:000605db       ?PreTranslateMessage@CFormView@@MAEHPAUtagMSG@@@Z 004615db f   uafxcw:viewform.obj
 0001:00060653       ?SaveFocusControl@CFormView@@IAEHXZ 00461653 f   uafxcw:viewform.obj
 0001:00060681       ?SetOccDialogInfo@CFormView@@MAEHPAU_AFX_OCC_DIALOG_INFO@@@Z 00461681 f   uafxcw:viewform.obj
 0001:00060694       ?CreateObject@CImageList@@SGPAVCObject@@XZ 00461694 f   uafxcw:winctrl2.obj
 0001:000606ae       ??0CImageList@@QAE@XZ      004616ae f   uafxcw:winctrl2.obj
 0001:000606bb       ??1CHeaderCtrl@@UAE@XZ     004616bb f   uafxcw:winctrl2.obj
 0001:000606ec       ??1CImageList@@UAE@XZ      004616ec f   uafxcw:winctrl2.obj
 0001:000607bd       ??1CListCtrl@@UAE@XZ       004617bd f   uafxcw:winctrl2.obj
 0001:000607ee       ??1CRichEditCtrl@@UAE@XZ   004617ee f   uafxcw:winctrl2.obj
 0001:0006081f       ??1CSpinButtonCtrl@@UAE@XZ 0046181f f   uafxcw:winctrl2.obj
 0001:00060850       ??1CTreeCtrl@@UAE@XZ       00461850 f   uafxcw:winctrl2.obj
 0001:00060881       ??_GCHeaderCtrl@@UAEPAXI@Z 00461881 f i uafxcw:winctrl2.obj
 0001:00060881       ??_ECHeaderCtrl@@UAEPAXI@Z 00461881 f i uafxcw:winctrl2.obj
 0001:000608a0       ??_GCImageList@@UAEPAXI@Z  004618a0 f i uafxcw:winctrl2.obj
 0001:000608a0       ??_ECImageList@@UAEPAXI@Z  004618a0 f i uafxcw:winctrl2.obj
 0001:000608bf       ??_ECRichEditCtrl@@UAEPAXI@Z 004618bf f i uafxcw:winctrl2.obj
 0001:000608bf       ??_GCRichEditCtrl@@UAEPAXI@Z 004618bf f i uafxcw:winctrl2.obj
 0001:000608de       ??_GCSpinButtonCtrl@@UAEPAXI@Z 004618de f i uafxcw:winctrl2.obj
 0001:000608de       ??_ECSpinButtonCtrl@@UAEPAXI@Z 004618de f i uafxcw:winctrl2.obj
 0001:000608fd       ??_GCTreeCtrl@@UAEPAXI@Z   004618fd f i uafxcw:winctrl2.obj
 0001:000608fd       ??_ECTreeCtrl@@UAEPAXI@Z   004618fd f i uafxcw:winctrl2.obj
 0001:0006091c       ?Attach@CImageList@@QAEHPAU_IMAGELIST@@@Z 0046191c f   uafxcw:winctrl2.obj
 0001:0006094c       ?Construct@?$ConstructDestruct@VCImageList@@@@SGXPAVCObject@@@Z 0046194c f i uafxcw:winctrl2.obj
 0001:00060964       ?Create@CHeaderCtrl@@UAEHKABUtagRECT@@PAVCWnd@@I@Z 00461964 f   uafxcw:winctrl2.obj
 0001:00060995       ?Create@CImageList@@QAEHHHIHH@Z 00461995 f   uafxcw:winctrl2.obj
 0001:000609bc       ?Create@CImageList@@QAEHIHHK@Z 004619bc f   uafxcw:winctrl2.obj
 0001:000609ed       ?Create@CSpinButtonCtrl@@UAEHKABUtagRECT@@PAVCWnd@@I@Z 004619ed f   uafxcw:winctrl2.obj
 0001:00060a1b       ?CreateEx@CHeaderCtrl@@UAEHKKABUtagRECT@@PAVCWnd@@I@Z 00461a1b f   uafxcw:winctrl2.obj
 0001:00060a1b       ?CreateEx@CSpinButtonCtrl@@UAEHKKABUtagRECT@@PAVCWnd@@I@Z 00461a1b f   uafxcw:winctrl2.obj
 0001:00060a52       ?DeleteImageList@CImageList@@QAEHXZ 00461a52 f   uafxcw:winctrl2.obj
 0001:00060a67       ?Detach@CImageList@@QAEPAU_IMAGELIST@@XZ 00461a67 f   uafxcw:winctrl2.obj
 0001:00060a91       ?FromHandle@CImageList@@SGPAV1@PAU_IMAGELIST@@@Z 00461a91 f   uafxcw:winctrl2.obj
 0001:00060aa3       ?FromHandlePermanent@CImageList@@SGPAV1@PAU_IMAGELIST@@@Z 00461aa3 f   uafxcw:winctrl2.obj
 0001:00060ac7       ?GetBuffer@?$CSimpleStringT@_W$0A@@ATL@@QAEPA_WXZ 00461ac7 f i uafxcw:winctrl2.obj
 0001:00060ade       ?GetItemData@CListCtrl@@QBEKH@Z 00461ade f   uafxcw:winctrl2.obj
 0001:00060b22       ?GetItemData@CTreeCtrl@@QBEKPAU_TREEITEM@@@Z 00461b22 f   uafxcw:winctrl2.obj
 0001:00060b6d       ?GetItemRect@CListCtrl@@QBEHHPAUtagRECT@@I@Z 00461b6d f   uafxcw:winctrl2.obj
 0001:00060b8e       ?GetItemRect@CTreeCtrl@@QBEHPAU_TREEITEM@@PAUtagRECT@@H@Z 00461b8e f   uafxcw:winctrl2.obj
 0001:00060baf       ?GetItemText@CListCtrl@@QBE?AV?$CStringT@_WV?$StrTraitMFC@_WV?$ChTraitsCRT@_W@ATL@@@@@ATL@@HH@Z 00461baf f   uafxcw:winctrl2.obj
 0001:00060c39       ?GetMessageMap@CListCtrl@@MBEPBUAFX_MSGMAP@@XZ 00461c39 f   uafxcw:winctrl2.obj
 0001:00060c39       ?GetThisMessageMap@CListCtrl@@KGPBUAFX_MSGMAP@@XZ 00461c39 f   uafxcw:winctrl2.obj
 0001:00060c3f       ?GetThisMessageMap@CTreeCtrl@@KGPBUAFX_MSGMAP@@XZ 00461c3f f   uafxcw:winctrl2.obj
 0001:00060c3f       ?GetMessageMap@CTreeCtrl@@MBEPBUAFX_MSGMAP@@XZ 00461c3f f   uafxcw:winctrl2.obj
 0001:00060c45       ?GetRuntimeClass@CHeaderCtrl@@UBEPAUCRuntimeClass@@XZ 00461c45 f   uafxcw:winctrl2.obj
 0001:00060c4b       ?GetRuntimeClass@CImageList@@UBEPAUCRuntimeClass@@XZ 00461c4b f   uafxcw:winctrl2.obj
 0001:00060c51       ?GetRuntimeClass@CListCtrl@@UBEPAUCRuntimeClass@@XZ 00461c51 f   uafxcw:winctrl2.obj
 0001:00060c57       ?GetRuntimeClass@CRichEditCtrl@@UBEPAUCRuntimeClass@@XZ 00461c57 f   uafxcw:winctrl2.obj
 0001:00060c5d       ?GetRuntimeClass@CSpinButtonCtrl@@UBEPAUCRuntimeClass@@XZ 00461c5d f   uafxcw:winctrl2.obj
 0001:00060c63       ?GetRuntimeClass@CTreeCtrl@@UBEPAUCRuntimeClass@@XZ 00461c63 f   uafxcw:winctrl2.obj
 0001:00060c69       ?HitTest@CListCtrl@@QBEHVCPoint@@PAI@Z 00461c69 f   uafxcw:winctrl2.obj
 0001:00060cb7       ?HitTest@CTreeCtrl@@QBEPAU_TREEITEM@@VCPoint@@PAI@Z 00461cb7 f   uafxcw:winctrl2.obj
 0001:00060cef       ?InsertColumn@CListCtrl@@QAEHHPB_WHHH@Z 00461cef f   uafxcw:winctrl2.obj
 0001:00060d44       ?InsertItem@CListCtrl@@QAEHIHPB_WIIHJ@Z 00461d44 f   uafxcw:winctrl2.obj
 0001:00060d92       ?OnChildNotify@CHeaderCtrl@@MAEHIIJPAJ@Z 00461d92 f   uafxcw:winctrl2.obj
 0001:00060db3       ?OnChildNotify@CListCtrl@@MAEHIIJPAJ@Z 00461db3 f   uafxcw:winctrl2.obj
 0001:00060dd4       ?OnDestroy@CTreeCtrl@@QAEXXZ 00461dd4 f   uafxcw:winctrl2.obj
 0001:00060def       ?OnNcDestroy@CListCtrl@@IAEXXZ 00461def f   uafxcw:winctrl2.obj
 0001:00060e13       ?RemoveImageList@CListCtrl@@IAEXH@Z 00461e13 f   uafxcw:winctrl2.obj
 0001:00060e4e       ?RemoveImageList@CTreeCtrl@@IAEXH@Z 00461e4e f   uafxcw:winctrl2.obj
 0001:00060e89       ?SetItem@CListCtrl@@QAEHHHIPB_WHIIJ@Z 00461e89 f   uafxcw:winctrl2.obj
 0001:00060eaf       ?SetItem@CListCtrl@@QAEHHHIPB_WHIIJH@Z 00461eaf f   uafxcw:winctrl2.obj
 0001:00060f05       ?SetItemState@CListCtrl@@QAEHHII@Z 00461f05 f   uafxcw:winctrl2.obj
 0001:00060f32       ?SetItemText@CListCtrl@@QAEHHHPB_W@Z 00461f32 f   uafxcw:winctrl2.obj
 0001:00060f5f       ?SetRange@CSliderCtrl@@QAEXHHH@Z 00461f5f f   uafxcw:winctrl2.obj
 0001:00060f92       ?afxMapHIMAGELIST@@YGPAVCHandleMap@@H@Z 00461f92 f   uafxcw:winctrl2.obj
 0001:00061003       _IsolationAwareImageList_Create@20 00462003 f i uafxcw:winctrl2.obj
 0001:000610b4       _IsolationAwareImageList_Destroy@4 004620b4 f i uafxcw:winctrl2.obj
 0001:00061159       _IsolationAwareImageList_LoadImageW@28 00462159 f i uafxcw:winctrl2.obj
 0001:00061210       ??0?$CTypedPtrListIterator@VCPtrList@@PAUCOleControlSiteOrWnd@@@@QAE@ABV0@@Z 00462210 f i uafxcw:winocc.obj
 0001:00061230       ??4?$CTypedPtrListIterator@VCPtrList@@PAUCOleControlSiteOrWnd@@@@QAEAAV0@ABV0@@Z 00462230 f i uafxcw:winocc.obj
 0001:0006124e       ?AttachControlSite@COleControlContainer@@UAEXPAVCWnd@@I@Z 0046224e f   uafxcw:winocc.obj
 0001:0006128f       ?AttachControlSite@CWnd@@IAEXPAVCHandleMap@@@Z 0046228f f   uafxcw:winocc.obj
 0001:000612cf       ?AttachControlSite@CWnd@@QAEXPAV1@I@Z 004622cf f   uafxcw:winocc.obj
 0001:000612f4       ?CheckDlgButton@CWnd@@QAEXHI@Z 004622f4 f   uafxcw:winocc.obj
 0001:00061319       ?EnableWindow@CWnd@@QAEHH@Z 00462319 f   uafxcw:winocc.obj
 0001:0006133e       ?FindSiteOrWnd@CWnd@@QBEPAU__POSITION@@PBUCOleControlSiteOrWnd@@@Z 0046233e f   uafxcw:winocc.obj
 0001:0006138f       ?FindSiteOrWndWithFocus@CWnd@@QBEPAU__POSITION@@XZ 0046238f f   uafxcw:winocc.obj
 0001:00061420       ?GetControlUnknown@CWnd@@QAEPAUIUnknown@@XZ 00462420 f   uafxcw:winocc.obj
 0001:0006142c       ?GetDlgCtrlID@CWnd@@QBEHXZ 0046242c f   uafxcw:winocc.obj
 0001:00061447       ?GetDlgItem@CWnd@@QBEPAV1@H@Z 00462447 f   uafxcw:winocc.obj
 0001:0006146f       ?GetDlgItem@CWnd@@QBEXHPAPAUHWND__@@@Z 0046246f f   uafxcw:winocc.obj
 0001:00061496       ?GetExStyle@CWnd@@QBEKXZ   00462496 f   uafxcw:winocc.obj
 0001:000614b0       ?GetFirstButton@CDlgGroupRadioButtonIterator@@QBE?AVCDlgControlIterator@@XZ 004624b0 f i uafxcw:winocc.obj
 0001:00061510       ?GetLastButton@CDlgGroupRadioButtonIterator@@QBE?AVCDlgControlIterator@@XZ 00462510 f i uafxcw:winocc.obj
 0001:00061575       ?GetNextDlgGroupItem@CWnd@@QBEPAUCOleControlSiteOrWnd@@PAU2@@Z 00462575 f   uafxcw:winocc.obj
 0001:000615c7       ?GetNextDlgTabItem@CWnd@@QBEPAUCOleControlSiteOrWnd@@PAU2@H@Z 004625c7 f   uafxcw:winocc.obj
 0001:00061711       ?GetOleControlSite@CWnd@@QBEPAVCOleControlSite@@I@Z 00462711 f   uafxcw:winocc.obj
 0001:00061727       ?GetPrev@?$_CTypedPtrList@VCPtrList@@PAUCOleControlSiteOrWnd@@@@QAEAAPAUCOleControlSiteOrWnd@@AAPAU__POSITION@@@Z 00462727 f i uafxcw:winocc.obj
 0001:00061730       ?GetPrev@CPtrList@@QAEAAPAXAAPAU__POSITION@@@Z 00462730 f i uafxcw:winocc.obj
 0001:00061730       ?GetPrev@CObList@@QAEAAPAVCObject@@AAPAU__POSITION@@@Z 00462730 f i uafxcw:afxpaneframewnd.obj
 0001:0006174e       ?GetPrev@CPtrList@@QBEPBXAAPAU__POSITION@@@Z 0046274e f i uafxcw:winocc.obj
 0001:0006176c       ?GetPrevDlgGroupItem@CWnd@@QBEPAUCOleControlSiteOrWnd@@PAU2@@Z 0046276c f   uafxcw:winocc.obj
 0001:000617be       ?GetProperty@CWnd@@QBEXJGPAX@Z 004627be f   uafxcw:winocc.obj
 0001:000617e1       ?GetStyle@COleControlSiteOrWnd@@QBEKXZ 004627e1 f   uafxcw:winocc.obj
 0001:000617fa       ?GetStyle@CWnd@@QBEKXZ     004627fa f   uafxcw:winocc.obj
 0001:00061814       ?GetWindowTextW@CWnd@@QBEHPA_WH@Z 00462814 f   uafxcw:winocc.obj
 0001:00061896       ?InvokeHelper@CWnd@@QAAXJGGPAXPBEZZ 00462896 f   uafxcw:winocc.obj
 0001:000618bd       ?IsDialogMessageW@CWnd@@QAEHPAUtagMSG@@@Z 004628bd f   uafxcw:winocc.obj
 0001:000618f0       ?IsDisabled@CDlgGroupRadioButtonIterator@@SA_NPBUCOleControlSiteOrWnd@@@Z 004628f0 f i uafxcw:winocc.obj
 0001:00061936       ?IsWindowEnabled@CWnd@@QBEHXZ 00462936 f   uafxcw:winocc.obj
 0001:00061951       ?ModifyStyle@CWnd@@QAEHKKI@Z 00462951 f   uafxcw:winocc.obj
 0001:0006197b       ?ModifyStyleEx@CWnd@@QAEHKKI@Z 0046297b f   uafxcw:winocc.obj
 0001:000619a5       ?MoveNext@CDlgGroupRadioButtonIterator@@QAEXXZ 004629a5 f i uafxcw:winocc.obj
 0001:00061a23       ?MovePrev@CDlgGroupRadioButtonIterator@@QAEXXZ 00462a23 f i uafxcw:winocc.obj
 0001:00061aa3       ?MoveWindow@CWnd@@QAEXHHHHH@Z 00462aa3 f   uafxcw:winocc.obj
 0001:00061ae1       ?OnAmbientProperty@CWnd@@UAEHPAVCOleControlSite@@JPAUtagVARIANT@@@Z 00462ae1 f   uafxcw:winocc.obj
 0001:00061aed       ?PaintWindowlessControls@CWnd@@QAEHPAVCDC@@@Z 00462aed f   uafxcw:winocc.obj
 0001:00061b06       ?RemoveRadioCheckFromGroup@CWnd@@QBEXPBUCOleControlSiteOrWnd@@@Z 00462b06 f   uafxcw:winocc.obj
 0001:00061c11       ?SetDlgCtrlID@CWnd@@QAEHH@Z 00462c11 f   uafxcw:winocc.obj
 0001:00061c38       ?SetFocus@CWnd@@QAEPAV1@XZ 00462c38 f   uafxcw:winocc.obj
 0001:00061c9f       ?SetWindowPos@CWnd@@QAEHPBV1@HHHHI@Z 00462c9f f   uafxcw:winocc.obj
 0001:00061cdb       ?SetWindowTextW@CWnd@@QAEXPB_W@Z 00462cdb f   uafxcw:winocc.obj
 0001:00061d1f       ?ShowWindow@CWnd@@QAEHH@Z  00462d1f f   uafxcw:winocc.obj
 0001:00061d44       ?Skip@?$CTypedPtrListIterator@VCPtrList@@PAUCOleControlSiteOrWnd@@@@QBE?AV1@H@Z 00462d44 f i uafxcw:winocc.obj
 0001:00061d84       ??0CCmdTarget@@QAE@XZ      00462d84 f   uafxcw:cmdtarg.obj
 0001:00061daa       ??0CCmdUI@@QAE@XZ          00462daa f   uafxcw:cmdtarg.obj
 0001:00061dd0       ??1CCmdTarget@@UAE@XZ      00462dd0 f   uafxcw:cmdtarg.obj
 0001:00061de5       ?BeginWaitCursor@CCmdTarget@@QAEXXZ 00462de5 f   uafxcw:cmdtarg.obj
 0001:00061df8       ?DoUpdate@CCmdUI@@QAEHPAVCCmdTarget@@H@Z 00462df8 f   uafxcw:cmdtarg.obj
 0001:00061e6c       ?Enable@CCmdUI@@UAEXH@Z    00462e6c f   uafxcw:cmdtarg.obj
 0001:00061efd       ?EndWaitCursor@CCmdTarget@@QAEXXZ 00462efd f   uafxcw:cmdtarg.obj
 0001:00061f10       ?GetCommandMap@CCmdTarget@@MBEPBUAFX_OLECMDMAP@@XZ 00462f10 f   uafxcw:cmdtarg.obj
 0001:00061f16       ?GetConnectionMap@CCmdTarget@@MBEPBUAFX_CONNECTIONMAP@@XZ 00462f16 f   uafxcw:cmdtarg.obj
 0001:00061f1c       ?GetDispatchMap@CCmdTarget@@MBEPBUAFX_DISPMAP@@XZ 00462f1c f   uafxcw:cmdtarg.obj
 0001:00061f22       ?GetEventSinkMap@CCmdTarget@@MBEPBUAFX_EVENTSINKMAP@@XZ 00462f22 f   uafxcw:cmdtarg.obj
 0001:00061f28       ?GetInterfaceMap@CCmdTarget@@MBEPBUAFX_INTERFACEMAP@@XZ 00462f28 f   uafxcw:cmdtarg.obj
 0001:00061f2e       ?GetRuntimeClass@CCmdTarget@@UBEPAUCRuntimeClass@@XZ 00462f2e f   uafxcw:cmdtarg.obj
 0001:00061f34       ?GetMessageMap@CCmdTarget@@MBEPBUAFX_MSGMAP@@XZ 00462f34 f   uafxcw:cmdtarg.obj
 0001:00061f34       ?GetThisMessageMap@CCmdTarget@@KGPBUAFX_MSGMAP@@XZ 00462f34 f   uafxcw:cmdtarg.obj
 0001:00061f3a       ?GetTypeLib@CCmdTarget@@UAEJKPAPAUITypeLib@@@Z 00462f3a f   uafxcw:cmdtarg.obj
 0001:00061f42       ?OnCmdMsg@CCmdTarget@@UAEHIHPAXPAUAFX_CMDHANDLERINFO@@@Z 00462f42 f   uafxcw:cmdtarg.obj
 0001:0006206a       ?OnFinalRelease@CCmdTarget@@UAEXXZ 0046306a f   uafxcw:cmdtarg.obj
 0001:00062098       ?SetCheck@CCmdUI@@UAEXH@Z  00463098 f   uafxcw:cmdtarg.obj
 0001:00062110       ?SetRadio@CCmdUI@@UAEXH@Z  00463110 f   uafxcw:cmdtarg.obj
 0001:00062171       ?SetText@CCmdUI@@UAEXPB_W@Z 00463171 f   uafxcw:cmdtarg.obj
 0001:000621d4       ?_AfxDispatchCmdMsg@@YGHPAVCCmdTarget@@IHP81@AEXXZPAXIPAUAFX_CMDHANDLERINFO@@@Z 004631d4 f   uafxcw:cmdtarg.obj
 0001:00062300       ?_AfxLoadDotBitmap@@YGXXZ  00463300 f   uafxcw:cmdtarg.obj
 0001:00062437       _IsEqualGUID               00463437 f i uafxcw:cmdtarg.obj
 0001:00062451       ?DDX_Control@@YGXPAVCDataExchange@@HAAVCWnd@@@Z 00463451 f   uafxcw:wincore2.obj
 0001:0006250d       ?ExecuteDlgInit@CWnd@@QAEHPAX@Z 0046350d f   uafxcw:wincore2.obj
 0001:00062640       ??0CWinThread@@QAE@XZ      00463640 f   uafxcw:thrdcore.obj
 0001:00062676       ??1CWinThread@@UAE@XZ      00463676 f   uafxcw:thrdcore.obj
 0001:000626bf       ??8CPoint@@QBEHUtagPOINT@@@Z 004636bf f i uafxcw:thrdcore.obj
 0001:000626bf       ??8CSize@@QBEHUtagSIZE@@@Z 004636bf f i uafxcw:afxtoolbar.obj
 0001:000626dc       ??_GCWinThread@@UAEPAXI@Z  004636dc f i uafxcw:thrdcore.obj
 0001:000626dc       ??_ECWinThread@@UAEPAXI@Z  004636dc f i uafxcw:thrdcore.obj
 0001:000626fb       ?AfxGetCurrentMessage@@YGPAUtagMSG@@XZ 004636fb f   uafxcw:thrdcore.obj
 0001:00062704       ?AfxGetThread@@YGPAVCWinThread@@XZ 00463704 f   uafxcw:thrdcore.obj
 0001:0006270d       ?AfxInitThread@@YGXXZ      0046370d f   uafxcw:thrdcore.obj
 0001:0006273b       ?AfxInternalIsIdleMessage@@YAHPAUtagMSG@@@Z 0046373b f   uafxcw:thrdcore.obj
 0001:000627a9       ?AfxInternalPreTranslateMessage@@YAHPAUtagMSG@@@Z 004637a9 f   uafxcw:thrdcore.obj
 0001:0006281b       ?AfxInternalProcessWndProcException@@YGJPAVCException@@PBUtagMSG@@@Z 0046381b f   uafxcw:thrdcore.obj
 0001:00062842       ?AfxInternalPumpMessage@@YGHXZ 00463842 f   uafxcw:thrdcore.obj
 0001:00062886       ?AfxIsIdleMessage@@YAHPAUtagMSG@@@Z 00463886 f   uafxcw:thrdcore.obj
 0001:000628a5       ?AfxPreTranslateMessage@@YAHPAUtagMSG@@@Z 004638a5 f   uafxcw:thrdcore.obj
 0001:000628c4       ?AfxProcessWndProcException@@YGJPAVCException@@PBUtagMSG@@@Z 004638c4 f   uafxcw:thrdcore.obj
 0001:000628df       ?AfxPumpMessage@@YGHXZ     004638df f   uafxcw:thrdcore.obj
 0001:000628f5       ?CommonConstruct@CWinThread@@QAEXXZ 004638f5 f   uafxcw:thrdcore.obj
 0001:0006292c       ?CreateObject@?$CThreadLocal@VAFX_MODULE_THREAD_STATE@@@@SGPAVCNoTrackObject@@XZ 0046392c f i uafxcw:thrdcore.obj
 0001:00062958       ?Delete@CWinThread@@UAEXXZ 00463958 f   uafxcw:thrdcore.obj
 0001:00062966       ?DispatchThreadMessageEx@CWinThread@@IAEHPAUtagMSG@@@Z 00463966 f   uafxcw:thrdcore.obj
 0001:000629e9       ?ExitInstance@CWinThread@@UAEHXZ 004639e9 f   uafxcw:thrdcore.obj
 0001:000629f2       ?GetMainWnd@CWinThread@@UAEPAVCWnd@@XZ 004639f2 f   uafxcw:thrdcore.obj
 0001:00062a0d       ?GetRuntimeClass@CWinThread@@UBEPAUCRuntimeClass@@XZ 00463a0d f   uafxcw:thrdcore.obj
 0001:00062a13       ?IsEnterKey@@YAHPAUtagMSG@@@Z 00463a13 f i uafxcw:thrdcore.obj
 0001:00062a31       ?IsIdleMessage@CWinThread@@UAEHPAUtagMSG@@@Z 00463a31 f   uafxcw:thrdcore.obj
 0001:00062a41       ?OnIdle@CWinThread@@UAEHJ@Z 00463a41 f   uafxcw:thrdcore.obj
 0001:00062b67       ?PreTranslateMessage@CWinThread@@UAEHPAUtagMSG@@@Z 00463b67 f   uafxcw:thrdcore.obj
 0001:00062b77       ?ProcessMessageFilter@CWinThread@@UAEHHPAUtagMSG@@@Z 00463b77 f   uafxcw:thrdcore.obj
 0001:00062ca2       ?ProcessWndProcException@CWinThread@@UAEJPAVCException@@PBUtagMSG@@@Z 00463ca2 f   uafxcw:thrdcore.obj
 0001:00062cab       ?PumpMessage@CWinThread@@UAEHXZ 00463cab f   uafxcw:thrdcore.obj
 0001:00062cb0       ?Run@CWinThread@@UAEHXZ    00463cb0 f   uafxcw:thrdcore.obj
 0001:00062d4a       ?_AfxMsgFilterHook@@YGJHIJ@Z 00463d4a f   uafxcw:thrdcore.obj
 0001:00062da6       ??$AtlAddThrow@K@ATL@@YAKKK@Z 00463da6 f i uafxcw:viewscrl.obj
 0001:00062dce       ??0CImage@ATL@@QAE@XZ      00463dce f i uafxcw:viewscrl.obj
 0001:00062e10       ??0CScrollView@@IAE@XZ     00463e10 f   uafxcw:viewscrl.obj
 0001:00062e69       ??0_AFX_MOUSEANCHORWND@@QAE@AAVCPoint@@@Z 00463e69 f   uafxcw:viewscrl.obj
 0001:00062eac       ??1CImage@ATL@@UAE@XZ      00463eac f i uafxcw:viewscrl.obj
 0001:00062ed0       ??1CScrollView@@UAE@XZ     00463ed0 f   uafxcw:viewscrl.obj
 0001:00062f16       ??_GCImage@ATL@@UAEPAXI@Z  00463f16 f i uafxcw:viewscrl.obj
 0001:00062f16       ??_ECImage@ATL@@UAEPAXI@Z  00463f16 f i uafxcw:viewscrl.obj
 0001:00062f35       ??_GCScrollView@@UAEPAXI@Z 00463f35 f i uafxcw:viewscrl.obj
 0001:00062f35       ??_ECScrollView@@UAEPAXI@Z 00463f35 f i uafxcw:viewscrl.obj
 0001:00062f54       ??_G_AFX_MOUSEANCHORWND@@UAEPAXI@Z 00463f54 f i uafxcw:viewscrl.obj
 0001:00062f54       ??_E_AFX_MOUSEANCHORWND@@UAEPAXI@Z 00463f54 f i uafxcw:viewscrl.obj
 0001:00062f79       ?Allocate@?$CAtlSafeAllocBufferManager@VCCRTAllocator@ATL@@@_ATL_SAFE_ALLOCA_IMPL@ATL@@QAEPAXK@Z 00463f79 f i uafxcw:viewscrl.obj
 0001:00062fa6       ?CalcWindowRect@CScrollView@@UAEXPAUtagRECT@@I@Z 00463fa6 f   uafxcw:viewscrl.obj
 0001:0006303e       ?CenterOnPoint@CScrollView@@IAEXVCPoint@@@Z 0046403e f   uafxcw:viewscrl.obj
 0001:00063102       ?CheckScrollBars@CScrollView@@QBEXAAH0@Z 00464102 f   uafxcw:viewscrl.obj
 0001:0006316d       ?Create@_AFX_MOUSEANCHORWND@@QAEHPAVCScrollView@@@Z 0046416d f   uafxcw:viewscrl.obj
 0001:00063285       ?CreateEx@CImage@ATL@@QAEHHHHKPBKK@Z 00464285 f i uafxcw:viewscrl.obj
 0001:00063365       ?DecreaseCImageCount@CInitGDIPlus@CImage@ATL@@QAEXXZ 00464365 f i uafxcw:viewscrl.obj
 0001:00063389       ?Detach@CImage@ATL@@QAEPAUHBITMAP__@@XZ 00464389 f i uafxcw:viewscrl.obj
 0001:000633ad       ?DoMouseWheel@CScrollView@@QAEHIFVCPoint@@@Z 004643ad f   uafxcw:viewscrl.obj
 0001:00063481       ?Ellipse@CDC@@QAEHPBUtagRECT@@@Z 00464481 f i uafxcw:viewscrl.obj
 0001:0006349f       ?GetDeviceScrollPosition@CScrollView@@QBE?AVCPoint@@XZ 0046449f f   uafxcw:viewscrl.obj
 0001:000634c8       ?GetMessageMap@CScrollView@@MBEPBUAFX_MSGMAP@@XZ 004644c8 f   uafxcw:viewscrl.obj
 0001:000634c8       ?GetThisMessageMap@CScrollView@@KGPBUAFX_MSGMAP@@XZ 004644c8 f   uafxcw:viewscrl.obj
 0001:000634ce       ?GetMessageMap@_AFX_MOUSEANCHORWND@@MBEPBUAFX_MSGMAP@@XZ 004644ce f   uafxcw:viewscrl.obj
 0001:000634d4       ?GetRuntimeClass@CScrollView@@UBEPAUCRuntimeClass@@XZ 004644d4 f   uafxcw:viewscrl.obj
 0001:000634da       ?GetScrollBarSizes@CScrollView@@IAEXAAVCSize@@@Z 004644da f   uafxcw:viewscrl.obj
 0001:00063539       ?GetScrollBarState@CScrollView@@IAEXVCSize@@AAV2@1AAVCPoint@@H@Z 00464539 f   uafxcw:viewscrl.obj
 0001:000635fd       ?GetTrueClientSize@CScrollView@@IAEHAAVCSize@@0@Z 004645fd f   uafxcw:viewscrl.obj
 0001:000636a3       ?GetWheelScrollDistance@CScrollView@@UAE?AVCSize@@V2@HH@Z 004646a3 f   uafxcw:viewscrl.obj
 0001:000636e1       ?HandleMButtonDown@CScrollView@@QAEJIJ@Z 004646e1 f   uafxcw:viewscrl.obj
 0001:000637d1       ?IncreaseCImageCount@CInitGDIPlus@CImage@ATL@@QAEXXZ 004647d1 f i uafxcw:viewscrl.obj
 0001:000637ec       ?OnHScroll@CScrollView@@QAEXIIPAVCScrollBar@@@Z 004647ec f   uafxcw:viewscrl.obj
 0001:00063834       ?OnMouseWheel@CScrollView@@QAEHIFVCPoint@@@Z 00464834 f   uafxcw:viewscrl.obj
 0001:00063868       ?OnPaint@_AFX_MOUSEANCHORWND@@QAEXXZ 00464868 f   uafxcw:viewscrl.obj
 0001:000638f4       ?OnPrepareDC@CScrollView@@UAEXPAVCDC@@PAUCPrintInfo@@@Z 004648f4 f   uafxcw:viewscrl.obj
 0001:00063a15       ?OnPrintClient@CScrollView@@QAEJPAVCDC@@I@Z 00464a15 f   uafxcw:viewscrl.obj
 0001:00063b6e       ?OnScroll@CScrollView@@UAEHIIH@Z 00464b6e f   uafxcw:viewscrl.obj
 0001:00063c5c       ?OnScrollBy@CScrollView@@UAEHVCSize@@H@Z 00464c5c f   uafxcw:viewscrl.obj
 0001:00063d59       ?OnSize@CScrollView@@QAEXIHH@Z 00464d59 f   uafxcw:viewscrl.obj
 0001:00063d88       ?OnTimer@_AFX_MOUSEANCHORWND@@QAEXI@Z 00464d88 f   uafxcw:viewscrl.obj
 0001:00063fb9       ?OnVScroll@CScrollView@@QAEXIIPAVCScrollBar@@@Z 00464fb9 f   uafxcw:viewscrl.obj
 0001:00064008       ?ScrollToDevicePosition@CScrollView@@IAEXUtagPOINT@@@Z 00465008 f   uafxcw:viewscrl.obj
 0001:0006405a       ?SelectObject@CDC@@QAEPAXPAX@Z 0046505a f i uafxcw:viewscrl.obj
 0001:00064077       ?SetBitmap@_AFX_MOUSEANCHORWND@@QAEXI@Z 00465077 f   uafxcw:viewscrl.obj
 0001:000640a6       ?SetScaleToFitSize@CScrollView@@QAEXUtagSIZE@@@Z 004650a6 f   uafxcw:viewscrl.obj
 0001:00064162       ?SetScrollSizes@CScrollView@@QAEXHUtagSIZE@@ABU2@1@Z 00465162 f   uafxcw:viewscrl.obj
 0001:000642d1       ?UpdateBars@CScrollView@@IAEXXZ 004652d1 f   uafxcw:viewscrl.obj
 0001:000644a5       ?UpdateBitmapInfo@CImage@ATL@@AAEXW4DIBOrientation@12@@Z 004654a5 f i uafxcw:viewscrl.obj
 0001:00064569       ?WindowProc@_AFX_MOUSEANCHORWND@@UAEJIIJ@Z 00465569 f   uafxcw:viewscrl.obj
 0001:0006461c       ?_AfxGetMouseScrollLines@@YGIXZ 0046561c f   uafxcw:viewscrl.obj
 0001:00064650       ?CreateObject@CMenu@@SGPAVCObject@@XZ 00465650 f   uafxcw:winmenu.obj
 0001:0006466a       ??0CChevronOwnerDrawMenu@@QAE@XZ 0046566a f   uafxcw:winmenu.obj
 0001:000646ed       ??1CChevronOwnerDrawMenu@@UAE@XZ 004656ed f i uafxcw:winmenu.obj
 0001:00064727       ??1CFont@@UAE@XZ           00465727 f i uafxcw:winmenu.obj
 0001:00064732       ??_GCChevronOwnerDrawMenu@@UAEPAXI@Z 00465732 f i uafxcw:winmenu.obj
 0001:00064732       ??_ECChevronOwnerDrawMenu@@UAEPAXI@Z 00465732 f i uafxcw:winmenu.obj
 0001:00064751       ??_GCFont@@UAEPAXI@Z       00465751 f i uafxcw:winmenu.obj
 0001:00064751       ??_ECFont@@UAEPAXI@Z       00465751 f i uafxcw:winmenu.obj
 0001:00064776       ?Attach@CMenu@@QAEHPAUHMENU__@@@Z 00465776 f   uafxcw:winmenu.obj
 0001:000647a2       ?Construct@?$ConstructDestruct@VCMenu@@@@SGXPAVCObject@@@Z 004657a2 f i uafxcw:winmenu.obj
 0001:000647ba       ?DestroyMenu@CMenu@@QAEHXZ 004657ba f   uafxcw:winmenu.obj
 0001:000647d0       ?Detach@CMenu@@QAEPAUHMENU__@@XZ 004657d0 f   uafxcw:winmenu.obj
 0001:000647fa       ?DrawItem@CChevronOwnerDrawMenu@@UAEXPAUtagDRAWITEMSTRUCT@@@Z 004657fa f   uafxcw:winmenu.obj
 0001:00064cf3       ?FromHandle@CMenu@@SGPAV1@PAUHMENU__@@@Z 00465cf3 f   uafxcw:winmenu.obj
 0001:00064d05       ?FromHandlePermanent@CMenu@@SGPAV1@PAUHMENU__@@@Z 00465d05 f   uafxcw:winmenu.obj
 0001:00064d29       ?GetMenuStringW@CMenu@@QBEHIAAV?$CStringT@_WV?$StrTraitMFC@_WV?$ChTraitsCRT@_W@ATL@@@@@ATL@@I@Z 00465d29 f   uafxcw:winmenu.obj
 0001:00064d81       ?GetRuntimeClass@CMenu@@UBEPAUCRuntimeClass@@XZ 00465d81 f   uafxcw:winmenu.obj
 0001:00064d87       ?GetTextExtent@CDC@@QBE?AVCSize@@ABV?$CStringT@_WV?$StrTraitMFC@_WV?$ChTraitsCRT@_W@ATL@@@@@ATL@@@Z 00465d87 f i uafxcw:winmenu.obj
 0001:00064db6       ?MeasureItem@CChevronOwnerDrawMenu@@UAEXPAUtagMEASUREITEMSTRUCT@@@Z 00465db6 f   uafxcw:winmenu.obj
 0001:00064f0b       ?afxMapHMENU@@YGPAVCHandleMap@@H@Z 00465f0b f   uafxcw:winmenu.obj
 0001:00064f7c       ??0AFX_MAINTAIN_STATE2@@QAE@PAVAFX_MODULE_STATE@@@Z 00465f7c f   uafxcw:afxstate.obj
 0001:00064f81       ??0AFX_MODULE_STATE@@QAE@H@Z 00465f81 f   uafxcw:afxstate.obj
 0001:00065029       ??0AFX_MODULE_THREAD_STATE@@QAE@XZ 00466029 f   uafxcw:afxstate.obj
 0001:00065053       ??0_AFX_THREAD_STATE@@QAE@XZ 00466053 f   uafxcw:afxstate.obj
 0001:0006506a       ??1?$CThreadLocal@VAFX_MODULE_THREAD_STATE@@@@QAE@XZ 0046606a f i uafxcw:afxstate.obj
 0001:0006506f       ??1AFX_MODULE_STATE@@UAE@XZ 0046606f f   uafxcw:afxstate.obj
 0001:000650d2       ??1AFX_MODULE_THREAD_STATE@@UAE@XZ 004660d2 f   uafxcw:afxstate.obj
 0001:0006517e       ??1_AFX_THREAD_STATE@@UAE@XZ 0046617e f   uafxcw:afxstate.obj
 0001:000651b6       ??_EAFX_MODULE_STATE@@UAEPAXI@Z 004661b6 f i uafxcw:afxstate.obj
 0001:000651b6       ??_GAFX_MODULE_STATE@@UAEPAXI@Z 004661b6 f i uafxcw:afxstate.obj
 0001:000651b6       ??_E_AFX_BASE_MODULE_STATE@@UAEPAXI@Z 004661b6 f i uafxcw:afxstate.obj
 0001:000651b6       ??_G_AFX_BASE_MODULE_STATE@@UAEPAXI@Z 004661b6 f i uafxcw:afxstate.obj
 0001:000651d4       ??_EAFX_MODULE_THREAD_STATE@@UAEPAXI@Z 004661d4 f i uafxcw:afxstate.obj
 0001:000651d4       ??_GAFX_MODULE_THREAD_STATE@@UAEPAXI@Z 004661d4 f i uafxcw:afxstate.obj
 0001:000651f2       ??_G_AFX_THREAD_STATE@@UAEPAXI@Z 004661f2 f i uafxcw:afxstate.obj
 0001:000651f2       ??_E_AFX_THREAD_STATE@@UAEPAXI@Z 004661f2 f i uafxcw:afxstate.obj
 0001:00065210       ?AfxGetModuleState@@YGPAVAFX_MODULE_STATE@@XZ 00466210 f   uafxcw:afxstate.obj
 0001:00065243       ?AfxGetModuleThreadState@@YGPAVAFX_MODULE_THREAD_STATE@@XZ 00466243 f   uafxcw:afxstate.obj
 0001:0006525e       ?AfxGetPerUserRegistration@@YGHXZ 0046625e f   uafxcw:afxstate.obj
 0001:00065264       ?AfxGetThreadState@@YGPAV_AFX_THREAD_STATE@@XZ 00466264 f   uafxcw:afxstate.obj
 0001:0006527c       ?CreateObject@?$CProcessLocal@V_AFX_BASE_MODULE_STATE@@@@SGPAVCNoTrackObject@@XZ 0046627c f i uafxcw:afxstate.obj
 0001:000652ba       ?Unlock@CTypeLibCache@@QAEXXZ 004662ba f   uafxcw:afxstate.obj
 0001:000652ed       ??0CDialog@@QAE@IPAVCWnd@@@Z 004662ed f   uafxcw:dlgcore.obj
 0001:00065321       ??0CDialog@@QAE@XZ         00466321 f   uafxcw:dlgcore.obj
 0001:0006533a       ??1CDialog@@UAE@XZ         0046633a f   uafxcw:dlgcore.obj
 0001:00065371       ??_9CNewTypeDlg@@$BBHM@AE  00466371 f i uafxcw:docmgr.obj
 0001:00065371       ??_9CDialog@@$BBHM@AE      00466371 f i uafxcw:dlgcore.obj
 0001:00065379       ??_ECDialog@@UAEPAXI@Z     00466379 f i uafxcw:dlgcore.obj
 0001:00065379       ??_GCDialog@@UAEPAXI@Z     00466379 f i uafxcw:dlgcore.obj
 0001:00065398       ?AfxDlgProc@@YGHPAUHWND__@@IIJ@Z 00466398 f   uafxcw:dlgcore.obj
 0001:000653d4       ?AfxHelpEnabled@@YGHXZ     004663d4 f   uafxcw:dlgcore.obj
 0001:0006542a       ?CheckAutoCenter@CDialog@@UAEHXZ 0046642a f   uafxcw:dlgcore.obj
 0001:000654ce       ?Create@CDialog@@UAEHPB_WPAVCWnd@@@Z 004664ce f   uafxcw:dlgcore.obj
 0001:0006552a       ?CreateDlg@CWnd@@IAEHPB_WPAV1@@Z 0046652a f   uafxcw:dlgcore.obj
 0001:00065582       ?CreateDlgIndirect@CWnd@@IAEHPBUDLGTEMPLATE@@PAV1@PAUHINSTANCE__@@@Z 00466582 f   uafxcw:dlgcore.obj
 0001:0006575d       ?CreateIndirect@CDialog@@IAEHPAXPAVCWnd@@PAUHINSTANCE__@@@Z 0046675d f   uafxcw:dlgcore.obj
 0001:00065781       ?CreateIndirect@CDialog@@IAEHPBUDLGTEMPLATE@@PAVCWnd@@PAXPAUHINSTANCE__@@@Z 00466781 f   uafxcw:dlgcore.obj
 0001:000657af       ?CreateIndirect@CDialog@@UAEHPAXPAVCWnd@@@Z 004667af f   uafxcw:dlgcore.obj
 0001:000657c3       ?CreateIndirect@CDialog@@UAEHPBUDLGTEMPLATE@@PAVCWnd@@PAX@Z 004667c3 f   uafxcw:dlgcore.obj
 0001:000657da       ?CreateRunDlgIndirect@CWnd@@IAEHPBUDLGTEMPLATE@@PAV1@PAUHINSTANCE__@@@Z 004667da f   uafxcw:dlgcore.obj
 0001:00065839       ?DoModal@CDialog@@UAEHXZ   00466839 f   uafxcw:dlgcore.obj
 0001:000659f9       ?EndDialog@CDialog@@QAEXH@Z 004669f9 f   uafxcw:dlgcore.obj
 0001:00065a2b       ?GetMessageMap@CDialog@@MBEPBUAFX_MSGMAP@@XZ 00466a2b f   uafxcw:dlgcore.obj
 0001:00065a2b       ?GetThisMessageMap@CDialog@@KGPBUAFX_MSGMAP@@XZ 00466a2b f   uafxcw:dlgcore.obj
 0001:00065a31       ?GetNextDlgTabItem@CWnd@@QBEPAV1@PAV1@H@Z 00466a31 f i uafxcw:dlgcore.obj
 0001:00065a55       ?GetRuntimeClass@CDialog@@UBEPAUCRuntimeClass@@XZ 00466a55 f   uafxcw:dlgcore.obj
 0001:00065a5b       ?HandleInitDialog@CDialog@@IAEJIJ@Z 00466a5b f   uafxcw:dlgcore.obj
 0001:00065af1       ?Initialize@CDialog@@QAEXXZ 00466af1 f   uafxcw:dlgcore.obj
 0001:00065b21       ?OnCancel@CDialog@@MAEXXZ  00466b21 f   uafxcw:dlgcore.obj
 0001:00065b29       ?OnCommandHelp@CDialog@@IAEJIJ@Z 00466b29 f   uafxcw:dlgcore.obj
 0001:00065b66       ?OnEndSession@CDialog@@IAEXH@Z 00466b66 f   uafxcw:dlgcore.obj
 0001:00065bac       ?OnHelpHitTest@CDialog@@IAEJIJ@Z 00466bac f   uafxcw:dlgcore.obj
 0001:00065bbf       ?OnInitDialog@CDialog@@UAEHXZ 00466bbf f   uafxcw:dlgcore.obj
 0001:00065c23       ?OnOK@CDialog@@MAEXXZ      00466c23 f   uafxcw:dlgcore.obj
 0001:00065c3c       ?OnPaint@CDialog@@IAEXXZ   00466c3c f   uafxcw:dlgcore.obj
 0001:00065c7f       ?OnQueryEndSession@CDialog@@IAEHXZ 00466c7f f   uafxcw:dlgcore.obj
 0001:00065cb1       ?OnSetFont@CDialog@@IAEXPAVCFont@@H@Z 00466cb1 f   uafxcw:dlgcore.obj
 0001:00065cce       ?PostModal@CDialog@@IAEXXZ 00466cce f   uafxcw:dlgcore.obj
 0001:00065d17       ?PreModal@CDialog@@IAEPAUHWND__@@XZ 00466d17 f   uafxcw:dlgcore.obj
 0001:00065d56       ?PreTranslateMessage@CDialog@@UAEHPAUtagMSG@@@Z 00466d56 f   uafxcw:dlgcore.obj
 0001:00065dfc       ?SetOccDialogInfo@CDialog@@MAEHPAU_AFX_OCC_DIALOG_INFO@@@Z 00466dfc f   uafxcw:dlgcore.obj
 0001:00065e0f       _IsolationAwareCreateDialogIndirectParamW@20 00466e0f f i uafxcw:dlgcore.obj
 0001:00065ea6       ?DDV_MinMaxInt@@YGXPAVCDataExchange@@HHH@Z 00466ea6 f   uafxcw:dlgdata.obj
 0001:00065ed7       ?DDX_CBIndex@@YGXPAVCDataExchange@@HAAH@Z 00466ed7 f   uafxcw:dlgdata.obj
 0001:00065f2c       ?DDX_CBString@@YGXPAVCDataExchange@@HAAV?$CStringT@_WV?$StrTraitMFC@_WV?$ChTraitsCRT@_W@ATL@@@@@ATL@@@Z 00466f2c f   uafxcw:dlgdata.obj
 0001:00065fe1       ?DDX_Check@@YGXPAVCDataExchange@@HAAH@Z 00466fe1 f   uafxcw:dlgdata.obj
 0001:00066042       ?DDX_Radio@@YGXPAVCDataExchange@@HAAH@Z 00467042 f   uafxcw:dlgdata.obj
 0001:000660e5       ?DDX_Slider@@YGXPAVCDataExchange@@HAAH@Z 004670e5 f   uafxcw:dlgdata.obj
 0001:0006613c       ?DDX_Text@@YGXPAVCDataExchange@@HAAF@Z 0046713c f   uafxcw:dlgdata.obj
 0001:0006616d       ?DDX_Text@@YGXPAVCDataExchange@@HAAH@Z 0046716d f   uafxcw:dlgdata.obj
 0001:0006619c       ?DDX_Text@@YGXPAVCDataExchange@@HAAI@Z 0046719c f   uafxcw:dlgdata.obj
 0001:000661cb       ?DDX_Text@@YGXPAVCDataExchange@@HAAK@Z 004671cb f   uafxcw:dlgdata.obj
 0001:000661fa       ?DDX_Text@@YGXPAVCDataExchange@@HAAV?$CStringT@_WV?$StrTraitMFC@_WV?$ChTraitsCRT@_W@ATL@@@@@ATL@@@Z 004671fa f   uafxcw:dlgdata.obj
 0001:00066253       ?Fail@CDataExchange@@QAEXXZ 00467253 f   uafxcw:dlgdata.obj
 0001:000662a5       ?PrepareCtrl@CDataExchange@@QAEPAUHWND__@@H@Z 004672a5 f   uafxcw:dlgdata.obj
 0001:000662e9       ?PrepareEditCtrl@CDataExchange@@QAEPAUHWND__@@H@Z 004672e9 f   uafxcw:dlgdata.obj
 0001:00066303       ?_AfxFailMinMaxWithFormat@@YGXPAVCDataExchange@@_J1PB_WI@Z 00467303 f   uafxcw:dlgdata.obj
 0001:0006641d       ?_Afx_DDX_TextWithFormat@@YAXPAVCDataExchange@@HPB_WIZZ 0046741d f   uafxcw:dlgdata.obj
 0001:00066502       ?CreateObject@CFrameWnd@@SGPAVCObject@@XZ 00467502 f   uafxcw:winfrm.obj
 0001:00066532       ??0CFrameWnd@@QAE@XZ       00467532 f   uafxcw:winfrm.obj
 0001:00066646       ??0CPushRoutingFrame@@QAE@PAVCFrameWnd@@@Z 00467646 f i uafxcw:winfrm.obj
 0001:0006667e       ??1?$CArray@PAUHWND__@@PAU1@@@UAE@XZ 0046767e f i uafxcw:winfrm.obj
 0001:00066694       ??1?$CTypedPtrArray@VCObArray@@PAVCBitmap@@@@UAE@XZ 00467694 f i uafxcw:winfrm.obj
 0001:00066699       ??1CFrameWnd@@UAE@XZ       00467699 f   uafxcw:winfrm.obj
 0001:000667f9       ??1CPushRoutingFrame@@QAE@XZ 004677f9 f i uafxcw:winfrm.obj
 0001:00066815       ??_E?$CArray@PAUHWND__@@PAU1@@@UAEPAXI@Z 00467815 f i uafxcw:winfrm.obj
 0001:00066815       ??_G?$CArray@PAUHWND__@@PAU1@@@UAEPAXI@Z 00467815 f i uafxcw:winfrm.obj
 0001:00066834       ?ActivateFrame@CFrameWnd@@UAEXH@Z 00467834 f   uafxcw:winfrm.obj
 0001:00066888       ?AddFrameWnd@CFrameWnd@@IAEXXZ 00467888 f   uafxcw:winfrm.obj
 0001:000668b2       ?AfxIsDescendant@@YGHPAUHWND__@@0@Z 004678b2 f   uafxcw:winfrm.obj
 0001:000668d0       ?BeginModalState@CFrameWnd@@UAEXXZ 004678d0 f   uafxcw:winfrm.obj
 0001:000669f0       ?BringToTop@CFrameWnd@@IAEXH@Z 004679f0 f   uafxcw:winfrm.obj
 0001:00066a22       ?Create@CFrameWnd@@UAEHPB_W0KABUtagRECT@@PAVCWnd@@0KPAUCCreateContext@@@Z 00467a22 f   uafxcw:winfrm.obj
 0001:00066ab9       ?CreateView@CFrameWnd@@QAEPAVCWnd@@PAUCCreateContext@@I@Z 00467ab9 f   uafxcw:winfrm.obj
 0001:00066b4a       ?DelayUpdateFrameMenu@CFrameWnd@@UAEXPAUHMENU__@@@Z 00467b4a f   uafxcw:winfrm.obj
 0001:00066b61       ?DestroyDockBars@CFrameWnd@@QAEXXZ 00467b61 f   uafxcw:winfrm.obj
 0001:00066c6c       ?Draw@CImageList@@QAEHPAVCDC@@HUtagPOINT@@I@Z 00467c6c f i uafxcw:winfrm.obj
 0001:00066c92       ?EndModalState@CFrameWnd@@UAEXXZ 00467c92 f   uafxcw:winfrm.obj
 0001:00066d09       ?ExitHelpMode@CFrameWnd@@UAEXXZ 00467d09 f   uafxcw:winfrm.obj
 0001:00066d8b       ?GetActiveDocument@CFrameWnd@@UAEPAVCDocument@@XZ 00467d8b f   uafxcw:winfrm.obj
 0001:00066d9c       ?GetControlBar@CFrameWnd@@QAEPAVCControlBar@@I@Z 00467d9c f   uafxcw:winfrm.obj
 0001:00066dee       ?GetDefaultAccelerator@CFrameWnd@@UAEPAUHACCEL__@@XZ 00467dee f   uafxcw:winfrm.obj
 0001:00066e15       ?GetDockingFrame@CControlBar@@QBEPAVCFrameWnd@@XZ 00467e15 f   uafxcw:winfrm.obj
 0001:00066e29       ?GetIconWndClass@CFrameWnd@@IAEPB_WKI@Z 00467e29 f   uafxcw:winfrm.obj
 0001:00066eb0       ?GetImageList@CToolBarCtrl@@QBEPAVCImageList@@XZ 00467eb0 f i uafxcw:winfrm.obj
 0001:00066ec9       ?GetMenu@CFrameWnd@@UBEPAVCMenu@@XZ 00467ec9 f   uafxcw:winfrm.obj
 0001:00066ef5       ?GetMenuBarState@CFrameWnd@@UBEKXZ 00467ef5 f   uafxcw:winfrm.obj
 0001:00066efc       ?GetMessageBar@CFrameWnd@@UAEPAVCWnd@@XZ 00467efc f   uafxcw:winfrm.obj
 0001:00066f0c       ?GetMessageMap@CFrameWnd@@MBEPBUAFX_MSGMAP@@XZ 00467f0c f   uafxcw:winfrm.obj
 0001:00066f0c       ?GetThisMessageMap@CFrameWnd@@KGPBUAFX_MSGMAP@@XZ 00467f0c f   uafxcw:winfrm.obj
 0001:00066f12       ?GetMessageString@CFrameWnd@@UBEXIAAV?$CStringT@_WV?$StrTraitMFC@_WV?$ChTraitsCRT@_W@ATL@@@@@ATL@@@Z 00467f12 f   uafxcw:winfrm.obj
 0001:00066f59       ?GetRuntimeClass@CFrameWnd@@UBEPAUCRuntimeClass@@XZ 00467f59 f   uafxcw:winfrm.obj
 0001:00066f5f       ?GetRuntimeClass@CView@@UBEPAUCRuntimeClass@@XZ 00467f5f f   uafxcw:winfrm.obj
 0001:00066f65       ?InitialUpdateFrame@CFrameWnd@@QAEXPAVCDocument@@H@Z 00467f65 f   uafxcw:winfrm.obj
 0001:0006702e       ?IsFloating@CControlBar@@QBEHXZ 0046802e f   uafxcw:winfrm.obj
 0001:0006705c       ?IsRectNull@CRect@@QBEHXZ  0046805c f i uafxcw:winfrm.obj
 0001:00067073       ?LoadAccelTable@CFrameWnd@@QAEHPB_W@Z 00468073 f   uafxcw:winfrm.obj
 0001:0006709f       ?LoadFrame@CFrameWnd@@UAEHIKPAVCWnd@@PAUCCreateContext@@@Z 0046809f f   uafxcw:winfrm.obj
 0001:000671c3       ?NegotiateBorderSpace@CFrameWnd@@UAEHIPAUtagRECT@@@Z 004681c3 f   uafxcw:winfrm.obj
 0001:00067238       ?NotifyFloatingWindows@CFrameWnd@@QAEXK@Z 00468238 f   uafxcw:winfrm.obj
 0001:000672f6       ?OnActivate@CFrameWnd@@IAEXIPAVCWnd@@H@Z 004682f6 f   uafxcw:winfrm.obj
 0001:000673f0       ?OnActivateTopLevel@CFrameWnd@@IAEJIJ@Z 004683f0 f   uafxcw:winfrm.obj
 0001:00067481       ?OnBarCheck@CFrameWnd@@QAEHI@Z 00468481 f   uafxcw:winfrm.obj
 0001:000674bd       ?OnChevronPushed@CFrameWnd@@IAEHIPAUtagNMHDR@@PAJ@Z 004684bd f   uafxcw:winfrm.obj
 0001:00067b4d       ?OnClose@CFrameWnd@@IAEXXZ 00468b4d f   uafxcw:winfrm.obj
 0001:00067c9d       ?OnCmdMsg@CFrameWnd@@UAEHIHPAXPAUAFX_CMDHANDLERINFO@@@Z 00468c9d f   uafxcw:winfrm.obj
 0001:00067d25       ?OnCommand@CFrameWnd@@MAEHIJ@Z 00468d25 f   uafxcw:winfrm.obj
 0001:00067dad       ?OnCommandHelp@CFrameWnd@@IAEJIJ@Z 00468dad f   uafxcw:winfrm.obj
 0001:00067e0a       ?OnCreate@CFrameWnd@@IAEHPAUtagCREATESTRUCTW@@@Z 00468e0a f   uafxcw:winfrm.obj
 0001:00067e26       ?OnCreateClient@CFrameWnd@@MAEHPAUtagCREATESTRUCTW@@PAUCCreateContext@@@Z 00468e26 f   uafxcw:winfrm.obj
 0001:00067e4b       ?OnCreateHelper@CFrameWnd@@IAEHPAUtagCREATESTRUCTW@@PAUCCreateContext@@@Z 00468e4b f   uafxcw:winfrm.obj
 0001:00067e9c       ?OnDDEExecute@CFrameWnd@@IAEXPAVCWnd@@PAX@Z 00468e9c f   uafxcw:winfrm.obj
 0001:00067fba       ?OnDDEInitiate@CFrameWnd@@IAEXPAVCWnd@@II@Z 00468fba f   uafxcw:winfrm.obj
 0001:000680b7       ?OnDDETerminate@CFrameWnd@@IAEXPAVCWnd@@@Z 004690b7 f   uafxcw:winfrm.obj
 0001:000680de       ?OnDestroy@CFrameWnd@@IAEXXZ 004690de f   uafxcw:winfrm.obj
 0001:00068136       ?OnDropFiles@CFrameWnd@@IAEXPAUHDROP__@@@Z 00469136 f   uafxcw:winfrm.obj
 0001:000681c9       ?OnEnable@CFrameWnd@@IAEXH@Z 004691c9 f   uafxcw:winfrm.obj
 0001:000682ad       ?OnEndSession@CFrameWnd@@IAEXH@Z 004692ad f   uafxcw:winfrm.obj
 0001:0006830c       ?OnEnterIdle@CFrameWnd@@IAEXIPAVCWnd@@@Z 0046930c f   uafxcw:winfrm.obj
 0001:0006833e       ?OnEraseBkgnd@CFrameWnd@@IAEHPAVCDC@@@Z 0046933e f   uafxcw:winfrm.obj
 0001:00068354       ?OnHScroll@CFrameWnd@@IAEXIIPAVCScrollBar@@@Z 00469354 f   uafxcw:winfrm.obj
 0001:0006837c       ?OnHelpHitTest@CFrameWnd@@IAEJIJ@Z 0046937c f   uafxcw:winfrm.obj
 0001:00068392       ?OnHelpPromptAddr@CFrameWnd@@IAEJIJ@Z 00469392 f   uafxcw:winfrm.obj
 0001:0006839b       ?OnIdleUpdateCmdUI@CFrameWnd@@IAEXXZ 0046939b f   uafxcw:winfrm.obj
 0001:00068415       ?OnInitMenu@CFrameWnd@@IAEXPAVCMenu@@@Z 00469415 f   uafxcw:winfrm.obj
 0001:00068439       ?OnInitMenuPopup@CFrameWnd@@IAEXPAVCMenu@@IH@Z 00469439 f   uafxcw:winfrm.obj
 0001:000685f9       ?OnMenuChar@CFrameWnd@@IAEJIIPAVCMenu@@@Z 004695f9 f   uafxcw:winfrm.obj
 0001:0006862a       ?OnMenuSelect@CFrameWnd@@IAEXIIPAUHMENU__@@@Z 0046962a f   uafxcw:winfrm.obj
 0001:000687dc       ?OnNcActivate@CFrameWnd@@IAEHH@Z 004697dc f   uafxcw:winfrm.obj
 0001:00068814       ?OnPaletteChanged@CFrameWnd@@IAEXPAVCWnd@@@Z 00469814 f   uafxcw:winfrm.obj
 0001:00068834       ?OnPopMessageString@CFrameWnd@@IAEJIJ@Z 00469834 f   uafxcw:winfrm.obj
 0001:00068859       ?OnQueryEndSession@CFrameWnd@@IAEHXZ 00469859 f   uafxcw:winfrm.obj
 0001:00068891       ?OnQueryNewPalette@CFrameWnd@@IAEHXZ 00469891 f   uafxcw:winfrm.obj
 0001:000688b4       ?OnSetCursor@CFrameWnd@@IAEHPAVCWnd@@II@Z 004698b4 f   uafxcw:winfrm.obj
 0001:000688eb       ?OnSetFocus@CFrameWnd@@IAEXPAVCWnd@@@Z 004698eb f   uafxcw:winfrm.obj
 0001:00068909       ?OnSetMessageString@CFrameWnd@@IAEJIJ@Z 00469909 f   uafxcw:winfrm.obj
 0001:000689c6       ?OnSetPreviewMode@CFrameWnd@@UAEXHPAUCPrintPreviewState@@@Z 004699c6 f   uafxcw:winfrm.obj
 0001:00068c4b       ?OnSize@CFrameWnd@@IAEXIHH@Z 00469c4b f   uafxcw:winfrm.obj
 0001:00068c6d       ?OnSysCommand@CFrameWnd@@IAEXIJ@Z 00469c6d f   uafxcw:winfrm.obj
 0001:00068d15       ?OnToolTipText@CFrameWnd@@IAEHIPAUtagNMHDR@@PAJ@Z 00469d15 f   uafxcw:winfrm.obj
 0001:00068e2e       ?OnUpdateContextHelp@CFrameWnd@@IAEXPAVCCmdUI@@@Z 00469e2e f   uafxcw:winfrm.obj
 0001:00068e6d       ?OnUpdateControlBarMenu@CFrameWnd@@QAEXPAVCCmdUI@@@Z 00469e6d f   uafxcw:winfrm.obj
 0001:00068eaf       ?OnUpdateFrameMenu@CFrameWnd@@UAEXPAUHMENU__@@@Z 00469eaf f   uafxcw:winfrm.obj
 0001:00068f00       ?OnUpdateFrameTitle@CFrameWnd@@UAEXH@Z 00469f00 f   uafxcw:winfrm.obj
 0001:00068f4c       ?OnUpdateKeyIndicator@CFrameWnd@@IAEXPAVCCmdUI@@@Z 00469f4c f   uafxcw:winfrm.obj
 0001:00068fa8       ?OnVScroll@CFrameWnd@@IAEXIIPAVCScrollBar@@@Z 00469fa8 f   uafxcw:winfrm.obj
 0001:00068fd0       ?Pop@CPushRoutingFrame@@QAEXXZ 00469fd0 f i uafxcw:winfrm.obj
 0001:00068ff6       ?PreCreateWindow@CFrameWnd@@MAEHAAUtagCREATESTRUCTW@@@Z 00469ff6 f   uafxcw:winfrm.obj
 0001:00069032       ?PreTranslateMessage@CFrameWnd@@UAEHPAUtagMSG@@@Z 0046a032 f   uafxcw:winfrm.obj
 0001:000691ca       ?RecalcLayout@CFrameWnd@@UAEXH@Z 0046a1ca f   uafxcw:winfrm.obj
 0001:000692d3       ?RemoveControlBar@CFrameWnd@@QAEXPAVCControlBar@@@Z 0046a2d3 f   uafxcw:winfrm.obj
 0001:000692fa       ?RemoveFrameWnd@CFrameWnd@@IAEXXZ 0046a2fa f   uafxcw:winfrm.obj
 0001:00069324       ?Serialize@?$CArray@PAUHWND__@@PAU1@@@UAEXAAVCArchive@@@Z 0046a324 f i uafxcw:winfrm.obj
 0001:00069324       ?Serialize@?$CArray@PAVCMFCRibbonBaseElement@@PAV1@@@UAEXAAVCArchive@@@Z 0046a324 f i uafxcw:afxribbonbar.obj
 0001:00069324       ?Serialize@?$CArray@PAVCMFCRibbonPanel@@PAV1@@@UAEXAAVCArchive@@@Z 0046a324 f i uafxcw:afxribboncategory.obj
 0001:00069324       ?Serialize@?$CArray@W4LoadArrayObjType@CArchive@@ABW412@@@UAEXAAVCArchive@@@Z 0046a324 f i uafxcw:arcobj.obj
 0001:00069324       ?Serialize@?$CArray@PAVCMFCRibbonContextCaption@@PAV1@@@UAEXAAVCArchive@@@Z 0046a324 f i uafxcw:afxribbonbar.obj
 0001:00069324       ?Serialize@?$CArray@JJ@@UAEXAAVCArchive@@@Z 0046a324 f i uafxcw:afxribboncolorbutton.obj
 0001:00069324       ?Serialize@?$CArray@HABH@@UAEXAAVCArchive@@@Z 0046a324 f i uafxcw:winctrl3.obj
 0001:00069324       ?Serialize@?$CArray@KK@@UAEXAAVCArchive@@@Z 0046a324 f i uafxcw:afxcolorbar.obj
 0001:00069324       ?Serialize@?$CArray@PAVCMFCVisualManagerBitmapCacheItem@CMFCVisualManagerBitmapCache@@PAV12@@@UAEXAAVCArchive@@@Z 0046a324 f i uafxcw:afxvisualmanageroffice2007.obj
 0001:00069324       ?Serialize@?$CArray@HH@@UAEXAAVCArchive@@@Z 0046a324 f i uafxcw:afxbasetabbedpane.obj
 0001:00069324       ?Serialize@?$CArray@PAVCMFCRibbonKeyTip@@PAV1@@@UAEXAAVCArchive@@@Z 0046a324 f i uafxcw:afxribbonbar.obj
 0001:00069364       ?SetAutorepeatMode@CMFCButton@@QAEXH@Z 0046a364 f   uafxcw:afxbutton.obj
 0001:00069364       ?SetActivePreviewView@CFrameWnd@@QAEXPAVCView@@@Z 0046a364 f   uafxcw:winfrm.obj
 0001:00069374       ?SetActiveView@CFrameWnd@@QAEXPAVCView@@H@Z 0046a374 f   uafxcw:winfrm.obj
 0001:000693d0       ?SetMenu@CFrameWnd@@UAEHPAVCMenu@@@Z 0046a3d0 f   uafxcw:winfrm.obj
 0001:00069416       ?SetMenuBarState@CFrameWnd@@UAEHK@Z 0046a416 f   uafxcw:winfrm.obj
 0001:00069484       ?SetMenuBarVisibility@CFrameWnd@@UAEXK@Z 0046a484 f   uafxcw:winfrm.obj
 0001:000694d5       ?SetMessageText@CFrameWnd@@QAEXI@Z 0046a4d5 f   uafxcw:winfrm.obj
 0001:000694ef       ?ShowControlBar@CFrameWnd@@QAEXPAVCControlBar@@HH@Z 0046a4ef f   uafxcw:winfrm.obj
 0001:000695f9       ?ShowOwnedWindows@CFrameWnd@@QAEXH@Z 0046a5f9 f   uafxcw:winfrm.obj
 0001:000696a3       ?UpdateFrameTitleForDocument@CFrameWnd@@QAEXPB_W@Z 0046a6a3 f   uafxcw:winfrm.obj
 0001:0006979a       ?_wcstombsz@ATL@@YAHPADPB_WK@Z 0046a79a f i uafxcw:winfrm.obj
 0001:000697c7       _IsolationAwareImageList_Draw@24 0046a7c7 f i uafxcw:winfrm.obj
 0001:0006987b       _IsolationAwareImageList_GetImageInfo@12 0046a87b f i uafxcw:winfrm.obj
 0001:00069926       ??0CFileDialog@@QAE@HPB_W0K0PAVCWnd@@KH@Z 0046a926 f   uafxcw:dlgfile.obj
 0001:00069be9       ??1?$CComPtr@UIUnknown@@@ATL@@QAE@XZ 0046abe9 f i uafxcw:doccore.obj
 0001:00069be9       ??1?$CComPtr@UIShellItem@@@ATL@@QAE@XZ 0046abe9 f i uafxcw:dlgfile.obj
 0001:00069be9       ??1?$CComPtr@UIAccessibleProxy@@@ATL@@QAE@XZ 0046abe9 f i uafxcw:wincore.obj
 0001:00069be9       ??1?$CComQIPtr@UITaskbarList4@@$1?_GUID_c43dc798_95d1_4bea_9030_bb99e2983a1a@@3U__s_GUID@@B@ATL@@QAE@XZ 0046abe9 f i uafxcw:afxmdichildwndex.obj
 0001:00069bf6       ??1CFileDialog@@UAE@XZ     0046abf6 f   uafxcw:dlgfile.obj
 0001:00069c8e       ??_GCPrintDialog@@UAEPAXI@Z 0046ac8e f i uafxcw:dlgprnt.obj
 0001:00069c8e       ??_ECColorDialog@@UAEPAXI@Z 0046ac8e f i uafxcw:dlgclr.obj
 0001:00069c8e       ??_GCCommonDialog@@UAEPAXI@Z 0046ac8e f i uafxcw:dlgfile.obj
 0001:00069c8e       ??_ECOleBusyDialog@@UAEPAXI@Z 0046ac8e f i uafxcw:oledlgs2.obj
 0001:00069c8e       ??_GCColorDialog@@UAEPAXI@Z 0046ac8e f i uafxcw:dlgclr.obj
 0001:00069c8e       ??_ECCommonDialog@@UAEPAXI@Z 0046ac8e f i uafxcw:dlgfile.obj
 0001:00069c8e       ??_ECPrintDialog@@UAEPAXI@Z 0046ac8e f i uafxcw:dlgprnt.obj
 0001:00069c8e       ??_GCOleBusyDialog@@UAEPAXI@Z 0046ac8e f i uafxcw:oledlgs2.obj
 0001:00069cb3       ??_ECFileDialog@@UAEPAXI@Z 0046acb3 f i uafxcw:dlgfile.obj
 0001:00069cb3       ??_GCFileDialog@@UAEPAXI@Z 0046acb3 f i uafxcw:dlgfile.obj
 0001:00069cd2       ?AddRef@XFileDialogControlEvents@CFileDialog@@UAGKXZ 0046acd2 f   uafxcw:dlgfile.obj
 0001:00069d03       ?AddRef@XFileDialogEvents@CFileDialog@@UAGKXZ 0046ad03 f   uafxcw:dlgfile.obj
 0001:00069d34       ?ApplyOFNToShellDialog@CFileDialog@@QAEXXZ 0046ad34 f   uafxcw:dlgfile.obj
 0001:0006a2bb       ?DoModal@CFileDialog@@UAEHXZ 0046b2bb f   uafxcw:dlgfile.obj
 0001:0006a402       ?GetFileName@CFileDialog@@QBE?AV?$CStringT@_WV?$StrTraitMFC@_WV?$ChTraitsCRT@_W@ATL@@@@@ATL@@XZ 0046b402 f   uafxcw:dlgfile.obj
 0001:0006a52a       ?GetFolderPath@CFileDialog@@QBE?AV?$CStringT@_WV?$StrTraitMFC@_WV?$ChTraitsCRT@_W@ATL@@@@@ATL@@XZ 0046b52a f   uafxcw:dlgfile.obj
 0001:0006a5fb       ?GetIFileSaveDialog@CFileDialog@@QAEPAUIFileSaveDialog@@XZ 0046b5fb f   uafxcw:dlgfile.obj
 0001:0006a628       ?GetInterfaceMap@CFileDialog@@MBEPBUAFX_INTERFACEMAP@@XZ 0046b628 f   uafxcw:dlgfile.obj
 0001:0006a62e       ?GetOFN@CFileDialog@@QAEAAUtagOFNW@@XZ 0046b62e f   uafxcw:dlgfile.obj
 0001:0006a635       ?GetPathName@CFileDialog@@QBE?AV?$CStringT@_WV?$StrTraitMFC@_WV?$ChTraitsCRT@_W@ATL@@@@@ATL@@XZ 0046b635 f   uafxcw:dlgfile.obj
 0001:0006a804       ?GetRuntimeClass@CFileDialog@@UBEPAUCRuntimeClass@@XZ 0046b804 f   uafxcw:dlgfile.obj
 0001:0006a80a       ?OnButtonClicked@XFileDialogControlEvents@CFileDialog@@UAGJPAUIFileDialogCustomize@@K@Z 0046b80a f   uafxcw:dlgfile.obj
 0001:0006a843       ?OnCheckButtonToggled@XFileDialogControlEvents@CFileDialog@@UAGJPAUIFileDialogCustomize@@KH@Z 0046b843 f   uafxcw:dlgfile.obj
 0001:0006a87f       ?OnControlActivating@XFileDialogControlEvents@CFileDialog@@UAGJPAUIFileDialogCustomize@@K@Z 0046b87f f   uafxcw:dlgfile.obj
 0001:0006a8b8       ?OnFileOk@XFileDialogEvents@CFileDialog@@UAGJPAUIFileDialog@@@Z 0046b8b8 f   uafxcw:dlgfile.obj
 0001:0006a906       ?OnFolderChange@XFileDialogEvents@CFileDialog@@UAGJPAUIFileDialog@@@Z 0046b906 f   uafxcw:dlgfile.obj
 0001:0006a93c       ?OnFolderChanging@XFileDialogEvents@CFileDialog@@UAGJPAUIFileDialog@@PAUIShellItem@@@Z 0046b93c f   uafxcw:dlgfile.obj
 0001:0006a95e       ?OnHelp@XFileDialogEvents@CFileDialog@@UAGJPAUIFileDialog@@@Z 0046b95e f   uafxcw:dlgfile.obj
 0001:0006a980       ?OnInitDone@CFileDialog@@MAEXXZ 0046b980 f   uafxcw:dlgfile.obj
 0001:0006a999       ?OnItemSelected@XFileDialogControlEvents@CFileDialog@@UAGJPAUIFileDialogCustomize@@KK@Z 0046b999 f   uafxcw:dlgfile.obj
 0001:0006a9d5       ?OnNotify@CFileDialog@@MAEHIJPAJ@Z 0046b9d5 f   uafxcw:dlgfile.obj
 0001:0006aab4       ?OnOverwrite@XFileDialogEvents@CFileDialog@@UAGJPAUIFileDialog@@PAUIShellItem@@PAW4FDE_OVERWRITE_RESPONSE@@@Z 0046bab4 f   uafxcw:dlgfile.obj
 0001:0006aad6       ?OnSelectionChange@XFileDialogEvents@CFileDialog@@UAGJPAUIFileDialog@@@Z 0046bad6 f   uafxcw:dlgfile.obj
 0001:0006ab0c       ?OnShareViolation@XFileDialogEvents@CFileDialog@@UAGJPAUIFileDialog@@PAUIShellItem@@PAW4FDE_SHAREVIOLATION_RESPONSE@@@Z 0046bb0c f   uafxcw:dlgfile.obj
 0001:0006abab       ?OnTypeChange@XFileDialogEvents@CFileDialog@@UAGJPAUIFileDialog@@@Z 0046bbab f   uafxcw:dlgfile.obj
 0001:0006ac04       ?QueryInterface@XFileDialogControlEvents@CFileDialog@@UAGJABU_GUID@@PAPAX@Z 0046bc04 f   uafxcw:dlgfile.obj
 0001:0006ac47       ?QueryInterface@XFileDialogEvents@CFileDialog@@UAGJABU_GUID@@PAPAX@Z 0046bc47 f   uafxcw:dlgfile.obj
 0001:0006ac7e       ?Release@XFileDialogControlEvents@CFileDialog@@UAGKXZ 0046bc7e f   uafxcw:dlgfile.obj
 0001:0006acaf       ?Release@XFileDialogEvents@CFileDialog@@UAGKXZ 0046bcaf f   uafxcw:dlgfile.obj
 0001:0006ace0       ?UpdateOFNFromShellDialog@CFileDialog@@UAEXXZ 0046bce0 f   uafxcw:dlgfile.obj
 0001:0006b136       ?tcscpy_s@Checked@ATL@@YAXPA_WIPB_W@Z 0046c136 f i uafxcw:dlgfile.obj
 0001:0006b152       _CommdlgIsolationAwarePrivatetRgCebPnQQeRff_pbZQYTQP_QYY@4 0046c152 f i uafxcw:dlgfile.obj
 0001:0006b1ee       _IsolationAwareGetOpenFileNameW@4 0046c1ee f i uafxcw:dlgfile.obj
 0001:0006b293       _IsolationAwareGetSaveFileNameW@4 0046c293 f i uafxcw:dlgfile.obj
 0001:0006b338       ?AfxTextFloatFormat@@YGXPAVCDataExchange@@HPAXNH@Z 0046c338 f   uafxcw:dlgfloat.obj
 0001:0006b45a       ?DDV_MinMaxFloat@@YGXPAVCDataExchange@@ABMMM@Z 0046c45a f   uafxcw:dlgfloat.obj
 0001:0006b4a1       ?DDX_Text@@YGXPAVCDataExchange@@HAAM@Z 0046c4a1 f   uafxcw:dlgfloat.obj
 0001:0006b4c0       ?_AfxFailMinMaxReal@@YGXPAVCDataExchange@@NNHI@Z 0046c4c0 f   uafxcw:dlgfloat.obj
 0001:0006b5df       ?CreateObject@CDockablePane@@SGPAVCObject@@XZ 0046c5df f   uafxcw:afxdockablepane.obj
 0001:0006b60f       ??0CDockablePane@@QAE@XZ   0046c60f f   uafxcw:afxdockablepane.obj
 0001:0006b74a       ??1CDockablePane@@UAE@XZ   0046c74a f   uafxcw:afxdockablepane.obj
 0001:0006b781       ??5@YGAAVCArchive@@AAV0@AAPAVCDockablePane@@@Z 0046c781 f   uafxcw:afxdockablepane.obj
 0001:0006b79d       ??9CPoint@@QBEHUtagPOINT@@@Z 0046c79d f i uafxcw:afxtoolbar.obj
 0001:0006b79d       ??9CSize@@QBEHUtagSIZE@@@Z 0046c79d f i uafxcw:afxdockablepane.obj
 0001:0006b7ba       ?AdjustPaneToPaneContainer@CDockablePane@@MAEXPAVCPaneDivider@@@Z 0046c7ba f   uafxcw:afxdockablepane.obj
 0001:0006b8ce       ?AttachToTabWnd@CDockablePane@@UAEPAV1@PAV1@W4AFX_DOCK_METHOD@@HPAPAV1@@Z 0046c8ce f   uafxcw:afxdockablepane.obj
 0001:0006bb89       ?CalcCorrectOffset@CDockablePane@@IAE?AVCPoint@@VCRect@@H@Z 0046cb89 f   uafxcw:afxdockablepane.obj
 0001:0006bc67       ?CalcRectForSliding@CDockablePane@@IAEXAAVCRect@@0H@Z 0046cc67 f   uafxcw:afxdockablepane.obj
 0001:0006be1a       ?CanAcceptMiniFrame@CDockablePane@@UBEHPAVCPaneFrameWnd@@@Z 0046ce1a f   uafxcw:afxdockablepane.obj
 0001:0006be2d       ?CanAutoHide@CBasePane@@UBEHXZ 0046ce2d f i uafxcw:afxdockablepane.obj
 0001:0006be37       ?CanAutoHide@CDockablePane@@UBEHXZ 0046ce37 f   uafxcw:afxdockablepane.obj
 0001:0006bebc       ?CheckAutoHideCondition@CDockablePane@@MAEHXZ 0046cebc f   uafxcw:afxdockablepane.obj
 0001:0006c03e       ?CheckStopSlideCondition@CDockablePane@@MAEHH@Z 0046d03e f   uafxcw:afxdockablepane.obj
 0001:0006c239       ?ConvertToTabbedDocument@CDockablePane@@UAEXH@Z 0046d239 f   uafxcw:afxdockablepane.obj
 0001:0006c2ad       ?CopyState@CDockablePane@@UAEXPAV1@@Z 0046d2ad f   uafxcw:afxdockablepane.obj
 0001:0006c30a       ?Create@CDockablePane@@UAEHPB_WPAVCWnd@@ABUtagRECT@@HIKKKPAUCCreateContext@@@Z 0046d30a f   uafxcw:afxdockablepane.obj
 0001:0006c333       ?Create@CDockablePane@@UAEHPB_WPAVCWnd@@VCSize@@HIKKK@Z 0046d333 f   uafxcw:afxdockablepane.obj
 0001:0006c38d       ?CreateDefaultPaneDivider@CDockablePane@@SGPAVCPaneDivider@@KPAVCWnd@@PAUCRuntimeClass@@@Z 0046d38d f   uafxcw:afxdockablepane.obj
 0001:0006c45e       ?CreateEx@CDockablePane@@UAEHKPB_WPAVCWnd@@ABUtagRECT@@HIKKKPAUCCreateContext@@@Z 0046d45e f   uafxcw:afxdockablepane.obj
 0001:0006c567       ?CreateTabbedPane@CDockablePane@@UAEPAVCTabbedPane@@XZ 0046d567 f   uafxcw:afxdockablepane.obj
 0001:0006c64c       ?Dock@CDockablePane@@MAEHPAVCBasePane@@PBUtagRECT@@W4AFX_DOCK_METHOD@@@Z 0046d64c f   uafxcw:afxdockablepane.obj
 0001:0006c8cd       ?DockPaneContainer@CDockablePane@@UAEHAAVCPaneContainerManager@@KW4AFX_DOCK_METHOD@@@Z 0046d8cd f   uafxcw:afxdockablepane.obj
 0001:0006c9b2       ?DockPaneStandard@CDockablePane@@UAEPAVCPane@@AAH@Z 0046d9b2 f   uafxcw:afxdockablepane.obj
 0001:0006cad7       ?DockToFrameWindow@CDockablePane@@UAEHKPBUtagRECT@@KPAVCBasePane@@HH@Z 0046dad7 f   uafxcw:afxdockablepane.obj
 0001:0006cd0e       ?DockToWindow@CDockablePane@@UAEHPAV1@KPBUtagRECT@@@Z 0046dd0e f   uafxcw:afxdockablepane.obj
 0001:0006cdd9       ?DrawCaption@CDockablePane@@MAEXPAVCDC@@VCRect@@@Z 0046ddd9 f   uafxcw:afxdockablepane.obj
 0001:0006cfd5       ?EnableButton@CDockablePane@@IAEXIH@Z 0046dfd5 f   uafxcw:afxdockablepane.obj
 0001:0006cfee       ?EnableGripper@CDockablePane@@UAEXH@Z 0046dfee f   uafxcw:afxdockablepane.obj
 0001:0006d043       ?EnterDragMode@CDockablePane@@MAEXH@Z 0046e043 f   uafxcw:afxdockablepane.obj
 0001:0006d053       ?FindButton@CDockablePane@@IBEPAVCMFCCaptionButton@@VCPoint@@@Z 0046e053 f   uafxcw:afxdockablepane.obj
 0001:0006d108       ?FindButtonByHit@CDockablePane@@IBEPAVCMFCCaptionButton@@I@Z 0046e108 f   uafxcw:afxdockablepane.obj
 0001:0006d152       ?GetAt@CPtrArray@@QBEPAXH@Z 0046e152 f i uafxcw:arcobj.obj
 0001:0006d152       ?GetAt@CObArray@@QBEPAVCObject@@H@Z 0046e152 f i uafxcw:afxdockablepane.obj
 0001:0006d171       ?GetCaptionHeight@CDockablePane@@UBEHXZ 0046e171 f   uafxcw:afxdockablepane.obj
 0001:0006d1b1       ?GetDefaultPaneDivider@CDockablePane@@QBEPAVCPaneDivider@@XZ 0046e1b1 f   uafxcw:afxdockablepane.obj
 0001:0006d1ca       ?GetDockingStatus@CDockablePane@@UAE?AW4AFX_CS_STATUS@@VCPoint@@H@Z 0046e1ca f   uafxcw:afxdockablepane.obj
 0001:0006d334       ?GetRuntimeClass@CDockablePane@@UBEPAUCRuntimeClass@@XZ 0046e334 f   uafxcw:afxdockablepane.obj
 0001:0006d33a       ?GetMessageMap@CDockablePane@@MBEPBUAFX_MSGMAP@@XZ 0046e33a f   uafxcw:afxdockablepane.obj
 0001:0006d33a       ?GetThisMessageMap@CDockablePane@@KGPBUAFX_MSGMAP@@XZ 0046e33a f   uafxcw:afxdockablepane.obj
 0001:0006d340       ?HitTest@CDockablePane@@UAEHVCPoint@@H@Z 0046e340 f   uafxcw:afxdockablepane.obj
 0001:0006d4c3       ?IsChangeState@CDockablePane@@UBE?AW4AFX_CS_STATUS@@HPAPAVCBasePane@@@Z 0046e4c3 f   uafxcw:afxdockablepane.obj
 0001:0006d561       ?IsInFloatingMultiPaneFrameWnd@CDockablePane@@UBEHXZ 0046e561 f   uafxcw:afxdockablepane.obj
 0001:0006d57f       ?IsVisible@CDockablePane@@UBEHXZ 0046e57f f   uafxcw:afxdockablepane.obj
 0001:0006d5b3       ?LoadState@CDockablePane@@UAEHPB_WHI@Z 0046e5b3 f   uafxcw:afxdockablepane.obj
 0001:0006d5bc       ?OffsetRectForSliding@CDockablePane@@IAEXAAVCRect@@HH@Z 0046e5bc f   uafxcw:afxdockablepane.obj
 0001:0006d652       ?OnAfterChangeParent@CDockablePane@@UAEXPAVCWnd@@@Z 0046e652 f   uafxcw:afxdockablepane.obj
 0001:0006d67d       ?OnAfterDock@CDockablePane@@MAEXPAVCBasePane@@PBUtagRECT@@W4AFX_DOCK_METHOD@@@Z 0046e67d f   uafxcw:afxdockablepane.obj
 0001:0006d6dd       ?OnBeforeChangeParent@CDockablePane@@UAEXPAVCWnd@@H@Z 0046e6dd f   uafxcw:afxdockablepane.obj
 0001:0006d74a       ?OnBeforeFloat@CDockablePane@@UAEHAAVCRect@@W4AFX_DOCK_METHOD@@@Z 0046e74a f   uafxcw:afxdockablepane.obj
 0001:0006d76d       ?OnCancelMode@CDockablePane@@IAEXXZ 0046e76d f   uafxcw:afxdockablepane.obj
 0001:0006d790       ?OnClose@CDockablePane@@IAEXXZ 0046e790 f   uafxcw:afxdockablepane.obj
 0001:0006d795       ?OnContextMenu@CDockablePane@@IAEXPAVCWnd@@VCPoint@@@Z 0046e795 f   uafxcw:afxdockablepane.obj
 0001:0006d7ca       ?OnCreate@CDockablePane@@IAEHPAUtagCREATESTRUCTW@@@Z 0046e7ca f   uafxcw:afxdockablepane.obj
 0001:0006d850       ?OnDestroy@CDockablePane@@IAEXXZ 0046e850 f   uafxcw:afxdockablepane.obj
 0001:0006d8ed       ?OnDrawDragRect@CDockablePane@@MAEXPBUtagRECT@@0@Z 0046e8ed f   uafxcw:afxdockablepane.obj
 0001:0006d93e       ?OnLButtonDblClk@CDockablePane@@IAEXIVCPoint@@@Z 0046e93e f   uafxcw:afxdockablepane.obj
 0001:0006daff       ?OnLButtonDown@CDockablePane@@IAEXIVCPoint@@@Z 0046eaff f   uafxcw:afxdockablepane.obj
 0001:0006dbd1       ?OnLButtonUp@CDockablePane@@IAEXIVCPoint@@@Z 0046ebd1 f   uafxcw:afxdockablepane.obj
 0001:0006df83       ?OnMouseMove@CDockablePane@@IAEXIVCPoint@@@Z 0046ef83 f   uafxcw:afxdockablepane.obj
 0001:0006e1ee       ?OnNcCalcSize@CDockablePane@@IAEXHPAUtagNCCALCSIZE_PARAMS@@@Z 0046f1ee f   uafxcw:afxdockablepane.obj
 0001:0006e498       ?OnNcHitTest@CDockablePane@@IAEJVCPoint@@@Z 0046f498 f   uafxcw:afxdockablepane.obj
 0001:0006e4bf       ?OnNcLButtonDown@CDockablePane@@IAEXIVCPoint@@@Z 0046f4bf f   uafxcw:afxdockablepane.obj
 0001:0006e4d9       ?OnNcMouseMove@CDockablePane@@IAEXIVCPoint@@@Z 0046f4d9 f   uafxcw:afxdockablepane.obj
 0001:0006e502       ?OnNcPaint@CDockablePane@@IAEXXZ 0046f502 f   uafxcw:afxdockablepane.obj
 0001:0006e88a       ?OnNeedTipText@CDockablePane@@IAEHIPAUtagNMHDR@@PAJ@Z 0046f88a f   uafxcw:afxdockablepane.obj
 0001:0006e95d       ?OnPressCloseButton@CDockablePane@@MAEXXZ 0046f95d f   uafxcw:afxdockablepane.obj
 0001:0006e9d2       ?OnRButtonDown@CDockablePane@@IAEXIVCPoint@@@Z 0046f9d2 f   uafxcw:afxdockablepane.obj
 0001:0006ea01       ?OnSetFocus@CDockablePane@@IAEXPAVCWnd@@@Z 0046fa01 f   uafxcw:afxdockablepane.obj
 0001:0006ea3a       ?OnSetText@CDockablePane@@IAEHPB_W@Z 0046fa3a f   uafxcw:afxdockablepane.obj
 0001:0006ebbd       ?OnSettingChange@CDockablePane@@IAEXIPB_W@Z 0046fbbd f   uafxcw:afxdockablepane.obj
 0001:0006ebef       ?OnSlide@CDockablePane@@MAEXH@Z 0046fbef f   uafxcw:afxdockablepane.obj
 0001:0006ed70       ?OnTimer@CDockablePane@@IAEXI@Z 0046fd70 f   uafxcw:afxdockablepane.obj
 0001:0006ee87       ?OnTrackCaptionButtons@CDockablePane@@MAEXVCPoint@@@Z 0046fe87 f   uafxcw:afxdockablepane.obj
 0001:0006ef53       ?OnUpdateCmdUI@CDockablePane@@UAEXPAVCFrameWnd@@H@Z 0046ff53 f   uafxcw:afxdockablepane.obj
 0001:0006efc6       ?OnUpdateToolTips@CDockablePane@@IAEJIJ@Z 0046ffc6 f   uafxcw:afxdockablepane.obj
 0001:0006f03d       ?PreTranslateMessage@CDockablePane@@UAEHPAUtagMSG@@@Z 0047003d f   uafxcw:afxdockablepane.obj
 0001:0006f217       ?RedrawButton@CDockablePane@@IAEXPBVCMFCCaptionButton@@@Z 00470217 f   uafxcw:afxdockablepane.obj
 0001:0006f28b       ?RemoveCaptionButtons@CDockablePane@@IAEXXZ 0047028b f   uafxcw:afxdockablepane.obj
 0001:0006f2cf       ?RemoveFromDefaultPaneDivider@CDockablePane@@QAEXXZ 004702cf f   uafxcw:afxdockablepane.obj
 0001:0006f2e0       ?ReplacePane@CDockablePane@@QAEHPAV1@W4AFX_DOCK_METHOD@@H@Z 004702e0 f   uafxcw:afxdockablepane.obj
 0001:0006f34e       ?SaveState@CDockablePane@@UAEHPB_WHI@Z 0047034e f   uafxcw:afxdockablepane.obj
 0001:0006f357       ?Serialize@CDockablePane@@UAEXAAVCArchive@@@Z 00470357 f   uafxcw:afxdockablepane.obj
 0001:0006f412       ?SetAutoHideMode@CDockablePane@@UAEPAVCMFCAutoHideBar@@HKPAV2@H@Z 00470412 f   uafxcw:afxdockablepane.obj
 0001:0006f637       ?SetAutoHideParents@CDockablePane@@QAEXPAVCMFCAutoHideBar@@PAVCMFCAutoHideButton@@@Z 00470637 f   uafxcw:afxdockablepane.obj
 0001:0006f650       ?SetCaptionButtons@CDockablePane@@MAEXXZ 00470650 f   uafxcw:afxdockablepane.obj
 0001:0006f704       ?SetDefaultPaneDivider@CDockablePane@@QAEXPAUHWND__@@@Z 00470704 f   uafxcw:afxdockablepane.obj
 0001:0006f736       ?SetResizeMode@CDockablePane@@QAEXH@Z 00470736 f   uafxcw:afxdockablepane.obj
 0001:0006f746       ?ShowPane@CDockablePane@@UAEXHHH@Z 00470746 f   uafxcw:afxdockablepane.obj
 0001:0006f988       ?Slide@CDockablePane@@UAEXHH@Z 00470988 f   uafxcw:afxdockablepane.obj
 0001:0006fc66       ?StopCaptionButtonsTracking@CDockablePane@@MAEXXZ 00470c66 f   uafxcw:afxdockablepane.obj
 0001:0006fcd4       ?StoreRecentDockSiteInfo@CDockablePane@@MAEXXZ 00470cd4 f   uafxcw:afxdockablepane.obj
 0001:0006fd57       ?StoreRecentTabRelatedInfo@CDockablePane@@MAEXXZ 00470d57 f   uafxcw:afxdockablepane.obj
 0001:0006fde0       ?ToggleAutoHide@CDockablePane@@UAEXXZ 00470de0 f   uafxcw:afxdockablepane.obj
 0001:0006fe27       ?UnSetAutoHideMode@CDockablePane@@UAEXPAV1@@Z 00470e27 f   uafxcw:afxdockablepane.obj
 0001:0006febc       ?UndockPane@CDockablePane@@UAEXH@Z 00470ebc f   uafxcw:afxdockablepane.obj
 0001:0006ff2d       ?UpdateTooltips@CDockablePane@@IAEXXZ 00470f2d f   uafxcw:afxdockablepane.obj
 0001:0006fff6       ??0CAccessibilityData@@QAE@XZ 00470ff6 f i uafxcw:afxbasepane.obj
 0001:0007006b       ??0CBasePane@@QAE@XZ       0047106b f   uafxcw:afxbasepane.obj
 0001:00070122       ??1CAccessibilityData@@QAE@XZ 00471122 f i uafxcw:afxbasepane.obj
 0001:00070166       ??1CBasePane@@UAE@XZ       00471166 f   uafxcw:afxbasepane.obj
 0001:00070182       ??1CSettingsStoreSP@@QAE@XZ 00471182 f i uafxcw:afxbasepane.obj
 0001:00070190       ??_ECBasePane@@UAEPAXI@Z   00471190 f i uafxcw:afxbasepane.obj
 0001:00070190       ??_GCBasePane@@UAEPAXI@Z   00471190 f i uafxcw:afxbasepane.obj
 0001:000701af       ?AddPane@CBasePane@@QAEXPAV1@@Z 004711af f   uafxcw:afxbasepane.obj
 0001:00070282       ?AdjustDockingLayout@CBasePane@@UAEXPAX@Z 00471282 f   uafxcw:afxbasepane.obj
 0001:0007036f       ?CanFloat@CBasePane@@UBEHXZ 0047136f f   uafxcw:afxbasepane.obj
 0001:000703d3       ?Clear@CAccessibilityData@@QAEXXZ 004713d3 f i uafxcw:afxbasepane.obj
 0001:00070440       ?CopyState@CBasePane@@UAEXPAV1@@Z 00471440 f   uafxcw:afxbasepane.obj
 0001:000704d1       ?CreateEx@CBasePane@@UAEHKPB_W0KABUtagRECT@@PAVCWnd@@IKPAUCCreateContext@@@Z 004714d1 f   uafxcw:afxbasepane.obj
 0001:000706cc       ?DoPaint@CBasePane@@MAEXPAVCDC@@@Z 004716cc f   uafxcw:afxbasepane.obj
 0001:00070755       ?DockPaneUsingRTTI@CBasePane@@QAEXH@Z 00471755 f   uafxcw:afxbasepane.obj
 0001:00070839       ?GetCurrentAlignment@CBasePane@@UBEKXZ 00471839 f   uafxcw:afxbasepane.obj
 0001:00070845       ?GetDockSiteFrameWnd@CBasePane@@UBEPAVCWnd@@XZ 00471845 f   uafxcw:afxbasepane.obj
 0001:000708ad       ?GetDockingMode@CBasePane@@UBE?AW4AFX_DOCK_TYPE@@XZ 004718ad f   uafxcw:afxbasepane.obj
 0001:000708bd       ?GetThisMessageMap@CBasePane@@KGPBUAFX_MSGMAP@@XZ 004718bd f   uafxcw:afxbasepane.obj
 0001:000708bd       ?GetMessageMap@CBasePane@@MBEPBUAFX_MSGMAP@@XZ 004718bd f   uafxcw:afxbasepane.obj
 0001:000708c3       ?GetParentMiniFrame@CBasePane@@UBEPAVCPaneFrameWnd@@H@Z 004718c3 f   uafxcw:afxbasepane.obj
 0001:00070909       ?GetParentTabWnd@CBasePane@@QBEPAVCMFCBaseTabCtrl@@AAPAUHWND__@@@Z 00471909 f   uafxcw:afxbasepane.obj
 0001:0007098a       ?GetParentTabbedPane@CBasePane@@QBEPAVCBaseTabbedPane@@XZ 0047198a f   uafxcw:afxbasepane.obj
 0001:000709db       ?GetRuntimeClass@CBasePane@@UBEPAUCRuntimeClass@@XZ 004719db f   uafxcw:afxbasepane.obj
 0001:000709e1       ?HandleInitDialog@CBasePane@@IAEJIJ@Z 004719e1 f   uafxcw:afxbasepane.obj
 0001:00070a0b       ?InsertPane@CBasePane@@QAEHPAV1@0H@Z 00471a0b f   uafxcw:afxbasepane.obj
 0001:00070b2d       ?IsDocked@CBasePane@@UBEHXZ 00471b2d f   uafxcw:afxbasepane.obj
 0001:00070b2d       ?IsDocked@CDockablePane@@UBEHXZ 00471b2d f   uafxcw:afxdockablepane.obj
 0001:00070b51       ?IsMDITabbed@CBasePane@@UBEHXZ 00471b51 f   uafxcw:afxbasepane.obj
 0001:00070b58       ?IsPointNearDockSite@CBasePane@@QBEHVCPoint@@AAKAAH@Z 00471b58 f   uafxcw:afxbasepane.obj
 0001:00070c61       ?IsTabbed@CBasePane@@UBEHXZ 00471c61 f   uafxcw:afxbasepane.obj
 0001:00070c7d       ?IsVisible@CBasePane@@UBEHXZ 00471c7d f   uafxcw:afxbasepane.obj
 0001:00070d04       ?LoadState@CBasePane@@UAEHPB_WHI@Z 00471d04 f   uafxcw:afxbasepane.obj
 0001:00070df1       ?MoveWindow@CBasePane@@UAEPAXABVCRect@@HPAX@Z 00471df1 f   uafxcw:afxbasepane.obj
 0001:00070eb5       ?OnGetObject@CBasePane@@IAEJIJ@Z 00471eb5 f   uafxcw:afxbasepane.obj
 0001:00070eed       ?OnHelpHitTest@CControlBar@@QAEJIJ@Z 00471eed f   uafxcw:barcore.obj
 0001:00070eed       ?OnHelpHitTest@CBasePane@@IAEJIJ@Z 00471eed f   uafxcw:afxbasepane.obj
 0001:00070f37       ?OnIdleUpdateCmdUI@CBasePane@@IAEJIJ@Z 00471f37 f   uafxcw:afxbasepane.obj
 0001:00070f9d       ?OnPaint@CBasePane@@IAEXXZ 00471f9d f   uafxcw:afxbasepane.obj
 0001:0007100b       ?OnPaneContextMenu@CBasePane@@UAEXPAVCWnd@@VCPoint@@@Z 0047200b f   uafxcw:afxbasepane.obj
 0001:0007106d       ?OnPrintClient@CBasePane@@IAEJPAVCDC@@I@Z 0047206d f   uafxcw:afxbasepane.obj
 0001:000710af       ?OnSetIcon@CBasePane@@IAEPAUHICON__@@HPAU2@@Z 004720af f   uafxcw:afxbasepane.obj
 0001:00071128       ?OnSettingChange@CBasePane@@IAEXIPB_W@Z 00472128 f   uafxcw:afxbasepane.obj
 0001:00071146       ?OnSize@CBasePane@@IAEXIHH@Z 00472146 f   uafxcw:afxbasepane.obj
 0001:00071162       ?PaneFromPoint@CBasePane@@QBEPAV1@VCPoint@@H_NPAUCRuntimeClass@@@Z 00472162 f   uafxcw:afxbasepane.obj
 0001:00071278       ?PreTranslateMessage@CBasePane@@UAEHPAUtagMSG@@@Z 00472278 f   uafxcw:afxbasepane.obj
 0001:000712fd       ?RemovePaneFromDockManager@CBasePane@@QAEXPAV1@HHH0@Z 004722fd f   uafxcw:afxbasepane.obj
 0001:0007140f       ?SaveState@CBasePane@@UAEHPB_WHI@Z 0047240f f   uafxcw:afxbasepane.obj
 0001:000714f7       ?Serialize@CBasePane@@UAEXAAVCArchive@@@Z 004724f7 f   uafxcw:afxbasepane.obj
 0001:00071555       ?SetWindowPos@CBasePane@@UAEPAXPBVCWnd@@HHHHIPAX@Z 00472555 f   uafxcw:afxbasepane.obj
 0001:000715d1       ?ShowPane@CBasePane@@UAEXHHH@Z 004725d1 f   uafxcw:afxbasepane.obj
 0001:0007176f       ?WindowProc@CBasePane@@MAEJIIJ@Z 0047276f f   uafxcw:afxbasepane.obj
 0001:0007183a       ?accHitTest@CBasePane@@UAEJJJPAUtagVARIANT@@@Z 0047283a f   uafxcw:afxbasepane.obj
 0001:0007188b       ?accLocation@CBasePane@@UAEJPAJ000UtagVARIANT@@@Z 0047288b f   uafxcw:afxbasepane.obj
 0001:00071971       ?get_accChild@CBasePane@@UAEJUtagVARIANT@@PAPAUIDispatch@@@Z 00472971 f   uafxcw:afxbasepane.obj
 0001:0007199b       ?get_accDefaultAction@CBasePane@@UAEJUtagVARIANT@@PAPA_W@Z 0047299b f   uafxcw:afxbasepane.obj
 0001:000719e7       ?get_accDescription@CBasePane@@UAEJUtagVARIANT@@PAPA_W@Z 004729e7 f   uafxcw:afxbasepane.obj
 0001:00071a7c       ?get_accHelp@CBasePane@@UAEJUtagVARIANT@@PAPA_W@Z 00472a7c f   uafxcw:afxbasepane.obj
 0001:00071ae0       ?get_accKeyboardShortcut@CBasePane@@UAEJUtagVARIANT@@PAPA_W@Z 00472ae0 f   uafxcw:afxbasepane.obj
 0001:00071b5d       ?get_accName@CBasePane@@UAEJUtagVARIANT@@PAPA_W@Z 00472b5d f   uafxcw:afxbasepane.obj
 0001:00071bf2       ?get_accParent@CBasePane@@UAEJPAPAUIDispatch@@@Z 00472bf2 f   uafxcw:afxbasepane.obj
 0001:00071c35       ?get_accRole@CBasePane@@UAEJUtagVARIANT@@PAU2@@Z 00472c35 f   uafxcw:afxbasepane.obj
 0001:00071c90       ?get_accState@CBasePane@@UAEJUtagVARIANT@@PAU2@@Z 00472c90 f   uafxcw:afxbasepane.obj
 0001:00071cfd       ?get_accValue@CBasePane@@UAEJUtagVARIANT@@PAPA_W@Z 00472cfd f   uafxcw:afxbasepane.obj
 0001:00071d3f       ?CreateObject@CPane@@SGPAVCObject@@XZ 00472d3f f   uafxcw:afxpane.obj
 0001:00071d6f       ??0CPane@@IAE@XZ           00472d6f f   uafxcw:afxpane.obj
 0001:00071ecc       ??1CPane@@UAE@XZ           00472ecc f   uafxcw:afxpane.obj
 0001:00071f26       ??_GCPane@@UAEPAXI@Z       00472f26 f i uafxcw:afxpane.obj
 0001:00071f26       ??_ECPane@@UAEPAXI@Z       00472f26 f i uafxcw:afxpane.obj
 0001:00071f45       ?AdjustSizeImmediate@CPane@@UAEXH@Z 00472f45 f   uafxcw:afxpane.obj
 0001:00072024       ?AllocElements@CPane@@QAEHHH@Z 00473024 f   uafxcw:afxpane.obj
 0001:0007208b       ?CalcAvailableSize@CPane@@UAE?AVCSize@@VCRect@@@Z 0047308b f   uafxcw:afxpane.obj
 0001:00072133       ?CalcInsideRect@CPane@@QBEXAAVCRect@@H@Z 00473133 f   uafxcw:afxpane.obj
 0001:00072212       ?CalcRecentDockedRect@CPane@@QAEXXZ 00473212 f   uafxcw:afxpane.obj
 0001:00072256       ?CanBeTabbedDocument@CPane@@UBEHXZ 00473256 f   uafxcw:afxpane.obj
 0001:00072296       ?CopyState@CPane@@UAEXPAV1@@Z 00473296 f   uafxcw:afxpane.obj
 0001:0007231a       ?Create@CPane@@UAEHPB_WKABUtagRECT@@PAVCWnd@@IKPAUCCreateContext@@@Z 0047331a f   uafxcw:afxpane.obj
 0001:0007233d       ?CreateDefaultMiniframe@CPane@@UAEPAVCPaneFrameWnd@@VCRect@@@Z 0047333d f   uafxcw:afxpane.obj
 0001:000723cf       ?CreateEx@CPane@@UAEHKPB_WKABUtagRECT@@PAVCWnd@@IKPAUCCreateContext@@@Z 004733cf f   uafxcw:afxpane.obj
 0001:0007253b       ?Dock@CPane@@MAEHPAVCBasePane@@PBUtagRECT@@W4AFX_DOCK_METHOD@@@Z 0047353b f   uafxcw:afxpane.obj
 0001:00072687       ?DockByMouse@CPane@@UAEHPAVCBasePane@@@Z 00473687 f   uafxcw:afxpane.obj
 0001:000726d5       ?DockPane@CPane@@UAEHPAVCBasePane@@PBUtagRECT@@W4AFX_DOCK_METHOD@@@Z 004736d5 f   uafxcw:afxpane.obj
 0001:00072729       ?DockPaneStandard@CPane@@UAEPAV1@AAH@Z 00473729 f i uafxcw:afxpane.obj
 0001:00072738       ?EnterDragMode@CPane@@MAEXH@Z 00473738 f   uafxcw:afxpane.obj
 0001:000727dc       ?FloatPane@CPane@@UAEHVCRect@@W4AFX_DOCK_METHOD@@_N@Z 004737dc f   uafxcw:afxpane.obj
 0001:00072bd5       ?GetAvailableExpandSize@CPane@@UBEHXZ 00473bd5 f   uafxcw:afxpane.obj
 0001:00072c92       ?GetAvailableStretchSize@CPane@@UBEHXZ 00473c92 f   uafxcw:afxpane.obj
 0001:00072d07       ?GetPaneName@CPane@@UBEXAAV?$CStringT@_WV?$StrTraitMFC@_WV?$ChTraitsCRT@_W@ATL@@@@@ATL@@@Z 00473d07 f   uafxcw:afxpane.obj
 0001:00072d1e       ?GetRuntimeClass@CPane@@UBEPAUCRuntimeClass@@XZ 00473d1e f   uafxcw:afxpane.obj
 0001:00072d24       ?GetThisMessageMap@CPane@@KGPBUAFX_MSGMAP@@XZ 00473d24 f   uafxcw:afxpane.obj
 0001:00072d24       ?GetMessageMap@CPane@@MBEPBUAFX_MSGMAP@@XZ 00473d24 f   uafxcw:afxpane.obj
 0001:00072d2a       ?GetVirtualRect@CPane@@QBEXAAVCRect@@@Z 00473d2a f   uafxcw:afxpane.obj
 0001:00072d5b       ?IsChangeState@CPane@@UBE?AW4AFX_CS_STATUS@@HPAPAVCBasePane@@@Z 00473d5b f   uafxcw:afxpane.obj
 0001:00073000       ?IsLeftOf@CPane@@QBE_NVCRect@@_N@Z 00474000 f   uafxcw:afxpane.obj
 0001:00073087       ?IsTabbed@CPane@@UBEHXZ    00474087 f   uafxcw:afxpane.obj
 0001:000730fa       ?LoadState@CPane@@UAEHPB_WHI@Z 004740fa f   uafxcw:afxpane.obj
 0001:00073298       ?MapWindowPoints@CWnd@@QBEXPAV1@PAUtagRECT@@@Z 00474298 f i uafxcw:afxpane.obj
 0001:000732b8       ?MoveByAlignment@CPane@@QAEHKH@Z 004742b8 f   uafxcw:afxpane.obj
 0001:0007338d       ?MovePane@CPane@@UAE?AVCSize@@VCRect@@HAAPAX@Z 0047438d f   uafxcw:afxpane.obj
 0001:000734cb       ?OnAfterChangeParent@CPane@@UAEXPAVCWnd@@@Z 004744cb f   uafxcw:afxpane.obj
 0001:00073502       ?OnAfterFloat@CPane@@UAEXXZ 00474502 f   uafxcw:afxpane.obj
 0001:00073558       ?OnBeforeChangeParent@CPane@@UAEXPAVCWnd@@H@Z 00474558 f   uafxcw:afxpane.obj
 0001:00073572       ?OnBeforeDock@CPane@@MAEHPAPAVCBasePane@@PBUtagRECT@@W4AFX_DOCK_METHOD@@@Z 00474572 f   uafxcw:afxpane.obj
 0001:00073596       ?OnCancelMode@CPane@@IAEXXZ 00474596 f   uafxcw:afxpane.obj
 0001:00073605       ?OnChar@CPane@@IAEXIII@Z   00474605 f   uafxcw:afxpane.obj
 0001:00073622       ?OnContextMenu@CPane@@IAEXPAVCWnd@@VCPoint@@@Z 00474622 f   uafxcw:afxpane.obj
 0001:00073691       ?OnContinueMoving@CPane@@MAEXXZ 00474691 f   uafxcw:afxpane.obj
 0001:0007369c       ?OnDestroy@CPane@@IAEXXZ   0047469c f   uafxcw:afxpane.obj
 0001:00073728       ?OnLButtonDblClk@CPane@@IAEXIVCPoint@@@Z 00474728 f   uafxcw:afxpane.obj
 0001:0007376d       ?OnLButtonDown@CPane@@IAEXIVCPoint@@@Z 0047476d f   uafxcw:afxpane.obj
 0001:00073857       ?OnLButtonUp@CPane@@IAEXIVCPoint@@@Z 00474857 f   uafxcw:afxpane.obj
 0001:00073a32       ?OnMouseMove@CPane@@IAEXIVCPoint@@@Z 00474a32 f   uafxcw:afxpane.obj
 0001:00073af0       ?OnNcDestroy@CPane@@IAEXXZ 00474af0 f   uafxcw:afxpane.obj
 0001:00073b22       ?OnPressCloseButton@CPane@@UAEXXZ 00474b22 f   uafxcw:afxpane.obj
 0001:00073b3b       ?OnProcessDblClk@CPane@@UAEXXZ 00474b3b f   uafxcw:afxpane.obj
 0001:00073b99       ?OnRTLChanged@CPane@@MAEXH@Z 00474b99 f   uafxcw:afxpane.obj
 0001:00073c04       ?OnShowControlBarMenu@CPane@@UAEHVCPoint@@@Z 00474c04 f   uafxcw:afxpane.obj
 0001:000741aa       ?OnStyleChanged@CPane@@IAEXHPAUtagSTYLESTRUCT@@@Z 004751aa f   uafxcw:afxpane.obj
 0001:000741f3       ?PrepareToDock@CPane@@UAEXPAVCDockSite@@W4AFX_DOCK_METHOD@@@Z 004751f3 f   uafxcw:afxpane.obj
 0001:00074270       ?RecalcLayout@CPane@@UAEXXZ 00475270 f   uafxcw:afxpane.obj
 0001:000742c1       ?RemoveFromMiniframe@CPane@@MAEXPAVCWnd@@W4AFX_DOCK_METHOD@@@Z 004752c1 f   uafxcw:afxpane.obj
 0001:0007436c       ?SaveState@CPane@@UAEHPB_WHI@Z 0047536c f   uafxcw:afxpane.obj
 0001:0007454f       ?SetActiveInGroup@CPane@@UAEXH@Z 0047554f f   uafxcw:afxpane.obj
 0001:0007455f       ?SetBorders@CPane@@QAEXHHHH@Z 0047555f f   uafxcw:afxpane.obj
 0001:0007458a       ?SetBorders@CPane@@QAEXPBUtagRECT@@@Z 0047558a f   uafxcw:afxpane.obj
 0001:000745b7       ?SetDockState@CPane@@UAEXPAVCDockingManager@@@Z 004755b7 f   uafxcw:afxpane.obj
 0001:00074634       ?SetDragMode@CPane@@MAEXH@Z 00475634 f   uafxcw:afxpane.obj
 0001:00074644       ?StoreRecentDockSiteInfo@CPane@@MAEXXZ 00475644 f   uafxcw:afxpane.obj
 0001:00074677       ?StretchPaneDeferWndPos@CPane@@UAEHHAAPAX@Z 00475677 f   uafxcw:afxpane.obj
 0001:00074777       ?UndockPane@CPane@@UAEXH@Z 00475777 f   uafxcw:afxpane.obj
 0001:000747a9       ?UpdateVirtualRect@CPane@@QAEXVCPoint@@@Z 004757a9 f   uafxcw:afxpane.obj
 0001:00074800       ?UpdateVirtualRect@CPane@@QAEXVCSize@@@Z 00475800 f   uafxcw:afxpane.obj
 0001:00074861       ?UpdateVirtualRect@CPane@@QAEXXZ 00475861 f   uafxcw:afxpane.obj
 0001:000748dd       ??0CDialogBar@@QAE@XZ      004758dd f   uafxcw:bardlg.obj
 0001:00074909       ??1CDialogBar@@UAE@XZ      00475909 f   uafxcw:bardlg.obj
 0001:0007493a       ??_ECDialogBar@@UAEPAXI@Z  0047593a f i uafxcw:bardlg.obj
 0001:0007493a       ??_GCDialogBar@@UAEPAXI@Z  0047593a f i uafxcw:bardlg.obj
 0001:00074959       ?CalcFixedLayout@CDialogBar@@UAE?AVCSize@@HH@Z 00475959 f   uafxcw:bardlg.obj
 0001:000749a8       ?Create@CDialogBar@@UAEHPAVCWnd@@PB_WII@Z 004759a8 f   uafxcw:bardlg.obj
 0001:00074ade       ?GetMessageMap@CDialogBar@@MBEPBUAFX_MSGMAP@@XZ 00475ade f   uafxcw:bardlg.obj
 0001:00074ade       ?GetThisMessageMap@CDialogBar@@KGPBUAFX_MSGMAP@@XZ 00475ade f   uafxcw:bardlg.obj
 0001:00074ae4       ?GetRuntimeClass@CDialogBar@@UBEPAUCRuntimeClass@@XZ 00475ae4 f   uafxcw:bardlg.obj
 0001:00074aea       ?HandleInitDialog@CDialogBar@@IAEJIJ@Z 00475aea f   uafxcw:bardlg.obj
 0001:00074b1b       ?OnUpdateCmdUI@CDialogBar@@UAEXPAVCFrameWnd@@H@Z 00475b1b f   uafxcw:bardlg.obj
 0001:00074b24       ?SetOccDialogInfo@CDialogBar@@MAEHPAU_AFX_OCC_DIALOG_INFO@@@Z 00475b24 f   uafxcw:bardlg.obj
 0001:00074b37       ??1CButton@@UAE@XZ         00475b37 f   uafxcw:winctrl1.obj
 0001:00074b68       ??1CComboBox@@UAE@XZ       00475b68 f   uafxcw:winctrl1.obj
 0001:00074b99       ??1CEdit@@UAE@XZ           00475b99 f   uafxcw:winctrl1.obj
 0001:00074bca       ??1CListBox@@UAE@XZ        00475bca f   uafxcw:winctrl1.obj
 0001:00074bfb       ??1CScrollBar@@UAE@XZ      00475bfb f   uafxcw:winctrl1.obj
 0001:00074c2c       ??1CStatic@@UAE@XZ         00475c2c f   uafxcw:winctrl1.obj
 0001:00074c5d       ??_ECEdit@@UAEPAXI@Z       00475c5d f i uafxcw:winctrl1.obj
 0001:00074c5d       ??_GCEdit@@UAEPAXI@Z       00475c5d f i uafxcw:winctrl1.obj
 0001:00074c7c       ??_ECScrollBar@@UAEPAXI@Z  00475c7c f i uafxcw:winctrl1.obj
 0001:00074c7c       ??_GCScrollBar@@UAEPAXI@Z  00475c7c f i uafxcw:winctrl1.obj
 0001:00074c9b       ?Create@CButton@@UAEHPB_WKABUtagRECT@@PAVCWnd@@I@Z 00475c9b f   uafxcw:winctrl1.obj
 0001:00074cbd       ?Create@CComboBox@@UAEHKABUtagRECT@@PAVCWnd@@I@Z 00475cbd f   uafxcw:winctrl1.obj
 0001:00074cde       ?Create@CEdit@@QAEHKABUtagRECT@@PAVCWnd@@I@Z 00475cde f   uafxcw:winctrl1.obj
 0001:00074cff       ?Create@CListBox@@UAEHKABUtagRECT@@PAVCWnd@@I@Z 00475cff f   uafxcw:winctrl1.obj
 0001:00074d20       ?Create@CScrollBar@@UAEHKABUtagRECT@@PAVCWnd@@I@Z 00475d20 f   uafxcw:winctrl1.obj
 0001:00074d41       ?Create@CStatic@@UAEHPB_WKABUtagRECT@@PAVCWnd@@I@Z 00475d41 f   uafxcw:winctrl1.obj
 0001:00074d63       ?GetLBText@CComboBox@@QBEXHAAV?$CStringT@_WV?$StrTraitMFC@_WV?$ChTraitsCRT@_W@ATL@@@@@ATL@@@Z 00475d63 f   uafxcw:winctrl1.obj
 0001:00074da6       ?GetRuntimeClass@CButton@@UBEPAUCRuntimeClass@@XZ 00475da6 f   uafxcw:winctrl1.obj
 0001:00074dac       ?GetRuntimeClass@CComboBox@@UBEPAUCRuntimeClass@@XZ 00475dac f   uafxcw:winctrl1.obj
 0001:00074db2       ?GetRuntimeClass@CEdit@@UBEPAUCRuntimeClass@@XZ 00475db2 f   uafxcw:winctrl1.obj
 0001:00074db8       ?GetRuntimeClass@CListBox@@UBEPAUCRuntimeClass@@XZ 00475db8 f   uafxcw:winctrl1.obj
 0001:00074dbe       ?GetRuntimeClass@CScrollBar@@UBEPAUCRuntimeClass@@XZ 00475dbe f   uafxcw:winctrl1.obj
 0001:00074dc4       ?GetRuntimeClass@CStatic@@UBEPAUCRuntimeClass@@XZ 00475dc4 f   uafxcw:winctrl1.obj
 0001:00074dca       ?GetText@CListBox@@QBEXHAAV?$CStringT@_WV?$StrTraitMFC@_WV?$ChTraitsCRT@_W@ATL@@@@@ATL@@@Z 00475dca f   uafxcw:winctrl1.obj
 0001:00074e0d       ?OnChildNotify@CButton@@MAEHIIJPAJ@Z 00475e0d f   uafxcw:winctrl1.obj
 0001:00074e0d       ?OnChildNotify@CStatic@@MAEHIIJPAJ@Z 00475e0d f   uafxcw:winctrl1.obj
 0001:00074e2e       ?OnChildNotify@CComboBox@@MAEHIIJPAJ@Z 00475e2e f   uafxcw:winctrl1.obj
 0001:00074e88       ?OnChildNotify@CListBox@@MAEHIIJPAJ@Z 00475e88 f   uafxcw:winctrl1.obj
 0001:00074f2f       ??0CControlBar@@IAE@XZ     00475f2f f   uafxcw:barcore.obj
 0001:00074fab       ??1CControlBar@@UAE@XZ     00475fab f   uafxcw:barcore.obj
 0001:00075023       ?CalcDynamicLayout@CControlBar@@UAE?AVCSize@@HK@Z 00476023 f   uafxcw:barcore.obj
 0001:00075047       ?CalcFixedLayout@CBasePane@@UAE?AVCSize@@HH@Z 00476047 f   uafxcw:afxbasepane.obj
 0001:00075047       ?CalcFixedLayout@CControlBar@@UAE?AVCSize@@HH@Z 00476047 f   uafxcw:barcore.obj
 0001:00075083       ?CalcInsideRect@CControlBar@@UBEXAAVCRect@@H@Z 00476083 f   uafxcw:barcore.obj
 0001:00075147       ?DelayShow@CControlBar@@UAEXH@Z 00476147 f   uafxcw:barcore.obj
 0001:00075182       ?DestroyWindow@CControlBar@@UAEHXZ 00476182 f   uafxcw:barcore.obj
 0001:000751ab       ?DoPaint@CControlBar@@UAEXPAVCDC@@@Z 004761ab f   uafxcw:barcore.obj
 0001:0007520d       ?DrawBorders@CControlBar@@UAEXPAVCDC@@AAVCRect@@@Z 0047620d f   uafxcw:barcore.obj
 0001:00075491       ?DrawGripper@CControlBar@@UAEXPAVCDC@@ABVCRect@@@Z 00476491 f   uafxcw:barcore.obj
 0001:000754de       ?DrawNCGripper@CControlBar@@UAEXPAVCDC@@ABVCRect@@@Z 004764de f   uafxcw:barcore.obj
 0001:0007552b       ?DrawNonThemedGripper@CControlBar@@UAEHPAVCDC@@ABVCRect@@@Z 0047652b f   uafxcw:barcore.obj
 0001:000755c9       ?DrawThemedGripper@CControlBar@@UAEHPAVCDC@@ABVCRect@@H@Z 004765c9 f   uafxcw:barcore.obj
 0001:000757cd       ?EraseNonClient@CControlBar@@QAEXXZ 004767cd f   uafxcw:barcore.obj
 0001:000758af       ?GetThisMessageMap@CControlBar@@KGPBUAFX_MSGMAP@@XZ 004768af f   uafxcw:barcore.obj
 0001:000758b5       ?IsVisible@CControlBar@@UBEHXZ 004768b5 f   uafxcw:barcore.obj
 0001:000758d6       ?OnCreate@CControlBar@@QAEHPAUtagCREATESTRUCTW@@@Z 004768d6 f   uafxcw:barcore.obj
 0001:00075973       ?OnCtlColor@CControlBar@@QAEPAUHBRUSH__@@PAVCDC@@PAVCWnd@@I@Z 00476973 f   uafxcw:barcore.obj
 0001:000759d2       ?OnDestroy@CControlBar@@QAEXXZ 004769d2 f   uafxcw:barcore.obj
 0001:00075a3e       ?OnIdleUpdateCmdUI@CControlBar@@QAEJIJ@Z 00476a3e f   uafxcw:barcore.obj
 0001:00075af2       ?OnInitialUpdate@CControlBar@@QAEXXZ 00476af2 f   uafxcw:barcore.obj
 0001:00075afc       ?OnLButtonDblClk@CControlBar@@QAEXIVCPoint@@@Z 00476afc f   uafxcw:barcore.obj
 0001:00075b36       ?OnLButtonDown@CControlBar@@QAEXIVCPoint@@@Z 00476b36 f   uafxcw:barcore.obj
 0001:00075b82       ?OnMouseActivate@CControlBar@@QAEHPAVCWnd@@II@Z 00476b82 f   uafxcw:barcore.obj
 0001:00075ba3       ?OnPaint@CControlBar@@QAEXXZ 00476ba3 f   uafxcw:barcore.obj
 0001:00075bec       ?VKeyToItem@CListBox@@UAEHII@Z 00476bec f i uafxcw:winctrl1.obj
 0001:00075bec       ?OnShowWindow@CWnd@@IAEXHI@Z 00476bec f i uafxcw:barcore.obj
 0001:00075bec       ?CharToItem@CListBox@@UAEHII@Z 00476bec f i uafxcw:winctrl1.obj
 0001:00075bec       ?OnSizing@CMultiPaneFrameWnd@@IAEXIPAUtagRECT@@@Z 00476bec f i uafxcw:afxmultipaneframewnd.obj
 0001:00075bf4       ?OnSizeParent@CControlBar@@QAEJIJ@Z 00476bf4 f   uafxcw:barcore.obj
 0001:00075d5e       ?OnThemeChanged@CControlBar@@QAEJXZ 00476d5e f   uafxcw:barcore.obj
 0001:00075da9       ?OnTimer@CControlBar@@QAEXI@Z 00476da9 f   uafxcw:barcore.obj
 0001:00075f2b       ?OnWindowPosChanging@CControlBar@@QAEXPAUtagWINDOWPOS@@@Z 00476f2b f   uafxcw:barcore.obj
 0001:00076058       ?PostNcDestroy@CControlBar@@UAEXXZ 00477058 f   uafxcw:barcore.obj
 0001:00076066       ?PreCreateWindow@CControlBar@@UAEHAAUtagCREATESTRUCTW@@@Z 00477066 f   uafxcw:barcore.obj
 0001:000760e1       ?PreTranslateMessage@CControlBar@@UAEHPAUtagMSG@@@Z 004770e1 f   uafxcw:barcore.obj
 0001:0007630d       ?RecalcDelayShow@CControlBar@@UAEKPAUAFX_SIZEPARENTPARAMS@@@Z 0047730d f   uafxcw:barcore.obj
 0001:00076398       ?ResetTimer@CControlBar@@QAEXII@Z 00477398 f   uafxcw:barcore.obj
 0001:000763d0       ?SetStatusText@CControlBar@@UAEHH@Z 004773d0 f   uafxcw:barcore.obj
 0001:0007646d       ?WindowProc@CControlBar@@UAEJIIJ@Z 0047746d f   uafxcw:barcore.obj
 0001:0007655b       ??0CDialogEx@@QAE@IPAVCWnd@@@Z 0047755b f   uafxcw:afxdialogex.obj
 0001:000765bf       ??_ECDialogEx@@UAEPAXI@Z   004775bf f i uafxcw:afxdialogex.obj
 0001:000765bf       ??_GCDialogEx@@UAEPAXI@Z   004775bf f i uafxcw:afxdialogex.obj
 0001:000765de       ?CommonConstruct@CDialogEx@@IAEXXZ 004775de f   uafxcw:afxdialogex.obj
 0001:00076600       ?DrawState@CDC@@QAEHVCPoint@@VCSize@@PAUHBITMAP__@@IPAUHBRUSH__@@@Z 00477600 f i uafxcw:afxdialogex.obj
 0001:0007662d       ?GetRuntimeClass@CDialogEx@@UBEPAUCRuntimeClass@@XZ 0047762d f   uafxcw:afxdialogex.obj
 0001:00076633       ?GetThisMessageMap@CDialogEx@@KGPBUAFX_MSGMAP@@XZ 00477633 f   uafxcw:afxdialogex.obj
 0001:00076633       ?GetMessageMap@CDialogEx@@MBEPBUAFX_MSGMAP@@XZ 00477633 f   uafxcw:afxdialogex.obj
 0001:00076639       ?OnActivate@CDialogEx@@IAEXIPAVCWnd@@H@Z 00477639 f   uafxcw:afxdialogex.obj
 0001:0007665a       ?OnCommand@CDialogEx@@MAEHIJ@Z 0047765a f   uafxcw:afxdialogex.obj
 0001:0007668c       ?OnCtlColor@CDialogEx@@IAEPAUHBRUSH__@@PAVCDC@@PAVCWnd@@I@Z 0047768c f   uafxcw:afxdialogex.obj
 0001:000767af       ?OnDestroy@CDialogEx@@IAEXXZ 004777af f   uafxcw:afxdialogex.obj
 0001:000767e6       ?OnEraseBkgnd@CDialogEx@@IAEHPAVCDC@@@Z 004777e6 f   uafxcw:afxdialogex.obj
 0001:00076966       ?OnNcActivate@CDialogEx@@IAEHH@Z 00477966 f   uafxcw:afxdialogex.obj
 0001:00076994       ?OnSettingChange@CDialogEx@@IAEXIPB_W@Z 00477994 f   uafxcw:afxdialogex.obj
 0001:000769bf       ?OnSysColorChange@CDialogEx@@IAEXXZ 004779bf f   uafxcw:afxdialogex.obj
 0001:000769de       ?PreTranslateMessage@CDialogEx@@UAEHPAUtagMSG@@@Z 004779de f   uafxcw:afxdialogex.obj
 0001:00076a0a       ?SetActiveMenu@CDialogEx@@IAEXPAVCMFCPopupMenu@@@Z 00477a0a f   uafxcw:afxdialogex.obj
 0001:00076a19       ?CreateObject@CDC@@SGPAVCObject@@XZ 00477a19 f   uafxcw:wingdi.obj
 0001:00076a3a       ?CreateObject@CGdiObject@@SGPAVCObject@@XZ 00477a3a f   uafxcw:wingdi.obj
 0001:00076a54       ??0CBrush@@QAE@K@Z         00477a54 f   uafxcw:wingdi.obj
 0001:00076a97       ??0CClientDC@@QAE@PAVCWnd@@@Z 00477a97 f   uafxcw:wingdi.obj
 0001:00076aeb       ??0CDC@@QAE@XZ             00477aeb f   uafxcw:wingdi.obj
 0001:00076aff       ??0CPaintDC@@QAE@PAVCWnd@@@Z 00477aff f   uafxcw:wingdi.obj
 0001:00076b53       ??0CPen@@QAE@HHK@Z         00477b53 f   uafxcw:wingdi.obj
 0001:00076b9c       ??0CWindowDC@@QAE@PAVCWnd@@@Z 00477b9c f   uafxcw:wingdi.obj
 0001:00076bf0       ??1CClientDC@@UAE@XZ       00477bf0 f   uafxcw:wingdi.obj
 0001:00076c2b       ??1CDC@@UAE@XZ             00477c2b f   uafxcw:wingdi.obj
 0001:00076c44       ??1CPaintDC@@UAE@XZ        00477c44 f   uafxcw:wingdi.obj
 0001:00076c84       ??1CPen@@UAE@XZ            00477c84 f i uafxcw:wingdi.obj
 0001:00076c8f       ??1CWindowDC@@UAE@XZ       00477c8f f   uafxcw:wingdi.obj
 0001:00076cca       ??_GCClientDC@@UAEPAXI@Z   00477cca f i uafxcw:wingdi.obj
 0001:00076cca       ??_ECClientDC@@UAEPAXI@Z   00477cca f i uafxcw:wingdi.obj
 0001:00076ce9       ??_GCDC@@UAEPAXI@Z         00477ce9 f i uafxcw:wingdi.obj
 0001:00076ce9       ??_ECDC@@UAEPAXI@Z         00477ce9 f i uafxcw:wingdi.obj
 0001:00076d08       ??_ECPaintDC@@UAEPAXI@Z    00477d08 f i uafxcw:wingdi.obj
 0001:00076d08       ??_GCPaintDC@@UAEPAXI@Z    00477d08 f i uafxcw:wingdi.obj
 0001:00076d27       ??_ECPen@@UAEPAXI@Z        00477d27 f i uafxcw:wingdi.obj
 0001:00076d27       ??_GCPen@@UAEPAXI@Z        00477d27 f i uafxcw:wingdi.obj
 0001:00076d4c       ??_ECWindowDC@@UAEPAXI@Z   00477d4c f i uafxcw:wingdi.obj
 0001:00076d4c       ??_GCWindowDC@@UAEPAXI@Z   00477d4c f i uafxcw:wingdi.obj
 0001:00076d6b       ?AfxGetDitheredBitmap@@YGXABVCBitmap@@PAV1@KK@Z 00477d6b f   uafxcw:wingdi.obj
 0001:00077068       ?AfxGetGrayBitmap@@YGXABVCBitmap@@PAV1@K@Z 00478068 f   uafxcw:wingdi.obj
 0001:000772fe       ?AfxThrowResourceException@@YGXXZ 004782fe f   uafxcw:wingdi.obj
 0001:00077318       ?AfxThrowUserException@@YGXXZ 00478318 f   uafxcw:wingdi.obj
 0001:00077332       ?Attach@CDC@@QAEHPAUHDC__@@@Z 00478332 f   uafxcw:wingdi.obj
 0001:00077368       ?Attach@CGdiObject@@QAEHPAX@Z 00478368 f   uafxcw:wingdi.obj
 0001:00077394       ?ClientToScreen@CWnd@@QBEXPAUtagRECT@@@Z 00478394 f   uafxcw:wingdi.obj
 0001:000773d3       ?Construct@?$ConstructDestruct@VCDC@@@@SGXPAVCObject@@@Z 004783d3 f i uafxcw:wingdi.obj
 0001:000773f2       ?Construct@?$ConstructDestruct@VCGdiObject@@@@SGXPAVCObject@@@Z 004783f2 f i uafxcw:wingdi.obj
 0001:0007740a       ?DPtoLP@CDC@@QBEXPAUtagSIZE@@@Z 0047840a f   uafxcw:wingdi.obj
 0001:00077475       ?DeleteDC@CDC@@QAEHXZ      00478475 f   uafxcw:wingdi.obj
 0001:0007748b       ?DeleteObject@CGdiObject@@QAEHXZ 0047848b f   uafxcw:wingdi.obj
 0001:000774a1       ?Destruct@?$ConstructDestruct@VCDC@@@@SGXPAVCObject@@@Z 004784a1 f i uafxcw:wingdi.obj
 0001:000774a1       ?Destruct@?$ConstructDestruct@VCMenu@@@@SGXPAVCObject@@@Z 004784a1 f i uafxcw:winmenu.obj
 0001:000774a1       ?Destruct@?$ConstructDestruct@VCGdiObject@@@@SGXPAVCObject@@@Z 004784a1 f i uafxcw:wingdi.obj
 0001:000774a1       ?Destruct@?$ConstructDestruct@VCImageList@@@@SGXPAVCObject@@@Z 004784a1 f i uafxcw:winctrl2.obj
 0001:000774a1       ?Destruct@?$ConstructDestruct@VCWnd@@@@SGXPAVCObject@@@Z 004784a1 f i uafxcw:wincore.obj
 0001:000774b2       ?Detach@CDC@@QAEPAUHDC__@@XZ 004784b2 f   uafxcw:wingdi.obj
 0001:000774e3       ?Detach@CGdiObject@@QAEPAXXZ 004784e3 f   uafxcw:wingdi.obj
 0001:0007750d       ?DrawTextExW@CDC@@UAEHPA_WHPAUtagRECT@@IPAUtagDRAWTEXTPARAMS@@@Z 0047850d f i uafxcw:wingdi.obj
 0001:0007752c       ?DrawTextW@CDC@@UAEHPB_WHPAUtagRECT@@I@Z 0047852c f i uafxcw:wingdi.obj
 0001:00077548       ?Escape@CDC@@UAEHHHPBDPAX@Z 00478548 f i uafxcw:wingdi.obj
 0001:00077564       ?ExcludeClipRect@CDC@@QAEHPBUtagRECT@@@Z 00478564 f   uafxcw:wingdi.obj
 0001:000775aa       ?ExtTextOutW@CDC@@UAEHHHIPBUtagRECT@@PB_WIPAH@Z 004785aa f i uafxcw:wingdi.obj
 0001:000775cf       ?FromHandle@CDC@@SGPAV1@PAUHDC__@@@Z 004785cf f   uafxcw:wingdi.obj
 0001:000775e1       ?FromHandle@CGdiObject@@SGPAV1@PAX@Z 004785e1 f   uafxcw:wingdi.obj
 0001:000775f3       ?GetClipBox@CDC@@UBEHPAUtagRECT@@@Z 004785f3 f   uafxcw:wingdi.obj
 0001:00077606       ?GetLayout@CDC@@QBEKXZ     00478606 f   uafxcw:wingdi.obj
 0001:00077610       ?GetRuntimeClass@CBitmap@@UBEPAUCRuntimeClass@@XZ 00478610 f   uafxcw:wingdi.obj
 0001:00077616       ?GetRuntimeClass@CBrush@@UBEPAUCRuntimeClass@@XZ 00478616 f   uafxcw:wingdi.obj
 0001:0007761c       ?GetRuntimeClass@CClientDC@@UBEPAUCRuntimeClass@@XZ 0047861c f   uafxcw:wingdi.obj
 0001:00077622       ?GetRuntimeClass@CDC@@UBEPAUCRuntimeClass@@XZ 00478622 f   uafxcw:wingdi.obj
 0001:00077628       ?GetRuntimeClass@CFont@@UBEPAUCRuntimeClass@@XZ 00478628 f   uafxcw:wingdi.obj
 0001:0007762e       ?GetRuntimeClass@CGdiObject@@UBEPAUCRuntimeClass@@XZ 0047862e f   uafxcw:wingdi.obj
 0001:00077634       ?GetRuntimeClass@CPaintDC@@UBEPAUCRuntimeClass@@XZ 00478634 f   uafxcw:wingdi.obj
 0001:0007763a       ?GetRuntimeClass@CPalette@@UBEPAUCRuntimeClass@@XZ 0047863a f   uafxcw:wingdi.obj
 0001:00077640       ?GetRuntimeClass@CPen@@UBEPAUCRuntimeClass@@XZ 00478640 f   uafxcw:wingdi.obj
 0001:00077646       ?GetRuntimeClass@CResourceException@@UBEPAUCRuntimeClass@@XZ 00478646 f   uafxcw:wingdi.obj
 0001:0007764c       ?GetRuntimeClass@CRgn@@UBEPAUCRuntimeClass@@XZ 0047864c f   uafxcw:wingdi.obj
 0001:00077652       ?GetRuntimeClass@CUserException@@UBEPAUCRuntimeClass@@XZ 00478652 f   uafxcw:wingdi.obj
 0001:00077658       ?GetRuntimeClass@CWindowDC@@UBEPAUCRuntimeClass@@XZ 00478658 f   uafxcw:wingdi.obj
 0001:0007765e       ?GetViewportExt@CDC@@QBE?AVCSize@@XZ 0047865e f i uafxcw:wingdi.obj
 0001:00077684       ?GetWindowExt@CDC@@QBE?AVCSize@@XZ 00478684 f i uafxcw:wingdi.obj
 0001:000776aa       ?GrayStringW@CDC@@UAEHPAVCBrush@@P6GHPAUHDC__@@JH@ZJHHHHH@Z 004786aa f i uafxcw:wingdi.obj
 0001:000776da       ?IntersectClipRect@CDC@@QAEHPBUtagRECT@@@Z 004786da f   uafxcw:wingdi.obj
 0001:00077720       ?LPtoDP@CDC@@QBEXPAUtagSIZE@@@Z 00478720 f   uafxcw:wingdi.obj
 0001:0007778b       ?LineTo@CDC@@QAEHHH@Z      0047878b f   uafxcw:wingdi.obj
 0001:000777c0       ?MoveTo@CDC@@QAE?AVCPoint@@HH@Z 004787c0 f   uafxcw:wingdi.obj
 0001:00077805       ?OffsetViewportOrg@CDC@@UAE?AVCPoint@@HH@Z 00478805 f   uafxcw:wingdi.obj
 0001:0007784a       ?OffsetWindowOrg@CDC@@QAE?AVCPoint@@HH@Z 0047884a f   uafxcw:wingdi.obj
 0001:0007788f       ?PtVisible@CDC@@UBEHHH@Z   0047888f f i uafxcw:wingdi.obj
 0001:000778a5       ?RectVisible@CDC@@UBEHPBUtagRECT@@@Z 004788a5 f i uafxcw:wingdi.obj
 0001:000778b8       ?ReleaseAttribDC@CDC@@UAEXXZ 004788b8 f   uafxcw:wingdi.obj
 0001:000778bd       ?ReleaseOutputDC@CDC@@UAEXXZ 004788bd f   uafxcw:wingdi.obj
 0001:000778c2       ?RestoreDC@CDC@@UAEHH@Z    004788c2 f   uafxcw:wingdi.obj
 0001:00077903       ?SaveDC@CDC@@UAEHXZ        00478903 f   uafxcw:wingdi.obj
 0001:00077934       ?ScaleViewportExt@CDC@@UAE?AVCSize@@HHHH@Z 00478934 f   uafxcw:wingdi.obj
 0001:00077985       ?ScaleWindowExt@CDC@@UAE?AVCSize@@HHHH@Z 00478985 f   uafxcw:wingdi.obj
 0001:000779d6       ?ScreenToClient@CWnd@@QBEXPAUtagRECT@@@Z 004789d6 f   uafxcw:wingdi.obj
 0001:00077a15       ?SelectClipRgn@CDC@@QAEHPAVCRgn@@@Z 00478a15 f   uafxcw:wingdi.obj
 0001:00077a58       ?SelectClipRgn@CDC@@QAEHPAVCRgn@@H@Z 00478a58 f   uafxcw:wingdi.obj
 0001:00077aa1       ?SelectGdiObject@CDC@@KGPAVCGdiObject@@PAUHDC__@@PAX@Z 00478aa1 f   uafxcw:wingdi.obj
 0001:00077aba       ?SelectObject@CDC@@QAEHPAVCRgn@@@Z 00478aba f   uafxcw:wingdi.obj
 0001:00077b00       ?SelectObject@CDC@@QAEPAVCBrush@@PAV2@@Z 00478b00 f   uafxcw:wingdi.obj
 0001:00077b00       ?SelectObject@CDC@@UAEPAVCFont@@PAV2@@Z 00478b00 f   uafxcw:wingdi.obj
 0001:00077b00       ?SelectObject@CDC@@QAEPAVCPen@@PAV2@@Z 00478b00 f   uafxcw:wingdi.obj
 0001:00077b49       ?SelectPalette@CDC@@QAEPAVCPalette@@PAV2@H@Z 00478b49 f   uafxcw:wingdi.obj
 0001:00077b6d       ?SelectStockObject@CDC@@UAEPAVCGdiObject@@H@Z 00478b6d f   uafxcw:wingdi.obj
 0001:00077bad       ?ShowButton@CMFCAutoHideButton@@UAEXH@Z 00478bad f   uafxcw:afxautohidebutton.obj
 0001:00077bad       ?SetAttribDC@CDC@@UAEXPAUHDC__@@@Z 00478bad f   uafxcw:wingdi.obj
 0001:00077bba       ?SetBkColor@CDC@@UAEKK@Z   00478bba f   uafxcw:wingdi.obj
 0001:00077bec       ?SetBkMode@CDC@@QAEHH@Z    00478bec f   uafxcw:wingdi.obj
 0001:00077c1d       ?SetLayout@CDC@@QAEKK@Z    00478c1d f   uafxcw:wingdi.obj
 0001:00077c30       ?SetMapMode@CDC@@UAEHH@Z   00478c30 f   uafxcw:wingdi.obj
 0001:00077c61       ?SetOutputDC@CDC@@UAEXPAUHDC__@@@Z 00478c61 f   uafxcw:wingdi.obj
 0001:00077c6e       ?SetPolyFillMode@CDC@@QAEHH@Z 00478c6e f   uafxcw:wingdi.obj
 0001:00077c9f       ?SetROP2@CDC@@QAEHH@Z      00478c9f f   uafxcw:wingdi.obj
 0001:00077cd0       ?SetTextAlign@CDC@@QAEII@Z 00478cd0 f   uafxcw:wingdi.obj
 0001:00077d08       ?SetTextColor@CDC@@UAEKK@Z 00478d08 f   uafxcw:wingdi.obj
 0001:00077d3a       ?SetViewportExt@CDC@@UAE?AVCSize@@HH@Z 00478d3a f   uafxcw:wingdi.obj
 0001:00077d7f       ?SetViewportOrg@CDC@@UAE?AVCPoint@@HH@Z 00478d7f f   uafxcw:wingdi.obj
 0001:00077dc4       ?SetWindowExt@CDC@@UAE?AVCSize@@HH@Z 00478dc4 f   uafxcw:wingdi.obj
 0001:00077e09       ?SetWindowOrg@CDC@@QAE?AVCPoint@@HH@Z 00478e09 f   uafxcw:wingdi.obj
 0001:00077e4e       ?TabbedTextOutW@CDC@@UAE?AVCSize@@HHPB_WHHPAHH@Z 00478e4e f i uafxcw:wingdi.obj
 0001:00077e86       ?TextOutW@CDC@@UAEHHHPB_WH@Z 00478e86 f i uafxcw:wingdi.obj
 0001:00077ea2       ?afxMapHDC@@YGPAVCHandleMap@@H@Z 00478ea2 f   uafxcw:wingdi.obj
 0001:00077f13       ?afxMapHGDIOBJ@@YGPAVCHandleMap@@H@Z 00478f13 f   uafxcw:wingdi.obj
 0001:00077f84       ??0CDialogImpl@@IAE@AAVCWnd@@@Z 00478f84 f   uafxcw:afxdialogimpl.obj
 0001:00077f99       ??1CDialogImpl@@MAE@XZ     00478f99 f   uafxcw:afxdialogimpl.obj
 0001:00077fa0       ??_ECDialogImpl@@MAEPAXI@Z 00478fa0 f i uafxcw:afxdialogimpl.obj
 0001:00077fa0       ??_GCDialogImpl@@MAEPAXI@Z 00478fa0 f i uafxcw:afxdialogimpl.obj
 0001:00077fc0       ?DialogMouseHookProc@CDialogImpl@@KGJHIJ@Z 00478fc0 f   uafxcw:afxdialogimpl.obj
 0001:0007807f       ?OnActivate@CDialogImpl@@IAEXIPAVCWnd@@@Z 0047907f f   uafxcw:afxdialogimpl.obj
 0001:000780e4       ?OnCommand@CDialogImpl@@IAEHIJ@Z 004790e4 f   uafxcw:afxdialogimpl.obj
 0001:0007813d       ?OnDestroy@CDialogImpl@@IAEXXZ 0047913d f   uafxcw:afxdialogimpl.obj
 0001:00078171       ?OnNcActivate@CDialogImpl@@IAEXAAH@Z 00479171 f   uafxcw:afxdialogimpl.obj
 0001:0007819a       ?PreTranslateMessage@CDialogImpl@@IAEHPAUtagMSG@@@Z 0047919a f   uafxcw:afxdialogimpl.obj
 0001:00078344       ?ProcessMouseClick@CDialogImpl@@IAEHUtagPOINT@@@Z 00479344 f   uafxcw:afxdialogimpl.obj
 0001:00078505       ?ProcessMouseMove@CDialogImpl@@IAEHUtagPOINT@@@Z 00479505 f   uafxcw:afxdialogimpl.obj
 0001:0007859c       ?SetActiveMenu@CDialogImpl@@IAEXPAVCMFCPopupMenu@@@Z 0047959c f   uafxcw:afxdialogimpl.obj
 0001:000785fd       ?CreateObject@CFrameWndEx@@SGPAVCObject@@XZ 004795fd f   uafxcw:afxframewndex.obj
 0001:0007862d       ??0CFrameWndEx@@IAE@XZ     0047962d f   uafxcw:afxframewndex.obj
 0001:00078689       ??1CFrameWndEx@@MAE@XZ     00479689 f   uafxcw:afxframewndex.obj
 0001:000786d2       ??_ECFrameWndEx@@MAEPAXI@Z 004796d2 f i uafxcw:afxframewndex.obj
 0001:000786d2       ??_GCFrameWndEx@@MAEPAXI@Z 004796d2 f i uafxcw:afxframewndex.obj
 0001:000786f1       ?ActiveItemRecalcLayout@CFrameWndEx@@QAEXXZ 004796f1 f   uafxcw:afxframewndex.obj
 0001:00078717       ?AddPane@CFrameWndEx@@QAEHPAVCBasePane@@H@Z 00479717 f   uafxcw:afxframewndex.obj
 0001:0007877b       ?AdjustClientArea@CFrameWndEx@@MAEXXZ 0047977b f   uafxcw:afxframewndex.obj
 0001:00078850       ?AdjustDockingLayout@CFrameWndEx@@UAEXPAX@Z 00479850 f   uafxcw:afxframewndex.obj
 0001:00078897       ?DelayUpdateFrameMenu@CFrameWndEx@@UAEXPAUHMENU__@@@Z 00479897 f   uafxcw:afxframewndex.obj
 0001:000788b7       ?DockPane@CFrameWndEx@@QAEXPAVCBasePane@@IPBUtagRECT@@@Z 004798b7 f   uafxcw:afxframewndex.obj
 0001:000788c6       ?EnableAutoHidePanes@CFrameWndEx@@QAEHK@Z 004798c6 f   uafxcw:afxframewndex.obj
 0001:000788d5       ?EnableDocking@CFrameWndEx@@QAEHK@Z 004798d5 f   uafxcw:afxframewndex.obj
 0001:000788e4       ?GetPane@CFrameWndEx@@QAEPAVCBasePane@@I@Z 004798e4 f   uafxcw:afxframewndex.obj
 0001:000788fb       ?GetRuntimeClass@CFrameWndEx@@UBEPAUCRuntimeClass@@XZ 004798fb f   uafxcw:afxframewndex.obj
 0001:00078901       ?GetMessageMap@CFrameWndEx@@MBEPBUAFX_MSGMAP@@XZ 00479901 f   uafxcw:afxframewndex.obj
 0001:00078901       ?GetThisMessageMap@CFrameWndEx@@KGPBUAFX_MSGMAP@@XZ 00479901 f   uafxcw:afxframewndex.obj
 0001:00078907       ?HtmlHelpW@CFrameWndEx@@MAEXKI@Z 00479907 f   uafxcw:afxframewndex.obj
 0001:00078928       ?InsertPane@CFrameWndEx@@QAEHPAVCBasePane@@0H@Z 00479928 f   uafxcw:afxframewndex.obj
 0001:00078937       ?IsOLEContainerMode@CDockingManager@@QBEHXZ 00479937 f i uafxcw:afxframewndex.obj
 0001:00078956       ?IsOwnerDrawCaption@CFrameImpl@@IAEHXZ 00479956 f i uafxcw:afxframewndex.obj
 0001:00078978       ?IsPointNearDockSite@CFrameWndEx@@QBEHVCPoint@@AAKAAH@Z 00479978 f   uafxcw:afxframewndex.obj
 0001:00078996       ?LoadFrame@CFrameWndEx@@UAEHIKPAVCWnd@@PAUCCreateContext@@@Z 00479996 f   uafxcw:afxframewndex.obj
 0001:000789da       ?NegotiateBorderSpace@CFrameWndEx@@UAEHIPAUtagRECT@@@Z 004799da f   uafxcw:afxframewndex.obj
 0001:00078a34       ?OnActivate@CFrameWndEx@@QAEXIPAVCWnd@@H@Z 00479a34 f   uafxcw:afxframewndex.obj
 0001:00078a78       ?OnActivateApp@CFrameWndEx@@QAEXHK@Z 00479a78 f   uafxcw:afxframewndex.obj
 0001:00078a9f       ?OnChangeVisualManager@CFrameWndEx@@QAEJIJ@Z 00479a9f f   uafxcw:afxframewndex.obj
 0001:00078aaf       ?OnClose@CFrameWndEx@@QAEXXZ 00479aaf f   uafxcw:afxframewndex.obj
 0001:00078b00       ?OnClosePopupMenu@CFrameWndEx@@UAEXPAVCMFCPopupMenu@@@Z 00479b00 f   uafxcw:afxframewndex.obj
 0001:00078b73       ?OnCmdMsg@CFrameWndEx@@UAEHIHPAXPAUAFX_CMDHANDLERINFO@@@Z 00479b73 f   uafxcw:afxframewndex.obj
 0001:00078baf       ?OnCommand@CFrameWndEx@@MAEHIJ@Z 00479baf f   uafxcw:afxframewndex.obj
 0001:00078c1b       ?OnCompositionChanged@CFrameWndEx@@QAEXXZ 00479c1b f   uafxcw:afxframewndex.obj
 0001:00078c26       ?OnContextHelp@CFrameWndEx@@QAEXXZ 00479c26 f   uafxcw:afxframewndex.obj
 0001:00078c6c       ?OnCreate@CFrameWndEx@@QAEHPAUtagCREATESTRUCTW@@@Z 00479c6c f   uafxcw:afxframewndex.obj
 0001:00078cad       ?OnDestroy@CFrameWndEx@@QAEXXZ 00479cad f   uafxcw:afxframewndex.obj
 0001:00078d94       ?OnDrawMenuImage@CFrameWndEx@@UAEHPAVCDC@@PBVCMFCToolBarMenuButton@@ABVCRect@@@Z 00479d94 f   uafxcw:afxframewndex.obj
 0001:00078dad       ?OnExitSizeMove@CFrameWndEx@@QAEXXZ 00479dad f   uafxcw:afxframewndex.obj
 0001:00078dc6       ?OnGetMinMaxInfo@CFrameWndEx@@QAEXPAUtagMINMAXINFO@@@Z 00479dc6 f   uafxcw:afxframewndex.obj
 0001:00078dfc       ?OnIdleUpdateCmdUI@CFrameWndEx@@QAEJIJ@Z 00479dfc f   uafxcw:afxframewndex.obj
 0001:00078e15       ?OnLButtonDown@CFrameWndEx@@QAEXIVCPoint@@@Z 00479e15 f   uafxcw:afxframewndex.obj
 0001:00078e38       ?OnLButtonUp@CFrameWndEx@@QAEXIVCPoint@@@Z 00479e38 f   uafxcw:afxframewndex.obj
 0001:00078e5b       ?OnMenuChar@CFrameWndEx@@QAEJIIPAVCMenu@@@Z 00479e5b f   uafxcw:afxframewndex.obj
 0001:00078e8f       ?OnMouseMove@CFrameWndEx@@QAEXIVCPoint@@@Z 00479e8f f   uafxcw:afxframewndex.obj
 0001:00078eb2       ?OnMoveMiniFrame@CFrameWndEx@@UAEHPAVCWnd@@@Z 00479eb2 f   uafxcw:afxframewndex.obj
 0001:00078ec1       ?OnNcActivate@CFrameWndEx@@QAEHH@Z 00479ec1 f   uafxcw:afxframewndex.obj
 0001:00078eed       ?OnNcCalcSize@CFrameWndEx@@QAEXHPAUtagNCCALCSIZE_PARAMS@@@Z 00479eed f   uafxcw:afxframewndex.obj
 0001:00078f14       ?OnNcHitTest@CFrameWndEx@@QAEJVCPoint@@@Z 00479f14 f   uafxcw:afxframewndex.obj
 0001:00078f3b       ?OnNcMouseMove@CFrameWndEx@@QAEXIVCPoint@@@Z 00479f3b f   uafxcw:afxframewndex.obj
 0001:00078fae       ?OnNcPaint@CFrameWndEx@@QAEXXZ 00479fae f   uafxcw:afxframewndex.obj
 0001:00078fca       ?OnPaneCheck@CFrameWndEx@@QAEHI@Z 00479fca f   uafxcw:afxframewndex.obj
 0001:00079006       ?OnSetPreviewMode@CFrameWndEx@@UAEXHPAUCPrintPreviewState@@@Z 0047a006 f   uafxcw:afxframewndex.obj
 0001:000790a4       ?OnSetText@CFrameWndEx@@QAEHPB_W@Z 0047a0a4 f   uafxcw:afxframewndex.obj
 0001:000790c8       ?OnShowPanes@CFrameWndEx@@UAEHH@Z 0047a0c8 f   uafxcw:afxframewndex.obj
 0001:000790f3       ?OnSize@CFrameWndEx@@QAEXIHH@Z 0047a0f3 f   uafxcw:afxframewndex.obj
 0001:0007922f       ?OnSizing@CFrameWndEx@@QAEXIPAUtagRECT@@@Z 0047a22f f   uafxcw:afxframewndex.obj
 0001:00079247       ?OnSysColorChange@CFrameWndEx@@QAEXXZ 0047a247 f   uafxcw:afxframewndex.obj
 0001:00079269       ?OnToolbarCreateNew@CFrameWndEx@@QAEJIJ@Z 0047a269 f   uafxcw:afxframewndex.obj
 0001:0007928a       ?OnToolbarDelete@CFrameWndEx@@QAEJIJ@Z 0047a28a f   uafxcw:afxframewndex.obj
 0001:000792ab       ?OnUpdateFrameMenu@CFrameWndEx@@UAEXPAUHMENU__@@@Z 0047a2ab f   uafxcw:afxframewndex.obj
 0001:00079334       ?OnUpdateFrameTitle@CFrameWndEx@@UAEXH@Z 0047a334 f   uafxcw:afxframewndex.obj
 0001:00079429       ?OnUpdatePaneMenu@CFrameWndEx@@QAEXPAVCCmdUI@@@Z 0047a429 f   uafxcw:afxframewndex.obj
 0001:00079461       ?OnWindowPosChanged@CFrameWndEx@@QAEXPAUtagWINDOWPOS@@@Z 0047a461 f   uafxcw:afxframewndex.obj
 0001:00079488       ?PaneFromPoint@CFrameWndEx@@QBEPAVCBasePane@@VCPoint@@H_NPAUCRuntimeClass@@@Z 0047a488 f   uafxcw:afxframewndex.obj
 0001:000794ad       ?PreCreateWindow@CFrameWndEx@@MAEHAAUtagCREATESTRUCTW@@@Z 0047a4ad f   uafxcw:afxframewndex.obj
 0001:000794e6       ?PreTranslateMessage@CFrameWndEx@@UAEHPAUtagMSG@@@Z 0047a4e6 f   uafxcw:afxframewndex.obj
 0001:00079897       ?RecalcLayout@CFrameWndEx@@UAEXH@Z 0047a897 f   uafxcw:afxframewndex.obj
 0001:00079a11       ?RemovePaneFromDockManager@CFrameWndEx@@QAEXPAVCBasePane@@HHH0@Z 0047aa11 f   uafxcw:afxframewndex.obj
 0001:00079a20       ?ShowPane@CFrameWndEx@@QAEXPAVCBasePane@@HHH@Z 0047aa20 f   uafxcw:afxframewndex.obj
 0001:00079a20       ?ShowPane@CMDIFrameWndEx@@QAEXPAVCBasePane@@HHH@Z 0047aa20 f   uafxcw:afxmdiframewndex.obj
 0001:00079a3b       ?ShowPopupMenu@CFrameWndEx@@IAEHPAVCMFCPopupMenu@@@Z 0047aa3b f   uafxcw:afxframewndex.obj
 0001:00079a79       ?WinHelpW@CFrameWndEx@@UAEXKI@Z 0047aa79 f   uafxcw:afxframewndex.obj
 0001:00079a9a       ?CreateObject@CMFCToolBar@@SGPAVCObject@@XZ 0047aa9a f   uafxcw:afxtoolbar.obj
 0001:00079aca       ??0?$CMap@IAAIPAVCMFCToolBarButton@@AAPAV1@@@QAE@H@Z 0047aaca f i uafxcw:afxtoolbar.obj
 0001:00079af4       ??0?$CMap@IIHH@@QAE@H@Z    0047aaf4 f i uafxcw:afxtoolbar.obj
 0001:00079b1e       ??0CMFCToolBar@@QAE@XZ     0047ab1e f   uafxcw:afxtoolbar.obj
 0001:00079ea2       ??0CMFCToolBarInfo@@QAE@XZ 0047aea2 f   uafxcw:afxtoolbar.obj
 0001:00079ebe       ??0CPen@@QAE@XZ            0047aebe f i uafxcw:afxtoolbar.obj
 0001:00079ecb       ??1?$CMap@IAAIPAVCMFCToolBarButton@@AAPAV1@@@UAE@XZ 0047aecb f i uafxcw:afxtoolbar.obj
 0001:00079ed6       ??1?$CMap@IIHH@@UAE@XZ     0047aed6 f i uafxcw:afxtoolbar.obj
 0001:00079ee1       ??1CMFCToolBar@@UAE@XZ     0047aee1 f   uafxcw:afxtoolbar.obj
 0001:0007a049       ??_G?$CMap@IAAIPAVCMFCToolBarButton@@AAPAV1@@@UAEPAXI@Z 0047b049 f i uafxcw:afxtoolbar.obj
 0001:0007a049       ??_E?$CMap@IAAIPAVCMFCToolBarButton@@AAPAV1@@@UAEPAXI@Z 0047b049 f i uafxcw:afxtoolbar.obj
 0001:0007a06e       ??_E?$CMap@IIHH@@UAEPAXI@Z 0047b06e f i uafxcw:afxtoolbar.obj
 0001:0007a06e       ??_G?$CMap@IIHH@@UAEPAXI@Z 0047b06e f i uafxcw:afxtoolbar.obj
 0001:0007a093       ?AccGetButtonByChildId@CMFCToolBar@@IAEPAVCMFCToolBarButton@@J@Z 0047b093 f   uafxcw:afxtoolbar.obj
 0001:0007a0e6       ?AccGetButtonsCount@CMFCToolBar@@MAEHXZ 0047b0e6 f   uafxcw:afxtoolbar.obj
 0001:0007a126       ?AccGetChildIdByButtonIndex@CMFCToolBar@@IAEHH@Z 0047b126 f   uafxcw:afxtoolbar.obj
 0001:0007a190       ?AccNotifyObjectFocusEvent@CMFCToolBar@@MAEXH@Z 0047b190 f   uafxcw:afxtoolbar.obj
 0001:0007a1f0       ?AddBasicCommand@CMFCToolBar@@SGXI@Z 0047b1f0 f   uafxcw:afxtoolbar.obj
 0001:0007a218       ?AddCommandUsage@CMFCToolBar@@SGXI@Z 0047b218 f   uafxcw:afxtoolbar.obj
 0001:0007a226       ?AddRemoveSeparator@CMFCToolBar@@MAEXPBVCMFCToolBarButton@@ABVCPoint@@1@Z 0047b226 f   uafxcw:afxtoolbar.obj
 0001:0007a2dc       ?AdjustLayout@CMFCToolBar@@UAEXXZ 0047b2dc f   uafxcw:afxtoolbar.obj
 0001:0007a4c8       ?AdjustLocations@CMFCToolBar@@MAEXXZ 0047b4c8 f   uafxcw:afxtoolbar.obj
 0001:0007aa1b       ?AdjustSize@CMFCToolBar@@QAEXXZ 0047ba1b f   uafxcw:afxtoolbar.obj
 0001:0007ad7d       ?AllowShowOnList@CMFCColorBar@@MBEHXZ 0047bd7d f i uafxcw:afxcolorbar.obj
 0001:0007ad7d       ?IsPopupDefaultMenuLook@CMFCRibbonButton@@UBEHXZ 0047bd7d f i uafxcw:afxribbonbar.obj
 0001:0007ad7d       ?IsEmptyMenuAllowed@CMFCCustomizeButton@@UBEHXZ 0047bd7d f i uafxcw:afxcustomizebutton.obj
 0001:0007ad7d       ?IsTabStop@CMFCRibbonBaseElement@@UBEHXZ 0047bd7d f i uafxcw:afxribbonbar.obj
 0001:0007ad7d       ?HasIntermediateMode@CMFCRibbonBaseElement@@UBEHXZ 0047bd7d f i uafxcw:afxbaseribbonelement.obj
 0001:0007ad7d       ?AllowAltCustomization@CMFCToolBar@@MBEHXZ 0047bd7d f i uafxcw:afxtoolbar.obj
 0001:0007ad7d       ?IsDockingTabHasBorder@CMFCVisualManager@@UAEHXZ 0047bd7d f i uafxcw:afxvisualmanager.obj
 0001:0007ad7d       ?OnQueryCancel@CPropertyPage@@UAEHXZ 0047bd7d f i uafxcw:dlgprop.obj
 0001:0007ad7d       ?IsButtonExtraSizeAvailable@CMFCToolBar@@UBEHXZ 0047bd7d f i uafxcw:afxtoolbar.obj
 0001:0007ad7d       ?CanBeStretched@CMFCToolBarEditBoxButton@@UBEHXZ 0047bd7d f i uafxcw:afxtoolbareditboxbutton.obj
 0001:0007ad7d       ?IsCaptionButton@CMFCRibbonCaptionButton@@MBEHXZ 0047bd7d f i uafxcw:afxribbonbar.obj
 0001:0007ad7d       ?IsQuickAccessToolBar@CMFCRibbonQuickAccessToolBar@@MBEHXZ 0047bd7d f i uafxcw:afxribbonquickaccesstoolbar.obj
 0001:0007ad7d       ?Is32BitTransparencySupported@CMFCToolBarImages@@SGHXZ 0047bd7d f i uafxcw:afxtoolbarimages.obj
 0001:0007ad7d       ?CanShowOnWindowsList@CMDIChildWndEx@@UAEHXZ 0047bd7d f i uafxcw:afxmdichildwndex.obj
 0001:0007ad7d       ?OnBeforeDrag@CMFCToolBarButton@@UBEHXZ 0047bd7d f i uafxcw:afxmenubar.obj
 0001:0007ad7d       ?IsDrawTooltipImage@CMFCRibbonButton@@UBEHXZ 0047bd7d f i uafxcw:afxribbonbar.obj
 0001:0007ad7d       ?GetMDITabsBordersSize@CMFCVisualManagerVS2005@@UAEHXZ 0047bd7d f i uafxcw:afxvisualmanagervs2005.obj
 0001:0007ad7d       ?Register@CWinApp@@UAEHXZ  0047bd7d f i uafxcw:appui2.obj
 0001:0007ad7d       ?IsHighlightOneNoteTabs@CMFCVisualManagerOffice2003@@UBEHXZ 0047bd7d f i uafxcw:afxvisualmanageroffice2003.obj
 0001:0007ad7d       ?Create@CDockingPanesRow@@UAEHXZ 0047bd7d f i uafxcw:afxdockingpanesrow.obj
 0001:0007ad7d       ?CanBeRestored@CMFCMenuBar@@UBEHXZ 0047bd7d f i uafxcw:afxmenubar.obj
 0001:0007ad7d       ?OnHelp@CTaskDialog@@MAEJXZ 0047bd7d f i uafxcw:afxtaskdialog.obj
 0001:0007ad7d       ?CheckTabbedBarAlignment@CTabbedPane@@MAEHXZ 0047bd7d f i uafxcw:afxtabbedpane.obj
 0001:0007ad7d       ?CanBeAddedToQuickAccessToolBar@CMFCRibbonGalleryIcon@@MBEHXZ 0047bd7d f i uafxcw:afxribbonpalettegallery.obj
 0001:0007ad7d       ?CanShowOnTaskBarTabs@CMDIChildWndEx@@UAEHXZ 0047bd7d f i uafxcw:afxmdichildwndex.obj
 0001:0007ad7d       ?IsAccessibilityCompatible@CBasePane@@UAEHXZ 0047bd7d f i uafxcw:afxbasepane.obj
 0001:0007ad7d       ?HasCompactMode@CMFCRibbonEdit@@UBEHXZ 0047bd7d f i uafxcw:afxribbonedit.obj
 0001:0007ad7d       ?IsDockBar@CDockBar@@UBEHXZ 0047bd7d f i uafxcw:bardock.obj
 0001:0007ad7d       ?IsAccessibilityCompatible@CMFCTasksPane@@UAEHXZ 0047bd7d f i uafxcw:afxtaskspane.obj
 0001:0007ad7d       ?CanBeAttached@CMFCOutlookBarPane@@UBEHXZ 0047bd7d f i uafxcw:afxoutlookbarpane.obj
 0001:0007ad7d       ?AllowShowOnList@CMFCToolBar@@MBEHXZ 0047bd7d f i uafxcw:afxtoolbar.obj
 0001:0007ad7d       ?OnGetDlgCode@CMFCToolBarButtonsListButton@@IAEIXZ 0047bd7d f i uafxcw:afxtoolbarbuttonslistbutton.obj
 0001:0007ad7d       ?CanBeAddedToQuickAccessToolBar@CMFCRibbonDefaultPanelButton@@UBEHXZ 0047bd7d f i uafxcw:afxribbonpanel.obj
 0001:0007ad7d       ?HasMenu@CMFCRibbonUndoButton@@UBEHXZ 0047bd7d f i uafxcw:afxribbonundobutton.obj
 0001:0007ad7d       ?IsSeparator@CMFCRibbonSeparator@@MBEHXZ 0047bd7d f i uafxcw:afxbaseribbonelement.obj
 0001:0007ad7d       ?AllowDestroyEmptyTabbedPane@CBaseTabbedPane@@UBEHXZ 0047bd7d f i uafxcw:afxbasetabbedpane.obj
 0001:0007ad7d       ?GetToolBarCustomizeButtonMargin@CMFCVisualManagerOffice2003@@UBEHXZ 0047bd7d f i uafxcw:afxvisualmanageroffice2003.obj
 0001:0007ad7d       ?CanBeStretched@CMFCToolBarComboBoxButton@@UBEHXZ 0047bd7d f i uafxcw:afxmenubar.obj
 0001:0007ad7d       ?IsFrameWnd@CFrameWnd@@UBEHXZ 0047bd7d f i uafxcw:wincore.obj
 0001:0007ad7d       ?IsBorder@CMFCToolBarMenuButton@@UBEHXZ 0047bd7d f i uafxcw:afxtoolbarmenubutton.obj
 0001:0007ad7d       ?CanBeStored@CMFCToolBarButton@@UBEHXZ 0047bd7d f i uafxcw:afxmenubar.obj
 0001:0007ad7d       ?HasMenu@CMFCRibbonColorButton@@MBEHXZ 0047bd7d f i uafxcw:afxribboncolorbutton.obj
 0001:0007ad7d       ?HaveHotBorder@CMFCToolBarButton@@UBEHXZ 0047bd7d f i uafxcw:afxmenubar.obj
 0001:0007ad7d       ?OnGetDlgCode@CMFCColorPickerCtrl@@IAEIXZ 0047bd7d f i uafxcw:afxcolorpickerctrl.obj
 0001:0007ad7d       ?IsOffsetPressedButton@CMFCVisualManager@@UBEHXZ 0047bd7d f i uafxcw:afxvisualmanager.obj
 0001:0007ad7d       ?IsHighlightWholeMenuItem@CMFCVisualManagerOfficeXP@@MAEHXZ 0047bd7d f i uafxcw:afxvisualmanagerofficexp.obj
 0001:0007ad7d       ?IsMainPanel@CMFCRibbonMainPanel@@MBEHXZ 0047bd7d f i uafxcw:afxribbonmainpanel.obj
 0001:0007ad7d       ?AllowDestroyEmptyTabbedPane@CMFCTabCtrl@@UBEHXZ 0047bd7d f i uafxcw:afxtabctrl.obj
 0001:0007ad7d       ?DefaultMouseClickOnClose@CMFCPopupMenu@@UBEHXZ 0047bd7d f i uafxcw:afxpopupmenu.obj
 0001:0007ad7d       ?GetSmartDockingTheme@CMFCVisualManager@@UAE?AW4AFX_SMARTDOCK_THEME@@XZ 0047bd7d f i uafxcw:afxvisualmanager.obj
 0001:0007ad7d       ?HasAutoHideMode@CTabbedPane@@UBEHXZ 0047bd7d f i uafxcw:afxtabbedpane.obj
 0001:0007ad7d       ?IsDefaultPanelButton@CMFCRibbonDefaultPanelButton@@UBEHXZ 0047bd7d f i uafxcw:afxribbonpanel.obj
 0001:0007ad7d       ?IsFixedSize@CMFCRibbonMainPanel@@MBEHXZ 0047bd7d f i uafxcw:afxribbonmainpanel.obj
 0001:0007ad7d       ?HasMenu@CMFCRibbonQuickAccessCustomizeButton@@UBEHXZ 0047bd7d f i uafxcw:afxribbonquickaccesstoolbar.obj
 0001:0007ad7d       ?IsRibbonMiniToolBar@CMFCRibbonMiniToolBar@@UBEHXZ 0047bd7d f i uafxcw:afxribbonminitoolbar.obj
 0001:0007ad7d       ?GetDockingMode@CMFCBaseToolBar@@UBE?AW4AFX_DOCK_TYPE@@XZ 0047bd7d f i uafxcw:afxtoolbar.obj
 0001:0007ad7d       ?OnCreateAggregates@CCmdTarget@@UAEHXZ 0047bd7d f i uafxcw:cmdtarg.obj
 0001:0007ad7d       ?AllowChangeTextLabels@CMFCToolBar@@UBEHXZ 0047bd7d f i uafxcw:afxtoolbar.obj
 0001:0007ad7d       ?CheckAutoCenter@CWnd@@UAEHXZ 0047bd7d f i uafxcw:wincore.obj
 0001:0007ad7d       ?OnGetDlgCode@CMFCMenuButton@@IAEIXZ 0047bd7d f i uafxcw:afxmenubutton.obj
 0001:0007ad7d       ?OnGetDlgCode@CMFCColorButton@@IAEIXZ 0047bd7d f i uafxcw:afxcolorbutton.obj
 0001:0007ad7d       ?IsEmptyMenuAllowed@CMFCColorMenuButton@@MBEHXZ 0047bd7d f i uafxcw:afxcolormenubutton.obj
 0001:0007ad7d       ?IsAlignByColumn@CMFCRibbonBaseElement@@UBEHXZ 0047bd7d f i uafxcw:afxribbonbar.obj
 0001:0007ad7d       ?IsResizable@CBasePane@@UBEHXZ 0047bd7d f i uafxcw:afxbasepane.obj
 0001:0007ad7d       ?IsRibbonPanel@CMFCRibbonPanelMenuBar@@UBEHXZ 0047bd7d f i uafxcw:afxribbonpanelmenu.obj
 0001:0007ad7d       ?CanBeStretched@CMFCRibbonBaseElement@@UAEHXZ 0047bd7d f i uafxcw:afxbaseribbonelement.obj
 0001:0007ad7d       ?GetPopupMenuGap@CMFCVisualManager@@UBEHXZ 0047bd7d f i uafxcw:afxvisualmanager.obj
 0001:0007ad81       ?ButtonToIndex@CMFCToolBar@@QBEHPBVCMFCToolBarButton@@@Z 0047bd81 f   uafxcw:afxtoolbar.obj
 0001:0007adcc       ?CalcFixedLayout@CMFCToolBar@@UAE?AVCSize@@HH@Z 0047bdcc f   uafxcw:afxtoolbar.obj
 0001:0007adfa       ?CalcLayout@CMFCToolBar@@MAE?AVCSize@@KH@Z 0047bdfa f   uafxcw:afxtoolbar.obj
 0001:0007aff6       ?CalcMaxButtonHeight@CMFCToolBar@@MAEHXZ 0047bff6 f   uafxcw:afxtoolbar.obj
 0001:0007b12a       ?CalcSize@CMFCToolBar@@UAE?AVCSize@@H@Z 0047c12a f   uafxcw:afxtoolbar.obj
 0001:0007b35a       ?CanBeClosed@CMFCToolBar@@UBEHXZ 0047c35a f i uafxcw:afxtoolbar.obj
 0001:0007b366       ?CanBeRestored@CMFCToolBar@@UBEHXZ 0047c366 f   uafxcw:afxtoolbar.obj
 0001:0007b372       ?CanHandleSiblings@CMFCToolBar@@QAEHXZ 0047c372 f   uafxcw:afxtoolbar.obj
 0001:0007b3b2       ?CleanUpImages@CMFCToolBar@@SGXXZ 0047c3b2 f   uafxcw:afxtoolbar.obj
 0001:0007b41b       ?CommandToIndex@CMFCToolBar@@QBEHIH@Z 0047c41b f   uafxcw:afxtoolbar.obj
 0001:0007b470       ?Create@CMFCToolBar@@UAEHPAVCWnd@@KI@Z 0047c470 f   uafxcw:afxtoolbar.obj
 0001:0007b4ae       ?CreateDroppedButton@CMFCToolBar@@MAEPAVCMFCToolBarButton@@PAVCOleDataObject@@@Z 0047c4ae f   uafxcw:afxtoolbar.obj
 0001:0007b5d5       ?CreateEx@CMFCToolBar@@UAEHPAVCWnd@@KKVCRect@@I@Z 0047c5d5 f   uafxcw:afxtoolbar.obj
 0001:0007b6bf       ?CreatePen@CPen@@QAEHHHK@Z 0047c6bf f i uafxcw:afxtoolbar.obj
 0001:0007b6e1       ?Deactivate@CMFCToolBar@@UAEXXZ 0047c6e1 f   uafxcw:afxtoolbar.obj
 0001:0007b73a       ?DoPaint@CMFCToolBar@@MAEXPAVCDC@@@Z 0047c73a f   uafxcw:afxtoolbar.obj
 0001:0007bfc9       ?DrawButton@CMFCToolBar@@MAEHPAVCDC@@PAVCMFCToolBarButton@@PAVCMFCToolBarImages@@HH@Z 0047cfc9 f   uafxcw:afxtoolbar.obj
 0001:0007c05b       ?DrawDragCursor@CMFCToolBar@@MAEXPAVCDC@@@Z 0047d05b f   uafxcw:afxtoolbar.obj
 0001:0007c23c       ?DrawSeparator@CMFCToolBar@@MAEXPAVCDC@@ABVCRect@@H@Z 0047d23c f   uafxcw:afxtoolbar.obj
 0001:0007c26a       ?DropDownMenu@CMFCToolBar@@IAEHPAVCMFCToolBarButton@@@Z 0047d26a f   uafxcw:afxtoolbar.obj
 0001:0007c2d6       ?Enable@CMFCToolBarCmdUI@@UAEXH@Z 0047d2d6 f   uafxcw:afxtoolbar.obj
 0001:0007c31f       ?EnableContextMenuItems@CMFCToolBar@@MAEHPAVCMFCToolBarButton@@PAVCMenu@@@Z 0047d31f f   uafxcw:afxtoolbar.obj
 0001:0007c49b       ?EnableCustomizeButton@CMFCToolBar@@QAEXHHABV?$CStringT@_WV?$StrTraitMFC@_WV?$ChTraitsCRT@_W@ATL@@@@@ATL@@H@Z 0047d49b f   uafxcw:afxtoolbar.obj
 0001:0007c56f       ?EnableDocking@CMFCToolBar@@UAEXK@Z 0047d56f f   uafxcw:afxtoolbar.obj
 0001:0007c589       ?EnableLargeIcons@CMFCToolBar@@QAEXH@Z 0047d589 f   uafxcw:afxtoolbar.obj
 0001:0007c599       ?EnableTextLabels@CMFCToolBar@@QAEXH@Z 0047d599 f   uafxcw:afxtoolbar.obj
 0001:0007c5ba       ?Find@?$CStringT@_WV?$StrTraitMFC@_WV?$ChTraitsCRT@_W@ATL@@@@@ATL@@QBEH_WH@Z 0047d5ba f i uafxcw:afxtoolbar.obj
 0001:0007c5ee       ?FindDropIndex@CMFCToolBar@@MBEHVCPoint@@AAVCRect@@@Z 0047d5ee f   uafxcw:afxtoolbar.obj
 0001:0007c9c5       ?Format@?$CStringT@_WV?$StrTraitMFC@_WV?$ChTraitsCRT@_W@ATL@@@@@ATL@@QAAXIZZ 0047d9c5 f i uafxcw:afxtoolbar.obj
 0001:0007ca2a       ?GetAllToolbars@CMFCToolBar@@SGABVCObList@@XZ 0047da2a f   uafxcw:afxtoolbar.obj
 0001:0007ca30       ?GetAnimationType@CMFCPopupMenu@@SG?AW4ANIMATION_TYPE@1@H@Z 0047da30 f i uafxcw:afxtoolbar.obj
 0001:0007ca6e       ?GetAt@?$CSimpleStringT@_W$0A@@ATL@@QBE_WH@Z 0047da6e f i uafxcw:afxtoolbar.obj
 0001:0007ca6e       ??A?$CSimpleStringT@_W$0A@@ATL@@QBE_WH@Z 0047da6e f i uafxcw:dlgfile.obj
 0001:0007ca92       ?GetButton@CMFCToolBar@@QBEPAVCMFCToolBarButton@@H@Z 0047da92 f   uafxcw:afxtoolbar.obj
 0001:0007cab8       ?GetButtonSize@CMFCToolBar@@QBE?AVCSize@@XZ 0047dab8 f i uafxcw:afxtoolbar.obj
 0001:0007cb31       ?GetButtonStyle@CMFCToolBar@@QBEIH@Z 0047db31 f   uafxcw:afxtoolbar.obj
 0001:0007cb47       ?GetButtonText@CMFCToolBar@@QBE?AV?$CStringT@_WV?$StrTraitMFC@_WV?$ChTraitsCRT@_W@ATL@@@@@ATL@@H@Z 0047db47 f   uafxcw:afxtoolbar.obj
 0001:0007cb88       ?GetColumnWidth@CMFCToolBar@@UBEHXZ 0047db88 f i uafxcw:afxtoolbar.obj
 0001:0007cbb5       ?GetCommandButtons@CMFCToolBar@@SGHIAAVCObList@@@Z 0047dbb5 f   uafxcw:afxtoolbar.obj
 0001:0007cc49       ?GetCommandTarget@CMFCToolBar@@MBEPAVCWnd@@XZ 0047dc49 f i uafxcw:afxtoolbar.obj
 0001:0007cc7d       ?GetCount@CMFCToolBar@@QBEHXZ 0047dc7d f   uafxcw:afxtoolbar.obj
 0001:0007cc84       ?GetDroppedDownMenu@CMFCToolBar@@QBEPAVCMFCToolBarMenuButton@@PAH@Z 0047dc84 f   uafxcw:afxtoolbar.obj
 0001:0007ccfe       ?GetExtraSize@CMFCCustomizeButton@@QBE?AVCSize@@XZ 0047dcfe f i uafxcw:afxtoolbar.obj
 0001:0007cd3a       ?GetHighlightedButton@CMFCToolBar@@QBEPAVCMFCToolBarButton@@XZ 0047dd3a f   uafxcw:afxtoolbar.obj
 0001:0007cd4e       ?GetHotTextColor@CMFCToolBar@@SGKXZ 0047dd4e f   uafxcw:afxtoolbar.obj
 0001:0007cd61       ?GetImageList@CMFCToolBar@@IBEPAVCMFCToolBarImages@@AAV2@000@Z 0047dd61 f   uafxcw:afxtoolbar.obj
 0001:0007cdaa       ?GetImageSize@CMFCToolBar@@QBE?AVCSize@@XZ 0047ddaa f i uafxcw:afxtoolbar.obj
 0001:0007cdf2       ?GetInvalidateItemRect@CMFCToolBar@@UBEXHPAUtagRECT@@@Z 0047ddf2 f   uafxcw:afxtoolbar.obj
 0001:0007ce55       ?GetItemID@CMFCToolBar@@QBEIH@Z 0047de55 f   uafxcw:afxtoolbar.obj
 0001:0007ce6b       ?GetItemRect@CMFCToolBar@@UBEXHPAUtagRECT@@@Z 0047de6b f   uafxcw:afxtoolbar.obj
 0001:0007ceac       ?GetMenuButtonSize@CMFCToolBar@@SG?AVCSize@@XZ 0047deac f   uafxcw:afxtoolbar.obj
 0001:0007cedc       ?GetMenuImageSize@CMFCToolBar@@SG?AVCSize@@XZ 0047dedc f   uafxcw:afxtoolbar.obj
 0001:0007cf99       ?GetMessageMap@CMFCToolBar@@MBEPBUAFX_MSGMAP@@XZ 0047df99 f   uafxcw:afxtoolbar.obj
 0001:0007cf99       ?GetThisMessageMap@CMFCToolBar@@KGPBUAFX_MSGMAP@@XZ 0047df99 f   uafxcw:afxtoolbar.obj
 0001:0007cf9f       ?GetMinSize@CMFCBaseToolBar@@UBEXAAVCSize@@@Z 0047df9f f i uafxcw:afxtoolbar.obj
 0001:0007cfd1       ?GetResourceOffset@CMFCToolBarImages@@QBEHI@Z 0047dfd1 f i uafxcw:afxtoolbar.obj
 0001:0007cffd       ?GetRibbonImageScale@AFX_GLOBAL_DATA@@QAENXZ 0047dffd f i uafxcw:afxtoolbar.obj
 0001:0007d010       ?GetRowHeight@CMFCToolBar@@UBEHXZ 0047e010 f   uafxcw:afxtoolbar.obj
 0001:0007d0cc       ?GetRuntimeClass@CMFCToolBar@@UBEPAUCRuntimeClass@@XZ 0047e0cc f   uafxcw:afxtoolbar.obj
 0001:0007d0d2       ?HitTest@CMFCToolBar@@UAEHVCPoint@@@Z 0047e0d2 f   uafxcw:afxtoolbar.obj
 0001:0007d13f       ?InsertButton@CMFCToolBar@@MAEHPAVCMFCToolBarButton@@H@Z 0047e13f f   uafxcw:afxtoolbar.obj
 0001:0007d1e1       ?InsertButton@CMFCToolBar@@UAEHABVCMFCToolBarButton@@H@Z 0047e1e1 f   uafxcw:afxtoolbar.obj
 0001:0007d237       ?InsertResetStateButton@CMFCToolBar@@IAEHABVCMFCToolBarButton@@H@Z 0047e237 f   uafxcw:afxtoolbar.obj
 0001:0007d2c8       ?InsertSeparator@CMFCToolBar@@UAEHH@Z 0047e2c8 f   uafxcw:afxtoolbar.obj
 0001:0007d338       ?InvalidateButton@CMFCToolBar@@QAEPAVCMFCToolBarButton@@H@Z 0047e338 f   uafxcw:afxtoolbar.obj
 0001:0007d41d       ?IsBasicCommand@CMFCToolBar@@SGHI@Z 0047e41d f i uafxcw:afxtoolbar.obj
 0001:0007d439       ?IsButtonHighlighted@CMFCToolBar@@QBEHH@Z 0047e439 f   uafxcw:afxtoolbar.obj
 0001:0007d48e       ?IsCommandPermitted@CMFCToolBar@@SGHI@Z 0047e48e f i uafxcw:afxtoolbar.obj
 0001:0007d4a9       ?IsCommandRarelyUsed@CMFCToolBar@@SGHI@Z 0047e4a9 f   uafxcw:afxtoolbar.obj
 0001:0007d510       ?IsFloating@CMFCToolBar@@UBEHXZ 0047e510 f i uafxcw:afxtoolbar.obj
 0001:0007d517       ?IsOneRowWithSibling@CMFCToolBar@@QAEHXZ 0047e517 f   uafxcw:afxtoolbar.obj
 0001:0007d52f       ?IsPureMenuButton@CMFCToolBar@@MBEHPAVCMFCToolBarButton@@@Z 0047e52f f i uafxcw:afxtoolbar.obj
 0001:0007d538       ?IsResourceChanged@CMFCToolBar@@UBEHXZ 0047e538 f i uafxcw:afxtoolbar.obj
 0001:0007d53f       ?IsScaled@CMFCToolBarImages@@QBEHXZ 0047e53f f i uafxcw:afxtoolbar.obj
 0001:0007d557       ?IsStandardCommand@@YAHI@Z 0047e557 f i uafxcw:afxtoolbar.obj
 0001:0007d5a6       ?IsUserDefined@CMFCToolBar@@QBEHXZ 0047e5a6 f   uafxcw:afxtoolbar.obj
 0001:0007d616       ?LoadBitmapEx@CMFCToolBar@@UAEHAAVCMFCToolBarInfo@@H@Z 0047e616 f   uafxcw:afxtoolbar.obj
 0001:0007d874       ?LoadBitmapW@CMFCToolBar@@UAEHIIIHII@Z 0047e874 f   uafxcw:afxtoolbar.obj
 0001:0007d8bb       ?LoadLargeIconsState@CMFCToolBar@@SGHPB_W@Z 0047e8bb f   uafxcw:afxtoolbar.obj
 0001:0007d96e       ?LoadLastOriginalState@CMFCToolBar@@MAEHAAVCSettingsStore@@@Z 0047e96e f   uafxcw:afxtoolbar.obj
 0001:0007d9e0       ?LoadParameters@CMFCToolBar@@SGHPB_W@Z 0047e9e0 f   uafxcw:afxtoolbar.obj
 0001:0007db46       ?LoadResetOriginalState@CMFCToolBar@@IAEHAAVCSettingsStore@@@Z 0047eb46 f   uafxcw:afxtoolbar.obj
 0001:0007dbf0       ?LoadState@CMFCToolBar@@UAEHPB_WHI@Z 0047ebf0 f   uafxcw:afxtoolbar.obj
 0001:0007deac       ?LoadToolBar@CMFCToolBar@@UAEHIIIHIII@Z 0047eeac f   uafxcw:afxtoolbar.obj
 0001:0007def6       ?LoadToolBarEx@CMFCToolBar@@UAEHIAAVCMFCToolBarInfo@@H@Z 0047eef6 f   uafxcw:afxtoolbar.obj
 0001:0007e131       ?NextMenu@CMFCToolBar@@UAEHXZ 0047f131 f   uafxcw:afxtoolbar.obj
 0001:0007e226       ?NotifyControlCommand@CMFCToolBar@@MAEHPAVCMFCToolBarButton@@HHIJ@Z 0047f226 f   uafxcw:afxtoolbar.obj
 0001:0007e275       ?OnAfterButtonDelete@CMFCToolBar@@MAEXXZ 0047f275 f   uafxcw:afxtoolbar.obj
 0001:0007e299       ?OnAfterDock@CMFCToolBar@@MAEXPAVCBasePane@@PBUtagRECT@@W4AFX_DOCK_METHOD@@@Z 0047f299 f   uafxcw:afxtoolbar.obj
 0001:0007e315       ?OnAfterFloat@CMFCToolBar@@MAEXXZ 0047f315 f   uafxcw:afxtoolbar.obj
 0001:0007e361       ?OnBeforeChangeParent@CMFCToolBar@@MAEXPAVCWnd@@H@Z 0047f361 f   uafxcw:afxtoolbar.obj
 0001:0007e39b       ?OnCalcSeparatorRect@CMFCToolBar@@MAEXPAVCMFCToolBarButton@@AAVCRect@@H@Z 0047f39b f   uafxcw:afxtoolbar.obj
 0001:0007e40e       ?OnCancelMode@CMFCToolBar@@IAEXXZ 0047f40e f   uafxcw:afxtoolbar.obj
 0001:0007e53a       ?OnChangeHot@CMFCToolBar@@UAEXH@Z 0047f53a f   uafxcw:afxtoolbar.obj
 0001:0007e7d1       ?OnChangeVisualManager@CMFCToolBar@@UAEXXZ 0047f7d1 f   uafxcw:afxtoolbar.obj
 0001:0007e82f       ?OnCommand@CMFCToolBar@@MAEHIJ@Z 0047f82f f   uafxcw:afxtoolbar.obj
 0001:0007e908       ?OnContextMenu@CMFCToolBar@@IAEXPAVCWnd@@VCPoint@@@Z 0047f908 f   uafxcw:afxtoolbar.obj
 0001:0007eb61       ?OnCopyImage@CMFCToolBar@@IAEXXZ 0047fb61 f   uafxcw:afxtoolbar.obj
 0001:0007ec04       ?OnCreate@CMFCToolBar@@IAEHPAUtagCREATESTRUCTW@@@Z 0047fc04 f   uafxcw:afxtoolbar.obj
 0001:0007ed74       ?OnCtlColor@CMFCToolBar@@IAEPAUHBRUSH__@@PAVCDC@@PAVCWnd@@I@Z 0047fd74 f   uafxcw:afxtoolbar.obj
 0001:0007ee05       ?OnCustomizeMode@CMFCToolBar@@MAEXH@Z 0047fe05 f   uafxcw:afxtoolbar.obj
 0001:0007ee7b       ?OnDestroy@CMFCToolBar@@IAEXXZ 0047fe7b f   uafxcw:afxtoolbar.obj
 0001:0007ef00       ?OnDragEnter@CMFCToolBar@@MAEKPAVCOleDataObject@@KVCPoint@@@Z 0047ff00 f   uafxcw:afxtoolbar.obj
 0001:0007ef36       ?OnDragLeave@CMFCToolBar@@MAEXXZ 0047ff36 f   uafxcw:afxtoolbar.obj
 0001:0007efbd       ?OnDragOver@CMFCToolBar@@MAEKPAVCOleDataObject@@KVCPoint@@@Z 0047ffbd f   uafxcw:afxtoolbar.obj
 0001:0007f13b       ?OnDrop@CMFCToolBar@@MAEHPAVCOleDataObject@@KVCPoint@@@Z 0048013b f   uafxcw:afxtoolbar.obj
 0001:0007f31b       ?OnGetButton@CMFCToolBar@@IAEJIJ@Z 0048031b f   uafxcw:afxtoolbar.obj
 0001:0007f354       ?OnGetButtonCount@CMFCToolBar@@IAEJIJ@Z 00480354 f   uafxcw:afxtoolbar.obj
 0001:0007f35d       ?OnGetButtonText@CMFCToolBar@@IAEJIJ@Z 0048035d f   uafxcw:afxtoolbar.obj
 0001:0007f3a0       ?OnGetItemRect@CMFCToolBar@@IAEJIJ@Z 004803a0 f   uafxcw:afxtoolbar.obj
 0001:0007f3b8       ?OnGlobalFontsChanged@CMFCToolBar@@UAEXXZ 004803b8 f   uafxcw:afxtoolbar.obj
 0001:0007f3f7       ?OnHelpHitTest@CMFCToolBar@@IAEJIJ@Z 004803f7 f   uafxcw:afxtoolbar.obj
 0001:0007f4af       ?OnKillFocus@CMFCToolBar@@IAEXPAVCWnd@@@Z 004804af f   uafxcw:afxtoolbar.obj
 0001:0007f4f0       ?OnLButtonDblClk@CMFCToolBar@@IAEXIVCPoint@@@Z 004804f0 f   uafxcw:afxtoolbar.obj
 0001:0007f581       ?OnLButtonDown@CMFCToolBar@@IAEXIVCPoint@@@Z 00480581 f   uafxcw:afxtoolbar.obj
 0001:0007fc43       ?OnLButtonUp@CMFCToolBar@@IAEXIVCPoint@@@Z 00480c43 f   uafxcw:afxtoolbar.obj
 0001:0007ffc4       ?OnMouseLeave@CMFCToolBar@@IAEXXZ 00480fc4 f   uafxcw:afxtoolbar.obj
 0001:00080105       ?OnMouseMove@CMFCToolBar@@IAEXIVCPoint@@@Z 00481105 f   uafxcw:afxtoolbar.obj
 0001:0008051f       ?OnNcCalcSize@CMFCToolBar@@IAEXHPAUtagNCCALCSIZE_PARAMS@@@Z 0048151f f   uafxcw:afxtoolbar.obj
 0001:00080534       ?OnNcPaint@CMFCToolBar@@IAEXXZ 00481534 f   uafxcw:afxtoolbar.obj
 0001:0008053f       ?OnNeedTipText@CMFCToolBar@@IAEHIPAUtagNMHDR@@PAJ@Z 0048153f f   uafxcw:afxtoolbar.obj
 0001:00080660       ?OnPromptReset@CMFCToolBar@@IAEJIJ@Z 00481660 f   uafxcw:afxtoolbar.obj
 0001:0008072c       ?OnRButtonDown@CMFCToolBar@@IAEXIVCPoint@@@Z 0048172c f   uafxcw:afxtoolbar.obj
 0001:00080777       ?OnSetAccData@CMFCToolBar@@UAEHJ@Z 00481777 f   uafxcw:afxtoolbar.obj
 0001:000807b2       ?OnSetCursor@CMFCToolBar@@IAEHPAVCWnd@@II@Z 004817b2 f   uafxcw:afxtoolbar.obj
 0001:000808de       ?OnSetDefaultButtonText@CMFCToolBar@@UAEHPAVCMFCToolBarButton@@@Z 004818de f   uafxcw:afxtoolbar.obj
 0001:00080975       ?OnSetFocus@CMFCToolBar@@IAEXPAVCWnd@@@Z 00481975 f   uafxcw:afxtoolbar.obj
 0001:000809ff       ?OnSettingChange@CMFCToolBar@@IAEXIPB_W@Z 004819ff f   uafxcw:afxtoolbar.obj
 0001:00080a3d       ?OnShowWindow@CMFCToolBar@@IAEXHI@Z 00481a3d f   uafxcw:afxtoolbar.obj
 0001:00080a97       ?OnSize@CMFCToolBar@@IAEXIHH@Z 00481a97 f   uafxcw:afxtoolbar.obj
 0001:00080b69       ?OnSysColorChange@CMFCToolBar@@IAEXXZ 00481b69 f   uafxcw:afxtoolbar.obj
 0001:00080b9f       ?OnToolHitTest@CMFCToolBar@@MBEHVCPoint@@PAUtagTOOLINFOW@@@Z 00481b9f f   uafxcw:afxtoolbar.obj
 0001:00080ea1       ?OnToolbarAppearance@CMFCToolBar@@IAEXXZ 00481ea1 f   uafxcw:afxtoolbar.obj
 0001:00080f47       ?OnToolbarDelete@CMFCToolBar@@IAEXXZ 00481f47 f   uafxcw:afxtoolbar.obj
 0001:00080f6a       ?OnToolbarImage@CMFCToolBar@@IAEXXZ 00481f6a f   uafxcw:afxtoolbar.obj
 0001:0008102c       ?OnToolbarImageAndText@CMFCToolBar@@IAEXXZ 0048202c f   uafxcw:afxtoolbar.obj
 0001:0008110f       ?OnToolbarNewMenu@CMFCToolBar@@IAEXXZ 0048210f f   uafxcw:afxtoolbar.obj
 0001:000811e6       ?OnToolbarReset@CMFCToolBar@@IAEXXZ 004821e6 f   uafxcw:afxtoolbar.obj
 0001:0008129d       ?OnToolbarStartGroup@CMFCToolBar@@IAEXXZ 0048229d f   uafxcw:afxtoolbar.obj
 0001:00081336       ?OnToolbarText@CMFCToolBar@@IAEXXZ 00482336 f   uafxcw:afxtoolbar.obj
 0001:0008139f       ?OnUpdateCmdUI@CMFCToolBar@@UAEXPAVCFrameWnd@@H@Z 0048239f f   uafxcw:afxtoolbar.obj
 0001:0008145c       ?OnUpdateToolTips@CMFCToolBar@@IAEJIJ@Z 0048245c f   uafxcw:afxtoolbar.obj
 0001:00081485       ?OnUserToolTip@CMFCToolBar@@UBEHPAVCMFCToolBarButton@@AAV?$CStringT@_WV?$StrTraitMFC@_WV?$ChTraitsCRT@_W@ATL@@@@@ATL@@@Z 00482485 f   uafxcw:afxtoolbar.obj
 0001:00081534       ?OnWindowPosChanged@CMFCToolBar@@IAEXPAUtagWINDOWPOS@@@Z 00482534 f   uafxcw:afxtoolbar.obj
 0001:000815b7       ?OnWindowPosChanging@CMFCToolBar@@IAEXPAUtagWINDOWPOS@@@Z 004825b7 f   uafxcw:afxtoolbar.obj
 0001:000815ed       ?PreTranslateMessage@CMFCToolBar@@MAEHPAUtagMSG@@@Z 004825ed f   uafxcw:afxtoolbar.obj
 0001:000816e7       ?PrevMenu@CMFCToolBar@@UAEHXZ 004826e7 f   uafxcw:afxtoolbar.obj
 0001:000817dd       ?ProcessCommand@CMFCToolBar@@QAEHPAVCMFCToolBarButton@@@Z 004827dd f   uafxcw:afxtoolbar.obj
 0001:00081830       ?RebuildAccelerationKeys@CMFCToolBar@@IAEXXZ 00482830 f   uafxcw:afxtoolbar.obj
 0001:000818d8       ?RedrawCustomizeButton@CMFCToolBar@@IAEXXZ 004828d8 f   uafxcw:afxtoolbar.obj
 0001:00081954       ?RedrawUnderlines@CMFCToolBar@@SGXXZ 00482954 f   uafxcw:afxtoolbar.obj
 0001:00081a29       ?Remove@?$CStringT@_WV?$StrTraitMFC@_WV?$ChTraitsCRT@_W@ATL@@@@@ATL@@QAEH_W@Z 00482a29 f i uafxcw:afxtoolbar.obj
 0001:00081ab4       ?RemoveAllButtons@CMFCToolBar@@UAEXXZ 00482ab4 f   uafxcw:afxtoolbar.obj
 0001:00081b0c       ?RemoveButton@CMFCToolBar@@UAEHH@Z 00482b0c f   uafxcw:afxtoolbar.obj
 0001:00081c94       ?RemoveResetStateButton@CMFCToolBar@@IAEHI@Z 00482c94 f   uafxcw:afxtoolbar.obj
 0001:00081d08       ?RemoveStateFromRegistry@CMFCToolBar@@UAEHPB_WHI@Z 00482d08 f   uafxcw:afxtoolbar.obj
 0001:00081dd5       ?ResetImages@CMFCToolBar@@UAEXXZ 00482dd5 f   uafxcw:afxtoolbar.obj
 0001:00081e30       ?RestoreFocus@CMFCToolBar@@UAEXXZ 00482e30 f   uafxcw:afxtoolbar.obj
 0001:00081e8f       ?RestoreOriginalState@CMFCToolBar@@UAEHXZ 00482e8f f   uafxcw:afxtoolbar.obj
 0001:00081fa6       ?SaveOriginalState@CMFCToolBar@@MAEXAAVCSettingsStore@@@Z 00482fa6 f   uafxcw:afxtoolbar.obj
 0001:00081fcb       ?SaveParameters@CMFCToolBar@@SGHPB_W@Z 00482fcb f   uafxcw:afxtoolbar.obj
 0001:00082126       ?SaveResetOriginalState@CMFCToolBar@@IAEXAAVCSettingsStore@@@Z 00483126 f   uafxcw:afxtoolbar.obj
 0001:0008214b       ?SaveState@CMFCToolBar@@UAEHPB_WHI@Z 0048314b f   uafxcw:afxtoolbar.obj
 0001:0008237e       ?SelectDefaultFont@CBasePane@@QAEPAVCFont@@PAVCDC@@@Z 0048337e f i uafxcw:afxtoolbar.obj
 0001:000823b3       ?Serialize@?$CMap@IAAIPAVCMFCToolBarButton@@AAPAV1@@@UAEXAAVCArchive@@@Z 004833b3 f i uafxcw:afxtoolbar.obj
 0001:0008245b       ?Serialize@CMFCToolBar@@UAEXAAVCArchive@@@Z 0048345b f   uafxcw:afxtoolbar.obj
 0001:000826c1       ?SetButtonStyle@CMFCToolBar@@UAEXHI@Z 004836c1 f   uafxcw:afxtoolbar.obj
 0001:00082713       ?SetButtonText@CMFCToolBar@@QAEHHPB_W@Z 00483713 f   uafxcw:afxtoolbar.obj
 0001:00082740       ?SetButtons@CMFCToolBar@@UAEHPBIHH@Z 00483740 f   uafxcw:afxtoolbar.obj
 0001:00082abc       ?SetCheck@CMFCToolBarCmdUI@@UAEXH@Z 00483abc f   uafxcw:afxtoolbar.obj
 0001:00082b1e       ?SetCustomizeMode@CMFCToolBar@@SGHH@Z 00483b1e f   uafxcw:afxtoolbar.obj
 0001:00082c87       ?SetHelpMode@CMFCToolBar@@SGXH@Z 00483c87 f   uafxcw:afxtoolbar.obj
 0001:00082d0c       ?SetHot@CMFCToolBar@@QAEHPAVCMFCToolBarButton@@@Z 00483d0c f   uafxcw:afxtoolbar.obj
 0001:00082d93       ?SetLargeIcons@CMFCToolBar@@SGXH@Z 00483d93 f   uafxcw:afxtoolbar.obj
 0001:00083045       ?SetLockedSizes@CMFCToolBar@@QAEXUtagSIZE@@0H@Z 00484045 f   uafxcw:afxtoolbar.obj
 0001:000831f0       ?SetOneRowWithSibling@CMFCToolBar@@QAEXXZ 004841f0 f   uafxcw:afxtoolbar.obj
 0001:00083255       ?SetOrigButtons@CMFCToolBar@@QAEXABVCObList@@@Z 00484255 f   uafxcw:afxtoolbar.obj
 0001:0008329a       ?SetRadio@CMFCToolBarCmdUI@@UAEXH@Z 0048429a f   uafxcw:afxtoolbar.obj
 0001:000832d2       ?SetRoundedRgn@CMFCToolBar@@IAEXXZ 004842d2 f   uafxcw:afxtoolbar.obj
 0001:00083383       ?SetSizes@CMFCToolBar@@SGXUtagSIZE@@0@Z 00484383 f   uafxcw:afxtoolbar.obj
 0001:00083551       ?SetText@CMFCToolBarCmdUI@@UAEXPB_W@Z 00484551 f   uafxcw:afxtoolbar.obj
 0001:0008363e       ?SetToolBarBtnText@CMFCToolBar@@QAEXIPB_WHH@Z 0048463e f   uafxcw:afxtoolbar.obj
 0001:00083689       ?SetTransparentColor@CMFCToolBarImages@@QAEKK@Z 00484689 f i uafxcw:afxtoolbar.obj
 0001:000836bb       ?SetTwoRowsWithSibling@CMFCToolBar@@QAEXXZ 004846bb f   uafxcw:afxtoolbar.obj
 0001:000837ec       ?SetUserImages@CMFCToolBar@@SGHPAVCMFCToolBarImages@@@Z 004847ec f   uafxcw:afxtoolbar.obj
 0001:0008382c       ?Show@CMFCToolBarButton@@QAEXH@Z 0048482c f i uafxcw:afxtoolbar.obj
 0001:0008384c       ?ShowCommandMessageString@CMFCToolBar@@MAEXI@Z 0048484c f   uafxcw:afxtoolbar.obj
 0001:000838ba       ?SizeToolBar@CMFCToolBar@@IAEXHH@Z 004848ba f   uafxcw:afxtoolbar.obj
 0001:00083a89       ?SmartUpdate@CMFCToolBar@@MAEHABVCObList@@@Z 00484a89 f   uafxcw:afxtoolbar.obj
 0001:00083da3       ?SpanExcluding@?$CStringT@_WV?$StrTraitMFC@_WV?$ChTraitsCRT@_W@ATL@@@@@ATL@@QBE?AV12@PB_W@Z 00484da3 f i uafxcw:afxtoolbar.obj
 0001:00083de0       ?StretchPane@CMFCToolBar@@UAE?AVCSize@@HH@Z 00484de0 f   uafxcw:afxtoolbar.obj
 0001:00083ec0       ?ToolBarMouseHookProc@CMFCToolBar@@KGJHIJ@Z 00484ec0 f   uafxcw:afxtoolbar.obj
 0001:0008400f       ?TranslateChar@CMFCToolBar@@UAEHI@Z 0048500f f   uafxcw:afxtoolbar.obj
 0001:00084088       ?UpdateButton@CMFCToolBar@@QAEXH@Z 00485088 f   uafxcw:afxtoolbar.obj
 0001:00084140       ?UpdateImagesColor@CMFCToolBar@@IAEXXZ 00485140 f   uafxcw:afxtoolbar.obj
 0001:000841e2       ?UpdateTooltips@CMFCToolBar@@IAEXXZ 004851e2 f   uafxcw:afxtoolbar.obj
 0001:000842f5       ?WrapToolBar@CMFCToolBar@@QAEHHHPAVCDC@@HH@Z 004852f5 f   uafxcw:afxtoolbar.obj
 0001:00084533       ?accDoDefaultAction@CMFCToolBar@@MAEJUtagVARIANT@@@Z 00485533 f   uafxcw:afxtoolbar.obj
 0001:000845a2       ?accHitTest@CMFCToolBar@@MAEJJJPAUtagVARIANT@@@Z 004855a2 f   uafxcw:afxtoolbar.obj
 0001:00084656       ?accNavigate@CMFCToolBar@@MAEJJUtagVARIANT@@PAU2@@Z 00485656 f   uafxcw:afxtoolbar.obj
 0001:000846fb       ?get_accChild@CMFCToolBar@@MAEJUtagVARIANT@@PAPAUIDispatch@@@Z 004856fb f   uafxcw:afxtoolbar.obj
 0001:00084766       ?get_accChildCount@CMFCToolBar@@MAEJPAJ@Z 00485766 f   uafxcw:afxtoolbar.obj
 0001:00084789       ?CreateObject@CHelpComboBoxButton@@SGPAVCObject@@XZ 00485789 f   uafxcw:afxmenubar.obj
 0001:000847bc       ?CreateObject@CMFCMenuBar@@SGPAVCObject@@XZ 004857bc f   uafxcw:afxmenubar.obj
 0001:000847ec       ??0CHelpComboBoxButton@@QAE@IHPB_W@Z 004857ec f i uafxcw:afxmenubar.obj
 0001:0008484b       ??0CMFCMenuBar@@QAE@XZ     0048584b f   uafxcw:afxmenubar.obj
 0001:000848f7       ??1CHelpComboBoxButton@@UAE@XZ 004858f7 f i uafxcw:afxmenubar.obj
 0001:00084910       ??1CMFCMenuBar@@UAE@XZ     00485910 f   uafxcw:afxmenubar.obj
 0001:00084972       ??_ECHelpComboBoxButton@@UAEPAXI@Z 00485972 f i uafxcw:afxmenubar.obj
 0001:00084972       ??_GCHelpComboBoxButton@@UAEPAXI@Z 00485972 f i uafxcw:afxmenubar.obj
 0001:00084991       ??_GCMFCMenuBar@@UAEPAXI@Z 00485991 f i uafxcw:afxmenubar.obj
 0001:00084991       ??_ECMFCMenuBar@@UAEPAXI@Z 00485991 f i uafxcw:afxmenubar.obj
 0001:000849b0       ?AdjustLocations@CMFCMenuBar@@UAEXXZ 004859b0 f   uafxcw:afxmenubar.obj
 0001:00084b9d       ?BuildOrigItems@CMFCMenuBar@@MAEHI@Z 00485b9d f   uafxcw:afxmenubar.obj
 0001:00084d6f       ?CalcFixedLayout@CMFCMenuBar@@UAE?AVCSize@@HH@Z 00485d6f f   uafxcw:afxmenubar.obj
 0001:00084db4       ?CalcLayout@CMFCMenuBar@@UAE?AVCSize@@KH@Z 00485db4 f   uafxcw:afxmenubar.obj
 0001:00084fac       ?CalcMaxButtonHeight@CMFCMenuBar@@UAEHXZ 00485fac f   uafxcw:afxmenubar.obj
 0001:0008502d       ?CalcSysButtonSize@CMFCMenuBar@@IAEXXZ 0048602d f   uafxcw:afxmenubar.obj
 0001:00085127       ?CopyFrom@CHelpComboBoxButton@@UAEXABVCMFCToolBarButton@@@Z 00486127 f i uafxcw:afxmenubar.obj
 0001:0008514f       ?Create@CMFCMenuBar@@UAEHPAVCWnd@@KI@Z 0048614f f   uafxcw:afxmenubar.obj
 0001:0008516b       ?CreateEx@CMFCMenuBar@@UAEHPAVCWnd@@KKVCRect@@I@Z 0048616b f   uafxcw:afxmenubar.obj
 0001:0008519a       ?CreateFromMenu@CMFCMenuBar@@UAEXPAUHMENU__@@HH@Z 0048619a f   uafxcw:afxmenubar.obj
 0001:00085558       ?EnableWindow@CMFCToolBarComboBoxButton@@UAEXH@Z 00486558 f i uafxcw:afxmenubar.obj
 0001:00085591       ?FindDropIndex@CMFCMenuBar@@MBEHVCPoint@@AAVCRect@@@Z 00486591 f   uafxcw:afxmenubar.obj
 0001:0008564f       ?FindMenuItemText@CMFCMenuBar@@KGHPAUHMENU__@@IAAV?$CStringT@_WV?$StrTraitMFC@_WV?$ChTraitsCRT@_W@ATL@@@@@ATL@@@Z 0048664f f   uafxcw:afxmenubar.obj
 0001:000856e8       ?GetAvailableExpandSize@CMFCMenuBar@@UBEHXZ 004866e8 f i uafxcw:afxmenubar.obj
 0001:000856fc       ?GetColumnWidth@CMFCMenuBar@@UBEHXZ 004866fc f i uafxcw:afxmenubar.obj
 0001:0008572c       ?GetFloatPopupDirection@CMFCMenuBar@@QAEHPAVCMFCToolBarMenuButton@@@Z 0048672c f   uafxcw:afxmenubar.obj
 0001:000857e4       ?GetHelpCombobox@CMFCMenuBar@@QAEPAVCMFCToolBarComboBoxButton@@XZ 004867e4 f   uafxcw:afxmenubar.obj
 0001:00085818       ?GetHwnd@CMFCToolBarComboBoxButton@@UAEPAUHWND__@@XZ 00486818 f i uafxcw:afxmenubar.obj
 0001:00085827       ?GetInvalidateRect@CMFCToolBarButton@@UBE?BVCRect@@XZ 00486827 f i uafxcw:afxmenubar.obj
 0001:0008583e       ?GetMenuFont@CMFCMenuBar@@SGABVCFont@@H@Z 0048683e f   uafxcw:afxmenubar.obj
 0001:0008585c       ?GetMessageMap@CMFCMenuBar@@MBEPBUAFX_MSGMAP@@XZ 0048685c f   uafxcw:afxmenubar.obj
 0001:00085862       ?GetCustomizeText@CMFCCustomizeButton@@QBE?AV?$CStringT@_WV?$StrTraitMFC@_WV?$ChTraitsCRT@_W@ATL@@@@@ATL@@XZ 00486862 f i uafxcw:afxpaneframewnd.obj
 0001:00085862       ?GetPrompt@CHelpComboBoxButton@@UBE?AV?$CStringT@_WV?$StrTraitMFC@_WV?$ChTraitsCRT@_W@ATL@@@@@ATL@@XZ 00486862 f i uafxcw:afxmenubar.obj
 0001:00085888       ?GetRowHeight@CMFCMenuBar@@UBEHXZ 00486888 f   uafxcw:afxmenubar.obj
 0001:00085942       ?GetRuntimeClass@CHelpComboBoxButton@@UBEPAUCRuntimeClass@@XZ 00486942 f   uafxcw:afxmenubar.obj
 0001:00085948       ?GetRuntimeClass@CMFCMenuBar@@UBEPAUCRuntimeClass@@XZ 00486948 f   uafxcw:afxmenubar.obj
 0001:0008594e       ?GetSystemMenu@CMFCMenuBar@@QBEPAVCMFCToolBarSystemMenuButton@@XZ 0048694e f   uafxcw:afxmenubar.obj
 0001:00085979       ?IsDrawImage@CMFCToolBarButton@@QBEHXZ 00486979 f i uafxcw:afxmenubar.obj
 0001:00085995       ?IsOwnerOf@CMFCToolBarComboBoxButton@@UAEHPAUHWND__@@@Z 00486995 f i uafxcw:afxmenubar.obj
 0001:00085a13       ?IsPureMenuButton@CMFCMenuBar@@MBEHPAVCMFCToolBarButton@@@Z 00486a13 f   uafxcw:afxmenubar.obj
 0001:00085a3c       ?IsShowAllCommands@CMFCMenuBar@@SGHXZ 00486a3c f i uafxcw:afxmenubar.obj
 0001:00085a63       ?IsWindowVisible@CMFCToolBarComboBoxButton@@UAEHXZ 00486a63 f i uafxcw:afxmenubar.obj
 0001:00085aa8       ?LoadState@CMFCMenuBar@@UAEHPB_WHI@Z 00486aa8 f   uafxcw:afxmenubar.obj
 0001:00085d54       ?OnChangeHot@CMFCMenuBar@@UAEXH@Z 00486d54 f   uafxcw:afxmenubar.obj
 0001:00085dbd       ?OnCreate@CMFCMenuBar@@IAEHPAUtagCREATESTRUCTW@@@Z 00486dbd f   uafxcw:afxmenubar.obj
 0001:00085eae       ?OnLButtonDblClk@CMFCMenuBar@@IAEXIVCPoint@@@Z 00486eae f   uafxcw:afxmenubar.obj
 0001:00085fa4       ?OnLButtonDown@CMFCMenuBar@@IAEXIVCPoint@@@Z 00486fa4 f   uafxcw:afxmenubar.obj
 0001:00085fda       ?OnSendCommand@CMFCMenuBar@@UAEHPBVCMFCToolBarButton@@@Z 00486fda f   uafxcw:afxmenubar.obj
 0001:00086056       ?OnSetDefaultButtonText@CMFCMenuBar@@UAEHPAVCMFCToolBarButton@@@Z 00487056 f   uafxcw:afxmenubar.obj
 0001:000860bf       ?OnSetFocus@CMFCMenuBar@@IAEXPAVCWnd@@@Z 004870bf f   uafxcw:afxmenubar.obj
 0001:0008612e       ?OnSettingChange@CMFCMenuBar@@IAEXIPB_W@Z 0048712e f   uafxcw:afxmenubar.obj
 0001:00086161       ?OnTimer@CMFCMenuBar@@IAEXI@Z 00487161 f   uafxcw:afxmenubar.obj
 0001:000861fc       ?OnToolHitTest@CMFCMenuBar@@UBEHVCPoint@@PAUtagTOOLINFOW@@@Z 004871fc f   uafxcw:afxmenubar.obj
 0001:0008624b       ?PreTranslateMessage@CMFCMenuBar@@UAEHPAUtagMSG@@@Z 0048724b f   uafxcw:afxmenubar.obj
 0001:000863f6       ?ResetImages@CMFCMenuBar@@MAEXXZ 004873f6 f   uafxcw:afxmenubar.obj
 0001:0008650c       ?RestoreMaximizeMode@CMFCMenuBar@@IAEXH@Z 0048750c f   uafxcw:afxmenubar.obj
 0001:000866fd       ?RestoreOriginalState@CMFCMenuBar@@UAEHXZ 004876fd f   uafxcw:afxmenubar.obj
 0001:00086a66       ?SaveState@CMFCMenuBar@@UAEHPB_WHI@Z 00487a66 f   uafxcw:afxmenubar.obj
 0001:00086c06       ?Serialize@CHelpComboBoxButton@@UAEXAAVCArchive@@@Z 00487c06 f i uafxcw:afxmenubar.obj
 0001:00086c37       ?SetDefaultMenuResId@CMFCMenuBar@@QAEXI@Z 00487c37 f   uafxcw:afxmenubar.obj
 0001:00086c47       ?SetMaximizeMode@CMFCMenuBar@@QAEXHPAVCWnd@@H@Z 00487c47 f   uafxcw:afxmenubar.obj
 0001:00086f3a       ?SetRecentlyUsedMenus@CMFCMenuBar@@SGXH@Z 00487f3a f   uafxcw:afxmenubar.obj
 0001:00086f49       ?SetShowAllCommands@CMFCMenuBar@@SGXH@Z 00487f49 f   uafxcw:afxmenubar.obj
 0001:00086f58       ?UpdateMDIChildrenMenus@CMFCMenuBar@@KGXPAVCMultiDocTemplate@@@Z 00487f58 f   uafxcw:afxmenubar.obj
 0001:00086fd4       ??0CMFCStatusBar@@QAE@XZ   00487fd4 f   uafxcw:afxstatusbar.obj
 0001:00087038       ??1CMFCStatusBar@@UAE@XZ   00488038 f   uafxcw:afxstatusbar.obj
 0001:00087043       ??_GCMFCStatusBar@@UAEPAXI@Z 00488043 f i uafxcw:afxstatusbar.obj
 0001:00087043       ??_ECMFCStatusBar@@UAEPAXI@Z 00488043 f i uafxcw:afxstatusbar.obj
 0001:00087068       ?CalcFixedLayout@CMFCStatusBar@@UAE?AVCSize@@HH@Z 00488068 f   uafxcw:afxstatusbar.obj
 0001:0008713a       ?CommandToIndex@CMFCStatusBar@@QBEHI@Z 0048813a f   uafxcw:afxstatusbar.obj
 0001:0008717e       ?Create@CMFCStatusBar@@QAEHPAVCWnd@@KI@Z 0048817e f   uafxcw:afxstatusbar.obj
 0001:00087195       ?CreateEx@CMFCStatusBar@@QAEHPAVCWnd@@KKI@Z 00488195 f   uafxcw:afxstatusbar.obj
 0001:00087365       ?DoPaint@CMFCStatusBar@@MAEXPAVCDC@@@Z 00488365 f   uafxcw:afxstatusbar.obj
 0001:000874ae       ?Enable@CMFCStatusBarCmdUI@@UAEXH@Z 004884ae f   uafxcw:afxstatusbar.obj
 0001:000874f4       ?GetCurrentFont@CMFCStatusBar@@IBEPAUHFONT__@@XZ 004884f4 f   uafxcw:afxstatusbar.obj
 0001:0008750f       ?GetExtendedArea@CMFCStatusBar@@UBEHAAVCRect@@@Z 0048850f f   uafxcw:afxstatusbar.obj
 0001:00087598       ?GetMessageMap@CMFCStatusBar@@MBEPBUAFX_MSGMAP@@XZ 00488598 f   uafxcw:afxstatusbar.obj
 0001:0008759e       ?GetPaneStyle@CMFCStatusBar@@QBEIH@Z 0048859e f   uafxcw:afxstatusbar.obj
 0001:000875b4       ?GetRuntimeClass@CMFCStatusBar@@UBEPAUCRuntimeClass@@XZ 004885b4 f   uafxcw:afxstatusbar.obj
 0001:000875ba       ?GetTextExtent@CDC@@QBE?AVCSize@@PB_WH@Z 004885ba f i uafxcw:afxstatusbar.obj
 0001:000875e6       ?HitTest@CMFCStatusBar@@IBEPAVCMFCStatusBarPaneInfo@@VCPoint@@@Z 004885e6 f   uafxcw:afxstatusbar.obj
 0001:0008765a       ?InvalidatePaneContent@CMFCStatusBar@@QAEXH@Z 0048865a f   uafxcw:afxstatusbar.obj
 0001:000876d8       ?OnCreate@CMFCStatusBar@@IAEHPAUtagCREATESTRUCTW@@@Z 004886d8 f   uafxcw:afxstatusbar.obj
 0001:000876f8       ?OnDestroy@CMFCStatusBar@@IAEXXZ 004886f8 f   uafxcw:afxstatusbar.obj
 0001:0008773c       ?OnDrawPane@CMFCStatusBar@@MAEXPAVCDC@@PAVCMFCStatusBarPaneInfo@@@Z 0048873c f   uafxcw:afxstatusbar.obj
 0001:00087966       ?OnGetFont@CMFCStatusBar@@IAEPAUHFONT__@@XZ 00488966 f   uafxcw:afxstatusbar.obj
 0001:0008796b       ?OnGetText@CMFCStatusBar@@IAEHHPA_W@Z 0048896b f   uafxcw:afxstatusbar.obj
 0001:000879e3       ?OnGetTextLength@CMFCStatusBar@@IAEIXZ 004889e3 f   uafxcw:afxstatusbar.obj
 0001:00087a14       ?OnLButtonDblClk@CMFCStatusBar@@IAEXIVCPoint@@@Z 00488a14 f   uafxcw:afxstatusbar.obj
 0001:00087a64       ?OnNcHitTest@CMFCStatusBar@@IAEJVCPoint@@@Z 00488a64 f   uafxcw:afxstatusbar.obj
 0001:00087b11       ?OnSetFont@CMFCStatusBar@@IAEXPAVCFont@@H@Z 00488b11 f   uafxcw:afxstatusbar.obj
 0001:00087b50       ?OnSetText@CMFCStatusBar@@IAEHPB_W@Z 00488b50 f   uafxcw:afxstatusbar.obj
 0001:00087b84       ?OnSettingChange@CMFCStatusBar@@IAEXIPB_W@Z 00488b84 f   uafxcw:afxstatusbar.obj
 0001:00087b8f       ?OnShowWindow@CMFCStatusBar@@IAEXHI@Z 00488b8f f   uafxcw:afxstatusbar.obj
 0001:00087bc3       ?OnSize@CMFCStatusBar@@IAEXIHH@Z 00488bc3 f   uafxcw:afxstatusbar.obj
 0001:00087bfc       ?OnStyleChanged@CMFCStatusBar@@IAEXHPAUtagSTYLESTRUCT@@@Z 00488bfc f   uafxcw:afxstatusbar.obj
 0001:00087c2d       ?OnSysCommand@CMFCStatusBar@@IAEXIJ@Z 00488c2d f   uafxcw:afxstatusbar.obj
 0001:00087c78       ?OnTimer@CMFCStatusBar@@IAEXI@Z 00488c78 f   uafxcw:afxstatusbar.obj
 0001:00087d47       ?OnToolHitTest@CMFCStatusBar@@MBEHVCPoint@@PAUtagTOOLINFOW@@@Z 00488d47 f   uafxcw:afxstatusbar.obj
 0001:00087e1e       ?OnUpdateCmdUI@CMFCStatusBar@@MAEXPAVCFrameWnd@@H@Z 00488e1e f   uafxcw:afxstatusbar.obj
 0001:00087e87       ?PreCreateWindow@CMFCStatusBar@@UAEHAAUtagCREATESTRUCTW@@@Z 00488e87 f   uafxcw:afxstatusbar.obj
 0001:00087eb0       ?RecalcLayout@CMFCStatusBar@@MAEXXZ 00488eb0 f   uafxcw:afxstatusbar.obj
 0001:000880e5       ?SetCheck@CMFCStatusBarCmdUI@@UAEXH@Z 004890e5 f   uafxcw:afxstatusbar.obj
 0001:00088124       ?SetIndicators@CMFCStatusBar@@QAEHPBIH@Z 00489124 f   uafxcw:afxstatusbar.obj
 0001:0008836c       ?SetPaneAnimation@CMFCStatusBar@@QAEXHPAU_IMAGELIST@@IH@Z 0048936c f   uafxcw:afxstatusbar.obj
 0001:00088464       ?SetPaneIcon@CMFCStatusBar@@QAEXHPAUHICON__@@H@Z 00489464 f   uafxcw:afxstatusbar.obj
 0001:0008853c       ?SetPaneStyle@CMFCStatusBar@@QAEXHI@Z 0048953c f   uafxcw:afxstatusbar.obj
 0001:00088573       ?SetPaneText@CMFCStatusBar@@UAEHHPB_WH@Z 00489573 f   uafxcw:afxstatusbar.obj
 0001:00088601       ?SetText@CMFCStatusBarCmdUI@@UAEXPB_W@Z 00489601 f   uafxcw:afxstatusbar.obj
 0001:00088627       ?SetTipText@CMFCStatusBar@@QAEXHPB_W@Z 00489627 f   uafxcw:afxstatusbar.obj
 0001:00088690       ?_GetPanePtr@CMFCStatusBar@@IBEPAVCMFCStatusBarPaneInfo@@H@Z 00489690 f i uafxcw:afxstatusbar.obj
 0001:00088700       _IsolationAwareImageList_AddMasked@12 00489700 f i uafxcw:afxstatusbar.obj
 0001:000887b4       _IsolationAwareImageList_DrawEx@40 004897b4 f i uafxcw:afxstatusbar.obj
 0001:00088874       _IsolationAwareImageList_GetIcon@12 00489874 f i uafxcw:afxstatusbar.obj
 0001:0008891f       _IsolationAwareImageList_GetIconSize@12 0048991f f i uafxcw:afxstatusbar.obj
 0001:000889ca       _IsolationAwareImageList_GetImageCount@4 004899ca f i uafxcw:afxstatusbar.obj
 0001:00088a6f       _IsolationAwareImageList_Remove@8 00489a6f f i uafxcw:afxstatusbar.obj
 0001:00088b17       _IsolationAwareImageList_ReplaceIcon@12 00489b17 f i uafxcw:afxstatusbar.obj
 0001:00088bcb       ?Filter_Box@@YANN@Z        00489bcb f i uafxcw:afxtoolbarimages.obj
 0001:00088bf9       ?Filter_Bilinear@@YANN@Z   00489bf9 f i uafxcw:afxtoolbarimages.obj
 0001:00088c23       ?Filter_Bicubic@@YANN@Z    00489c23 f i uafxcw:afxtoolbarimages.obj
 0001:00088c5b       ?Filter_Bell@@YANN@Z       00489c5b f i uafxcw:afxtoolbarimages.obj
 0001:00088cb0       ?Filter_BSpline@@YANN@Z    00489cb0 f i uafxcw:afxtoolbarimages.obj
 0001:00088d0f       ?Filter_Lanczos3@@YANN@Z   00489d0f f i uafxcw:afxtoolbarimages.obj
 0001:00088d64       ?Filter_Mitchell@@YANN@Z   00489d64 f i uafxcw:afxtoolbarimages.obj
 0001:00088e6e       ??0?$CList@PAUHINSTANCE__@@PAU1@@@QAE@H@Z 00489e6e f i uafxcw:afxtoolbarimages.obj
 0001:00088e94       ??0Bitmap@Gdiplus@@QAE@HHHHPAE@Z 00489e94 f i uafxcw:afxtoolbarimages.obj
 0001:00088ecf       ??0CMFCToolBarImages@@QAE@H@Z 00489ecf f   uafxcw:afxtoolbarimages.obj
 0001:00088f86       ??0CMFCToolBarImages@@QAE@XZ 00489f86 f   uafxcw:afxtoolbarimages.obj
 0001:00089039       ??0CPngImage@@QAE@XZ       0048a039 f   uafxcw:afxtoolbarimages.obj
 0001:00089046       ??0Graphics@Gdiplus@@QAE@PAVImage@1@@Z 0048a046 f i uafxcw:afxtoolbarimages.obj
 0001:00089076       ??1?$CList@PAUHINSTANCE__@@PAU1@@@UAE@XZ 0048a076 f i uafxcw:afxtoolbarimages.obj
 0001:00089081       ??1CMFCScanlinerBitmap@@QAE@XZ 0048a081 f i uafxcw:afxtoolbarimages.obj
 0001:00089086       ??1CMFCToolBarImages@@UAE@XZ 0048a086 f   uafxcw:afxtoolbarimages.obj
 0001:00089186       ??1CMFCZoomKernel@@UAE@XZ  0048a186 f   uafxcw:afxtoolbarimages.obj
 0001:00089191       ??_G?$CList@PAUHINSTANCE__@@PAU1@@@UAEPAXI@Z 0048a191 f i uafxcw:afxtoolbarimages.obj
 0001:00089191       ??_E?$CList@PAUHINSTANCE__@@PAU1@@@UAEPAXI@Z 0048a191 f i uafxcw:afxtoolbarimages.obj
 0001:000891b6       ??_GCMFCToolBarImages@@UAEPAXI@Z 0048a1b6 f i uafxcw:afxtoolbarimages.obj
 0001:000891b6       ??_ECMFCToolBarImages@@UAEPAXI@Z 0048a1b6 f i uafxcw:afxtoolbarimages.obj
 0001:000891d5       ??_GCMFCZoomKernel@@UAEPAXI@Z 0048a1d5 f i uafxcw:afxtoolbarimages.obj
 0001:000891d5       ??_ECMFCZoomKernel@@UAEPAXI@Z 0048a1d5 f i uafxcw:afxtoolbarimages.obj
 0001:000891fa       ??_EImage@Gdiplus@@UAEPAXI@Z 0048a1fa f i uafxcw:afxtoolbarimages.obj
 0001:000891fa       ??_GImage@Gdiplus@@UAEPAXI@Z 0048a1fa f i uafxcw:afxtoolbarimages.obj
 0001:000891fa       ??_GBitmap@Gdiplus@@UAEPAXI@Z 0048a1fa f i uafxcw:afxtoolbarimages.obj
 0001:000891fa       ??_EBitmap@Gdiplus@@UAEPAXI@Z 0048a1fa f i uafxcw:afxtoolbarimages.obj
 0001:00089221       ?AdaptColors@CMFCToolBarImages@@QAEXKK@Z 0048a221 f   uafxcw:afxtoolbarimages.obj
 0001:0008974a       ?AddIcon@CMFCToolBarImages@@QAEHPAUHICON__@@H@Z 0048a74a f   uafxcw:afxtoolbarimages.obj
 0001:000898fc       ?AddImage@CMFCToolBarImages@@QAEHPAUHBITMAP__@@H@Z 0048a8fc f   uafxcw:afxtoolbarimages.obj
 0001:00089cd7       ?AlphaBlend@CDC@@QAEHHHHHPAV1@HHHHU_BLENDFUNCTION@@@Z 0048acd7 f i uafxcw:afxtoolbarimages.obj
 0001:00089d0d       ?CleanUp@CMFCToolBarImages@@SGXXZ 0048ad0d f   uafxcw:afxtoolbarimages.obj
 0001:00089d40       ?CleanUp@CPngImage@@SGXXZ  0048ad40 f i uafxcw:afxtoolbarimages.obj
 0001:00089d58       ?Clear@CMFCToolBarImages@@QAEXXZ 0048ad58 f   uafxcw:afxtoolbarimages.obj
 0001:00089e03       ?Clone@Image@Gdiplus@@UAEPAV12@XZ 0048ae03 f i uafxcw:afxtoolbarimages.obj
 0001:00089e4b       ?CombineRgn@CRgn@@QAEHPBV1@0H@Z 0048ae4b f i uafxcw:afxtoolbarimages.obj
 0001:00089e7e       ?CommonInit@CMFCToolBarImages@@QAEXH@Z 0048ae7e f   uafxcw:afxtoolbarimages.obj
 0001:00089ebb       ?CopyImageToClipboard@CMFCToolBarImages@@QAEHH@Z 0048aebb f   uafxcw:afxtoolbarimages.obj
 0001:0008a0a3       ?CopyTemp@CMFCToolBarImages@@IAEXAAV1@@Z 0048b0a3 f   uafxcw:afxtoolbarimages.obj
 0001:0008a0f9       ?CopyTo@CMFCToolBarImages@@QAEHAAV1@@Z 0048b0f9 f   uafxcw:afxtoolbarimages.obj
 0001:0008a44b       ?Create@CMFCZoomKernel@@QAEXJJJJW4XFilterType@1@@Z 0048b44b f   uafxcw:afxtoolbarimages.obj
 0001:0008a6e2       ?CreateFromGdiplusBitmap@CImage@ATL@@AAEJAAVBitmap@Gdiplus@@@Z 0048b6e2 f i uafxcw:afxtoolbarimages.obj
 0001:0008aa3e       ?CreateMask@CMFCToolBarImages@@IAEXHHH@Z 0048ba3e f   uafxcw:afxtoolbarimages.obj
 0001:0008ab22       ?CreateRegionFromImage@CMFCToolBarImages@@SGPAUHRGN__@@PAUHBITMAP__@@K@Z 0048bb22 f   uafxcw:afxtoolbarimages.obj
 0001:0008aea6       ?Draw@CMFCToolBarImages@@QAEHPAVCDC@@HHHHHHHHE@Z 0048bea6 f   uafxcw:afxtoolbarimages.obj
 0001:0008b6e1       ?DrawEx@CMFCToolBarImages@@QAEHPAVCDC@@VCRect@@HW4ImageAlignHorz@1@W4ImageAlignVert@1@1E@Z 0048c6e1 f   uafxcw:afxtoolbarimages.obj
 0001:0008ba33       ?DrawImage@Graphics@Gdiplus@@QAE?AW4Status@2@PAVImage@2@HH@Z 0048ca33 f i uafxcw:afxtoolbarimages.obj
 0001:0008ba65       ?DrawState@CDC@@QAEHVCPoint@@VCSize@@PAUHICON__@@IPAVCBrush@@@Z 0048ca65 f i uafxcw:afxtoolbarimages.obj
 0001:0008ba9e       ?Empty@CMFCZoomKernel@@QAEXXZ 0048ca9e f   uafxcw:afxtoolbarimages.obj
 0001:0008badc       ?EnableRTL@CMFCToolBarImages@@SGXH@Z 0048cadc f   uafxcw:afxtoolbarimages.obj
 0001:0008baeb       ?EndDrawImage@CMFCToolBarImages@@QAEXAAUtagAFXDrawState@@@Z 0048caeb f   uafxcw:afxtoolbarimages.obj
 0001:0008bbbf       ?ExtractIconW@CMFCToolBarImages@@QAEPAUHICON__@@H@Z 0048cbbf f   uafxcw:afxtoolbarimages.obj
 0001:0008bcae       ?FillDitheredRect@CMFCToolBarImages@@SGXPAVCDC@@ABVCRect@@@Z 0048ccae f   uafxcw:afxtoolbarimages.obj
 0001:0008bccb       ?Find@?$CStringT@_WV?$StrTraitMFC@_WV?$ChTraitsCRT@_W@ATL@@@@@ATL@@QBEHPB_WH@Z 0048cccb f i uafxcw:afxtoolbarimages.obj
 0001:0008bd05       ?GetDC@CDCCache@CImage@ATL@@QAEPAUHDC__@@XZ 0048cd05 f i uafxcw:afxtoolbarimages.obj
 0001:0008bd20       ?GetDC@CImage@ATL@@QBEPAUHDC__@@XZ 0048cd20 f i uafxcw:afxtoolbarimages.obj
 0001:0008bd4d       ?GetHeight@Image@Gdiplus@@QAEIXZ 0048cd4d f i uafxcw:afxtoolbarimages.obj
 0001:0008bd73       ?GetPalette@Image@Gdiplus@@QAE?AW4Status@2@PAUColorPalette@2@H@Z 0048cd73 f i uafxcw:afxtoolbarimages.obj
 0001:0008bd97       ?GetPaletteSize@Image@Gdiplus@@QAEHXZ 0048cd97 f i uafxcw:afxtoolbarimages.obj
 0001:0008bdbd       ?GetPixelFormat@Image@Gdiplus@@QAEHXZ 0048cdbd f i uafxcw:afxtoolbarimages.obj
 0001:0008bddf       ?GetWidth@Image@Gdiplus@@QAEIXZ 0048cddf f i uafxcw:afxtoolbarimages.obj
 0001:0008be05       ?GrayImages@CMFCToolBarImages@@QAEHH@Z 0048ce05 f   uafxcw:afxtoolbarimages.obj
 0001:0008c227       ?Init@CInitGDIPlus@CImage@ATL@@QAE_NXZ 0048d227 f i uafxcw:afxtoolbarimages.obj
 0001:0008c281       ?Initialize@CMFCToolBarImages@@QAEXXZ 0048d281 f   uafxcw:afxtoolbarimages.obj
 0001:0008c369       ?IsHighContrastMode@AFX_GLOBAL_DATA@@QBEHXZ 0048d369 f i uafxcw:afxtoolbarimages.obj
 0001:0008c37f       ?Load@CImage@ATL@@QAEJPAUIStream@@@Z 0048d37f f i uafxcw:afxtoolbarimages.obj
 0001:0008c3ea       ?Load@CMFCToolBarImages@@QAEHIPAUHINSTANCE__@@H@Z 0048d3ea f   uafxcw:afxtoolbarimages.obj
 0001:0008c403       ?Load@CMFCToolBarImages@@QAEHPB_WK@Z 0048d403 f   uafxcw:afxtoolbarimages.obj
 0001:0008c68e       ?Load@CPngImage@@QAEHPB_WPAUHINSTANCE__@@@Z 0048d68e f   uafxcw:afxtoolbarimages.obj
 0001:0008c704       ?LoadFromBuffer@CPngImage@@QAEHPAEI@Z 0048d704 f   uafxcw:afxtoolbarimages.obj
 0001:0008c7d6       ?LoadStr@CMFCToolBarImages@@QAEHPB_WPAUHINSTANCE__@@H@Z 0048d7d6 f   uafxcw:afxtoolbarimages.obj
 0001:0008c9db       ?MapBmpTo3dColors@CMFCToolBarImages@@KGHAAPAUHBITMAP__@@HKK@Z 0048d9db f   uafxcw:afxtoolbarimages.obj
 0001:0008cba2       ?MapFromSysColor@CMFCToolBarImages@@SGKKH@Z 0048dba2 f   uafxcw:afxtoolbarimages.obj
 0001:0008cc21       ?MapTo3dColors@CMFCToolBarImages@@QAEHHKK@Z 0048dc21 f   uafxcw:afxtoolbarimages.obj
 0001:0008cc3d       ?MapToSysColor@CMFCToolBarImages@@SGKKH@Z 0048dc3d f   uafxcw:afxtoolbarimages.obj
 0001:0008cccd       ?MapToSysColorAlpha@CMFCToolBarImages@@SGKK@Z 0048dccd f   uafxcw:afxtoolbarimages.obj
 0001:0008cd91       ?Mirror@CMFCToolBarImages@@QAEHXZ 0048dd91 f   uafxcw:afxtoolbarimages.obj
 0001:0008cdd6       ?MirrorBitmap@CMFCToolBarImages@@SGHAAPAUHBITMAP__@@H@Z 0048ddd6 f   uafxcw:afxtoolbarimages.obj
 0001:0008d039       ?MirrorBitmapVert@CMFCToolBarImages@@SGHAAPAUHBITMAP__@@H@Z 0048e039 f   uafxcw:afxtoolbarimages.obj
 0001:0008d2b7       ?MirrorVert@CMFCToolBarImages@@QAEHXZ 0048e2b7 f   uafxcw:afxtoolbarimages.obj
 0001:0008d2fc       ?OnSysColorChange@CMFCToolBarImages@@QAEXXZ 0048e2fc f   uafxcw:afxtoolbarimages.obj
 0001:0008d552       ?PreMultiplyAlpha@CMFCToolBarImages@@SGHPAUHBITMAP__@@H@Z 0048e552 f   uafxcw:afxtoolbarimages.obj
 0001:0008d610       ?PrepareDrawImage@CMFCToolBarImages@@QAEHAAUtagAFXDrawState@@VCSize@@H@Z 0048e610 f   uafxcw:afxtoolbarimages.obj
 0001:0008d86c       ?ReleaseDC@CDCCache@CImage@ATL@@QAEXPAUHDC__@@@Z 0048e86c f i uafxcw:afxtoolbarimages.obj
 0001:0008d88e       ?ReleaseDC@CImage@ATL@@QBEXXZ 0048e88e f i uafxcw:afxtoolbarimages.obj
 0001:0008d8b7       ?Save@CMFCToolBarImages@@QAEHPB_W@Z 0048e8b7 f   uafxcw:afxtoolbarimages.obj
 0001:0008d979       ?SetColorTable@CImage@ATL@@QAEXIIPBUtagRGBQUAD@@@Z 0048e979 f i uafxcw:afxtoolbarimages.obj
 0001:0008d9a2       ?SetSingleImage@CMFCToolBarImages@@QAEXXZ 0048e9a2 f   uafxcw:afxtoolbarimages.obj
 0001:0008d9f0       ?SinC@@YANN@Z              0048e9f0 f i uafxcw:afxtoolbarimages.obj
 0001:0008da21       ?SmoothResize@CMFCToolBarImages@@QAEHN@Z 0048ea21 f   uafxcw:afxtoolbarimages.obj
 0001:0008e068       ?TransparentBlt@CMFCToolBarImages@@KGXPAUHDC__@@HHHHPAVCDC@@HHKHH@Z 0048f068 f   uafxcw:afxtoolbarimages.obj
 0001:0008e307       ?UpdateCount@CMFCToolBarImages@@IAEXXZ 0048f307 f   uafxcw:afxtoolbarimages.obj
 0001:0008e340       ?UpdateImage@CMFCToolBarImages@@QAEHHPAUHBITMAP__@@@Z 0048f340 f   uafxcw:afxtoolbarimages.obj
 0001:0008e48a       ?UpdateInternalImage@CMFCToolBarImages@@IAEHH@Z 0048f48a f   uafxcw:afxtoolbarimages.obj
 0001:0008e819       ?_AtlVerifyStackAvailable@_ATL_SAFE_ALLOCA_IMPL@ATL@@YA_NK@Z 0048f819 f i uafxcw:afxtoolbarimages.obj
 0001:0008e88d       ?_begin@CMFCScanliner@@IBEPAEPAE@Z 0048f88d f i uafxcw:afxtoolbarimages.obj
 0001:0008e8bd       ?_end@CMFCScanliner@@IBEPAEPAE@Z 0048f8bd f i uafxcw:afxtoolbarimages.obj
 0001:0008e8f3       ?attach@CMFCScanliner@@QAEXPAEABVCRect@@IIEH@Z 0048f8f3 f i uafxcw:afxtoolbarimages.obj
 0001:0008e987       ?attach@CMFCScanliner@@QAEXPAEABVCSize@@IIEH@Z 0048f987 f i uafxcw:afxtoolbarimages.obj
 0001:0008e9c1       ?attach@CMFCScanlinerBitmap@@QAEXPAUHBITMAP__@@ABVCPoint@@@Z 0048f9c1 f i uafxcw:afxtoolbarimages.obj
 0001:0008eaae       ?empty@CMFCScanliner@@IAEXXZ 0048faae f i uafxcw:afxtoolbarimages.obj
 0001:0008eace       ??0CWinAppEx@@QAE@H@Z      0048face f   uafxcw:afxwinappex.obj
 0001:0008ebb6       ??1CWinAppEx@@UAE@XZ       0048fbb6 f   uafxcw:afxwinappex.obj
 0001:0008ecc6       ??_GCWinAppEx@@UAEPAXI@Z   0048fcc6 f i uafxcw:afxwinappex.obj
 0001:0008ecc6       ??_ECWinAppEx@@UAEPAXI@Z   0048fcc6 f i uafxcw:afxwinappex.obj
 0001:0008ece5       ?CleanState@CWinAppEx@@UAEHPB_W@Z 0048fce5 f   uafxcw:afxwinappex.obj
 0001:0008ed63       ?ExitInstance@CWinAppEx@@UAEHXZ 0048fd63 f   uafxcw:afxwinappex.obj
 0001:0008ed73       ?GetInt@CWinAppEx@@QAEHPB_WH@Z 0048fd73 f   uafxcw:afxwinappex.obj
 0001:0008ed8a       ?GetRegSectionPath@CWinAppEx@@QAE?AV?$CStringT@_WV?$StrTraitMFC@_WV?$ChTraitsCRT@_W@ATL@@@@@ATL@@PB_W@Z 0048fd8a f   uafxcw:afxwinappex.obj
 0001:0008eded       ?GetRuntimeClass@CWinAppEx@@UBEPAUCRuntimeClass@@XZ 0048fded f   uafxcw:afxwinappex.obj
 0001:0008edf3       ?GetSectionInt@CWinAppEx@@QAEHPB_W0H@Z 0048fdf3 f   uafxcw:afxwinappex.obj
 0001:0008ee93       ?GetTooltipManager@CWinAppEx@@QAEPAVCTooltipManager@@XZ 0048fe93 f   uafxcw:afxwinappex.obj
 0001:0008eea7       ?InitContextMenuManager@CWinAppEx@@QAEHXZ 0048fea7 f   uafxcw:afxwinappex.obj
 0001:0008eef4       ?InitKeyboardManager@CWinAppEx@@QAEHXZ 0048fef4 f   uafxcw:afxwinappex.obj
 0001:0008ef41       ?InitShellManager@CWinAppEx@@QAEHXZ 0048ff41 f   uafxcw:afxwinappex.obj
 0001:0008ef8f       ?InitTooltipManager@CWinAppEx@@QAEHXZ 0048ff8f f   uafxcw:afxwinappex.obj
 0001:0008efdf       ?LoadState@CWinAppEx@@QAEHPAVCFrameWndEx@@PB_W@Z 0048ffdf f   uafxcw:afxwinappex.obj
 0001:0008effa       ?LoadState@CWinAppEx@@QAEHPAVCMDIFrameWndEx@@PB_W@Z 0048fffa f   uafxcw:afxwinappex.obj
 0001:0008f015       ?LoadState@CWinAppEx@@UAEHPB_WPAVCFrameImpl@@@Z 00490015 f   uafxcw:afxwinappex.obj
 0001:0008f414       ?LoadWindowPlacement@CWinAppEx@@MAEHAAVCRect@@AAH1@Z 00490414 f   uafxcw:afxwinappex.obj
 0001:0008f4cc       ?OnAppContextHelp@CWinAppEx@@UAEXPAVCWnd@@QBK@Z 004904cc f   uafxcw:afxwinappex.obj
 0001:0008f4e7       ?OnClosingMainFrame@CWinAppEx@@MAEXPAVCFrameImpl@@@Z 004904e7 f   uafxcw:afxwinappex.obj
 0001:0008f4fb       ?OnViewDoubleClick@CWinAppEx@@UAEHPAVCWnd@@H@Z 004904fb f   uafxcw:afxwinappex.obj
 0001:0008f575       ?ReloadWindowPlacement@CWinAppEx@@MAEHPAVCFrameWnd@@@Z 00490575 f   uafxcw:afxwinappex.obj
 0001:0008f722       ?SaveState@CWinAppEx@@UAEHPB_WPAVCFrameImpl@@@Z 00490722 f   uafxcw:afxwinappex.obj
 0001:0008f998       ?ShowPopupMenu@CWinAppEx@@UAEHIABVCPoint@@PAVCWnd@@@Z 00490998 f   uafxcw:afxwinappex.obj
 0001:0008f9c4       ?StoreWindowPlacement@CWinAppEx@@MAEHABVCRect@@HH@Z 004909c4 f   uafxcw:afxwinappex.obj
 0001:0008fa7b       ?WriteInt@CWinAppEx@@QAEHPB_WH@Z 00490a7b f   uafxcw:afxwinappex.obj
 0001:0008fa92       ?WriteSectionInt@CWinAppEx@@QAEHPB_W0H@Z 00490a92 f   uafxcw:afxwinappex.obj
 0001:0008fb45       ??0CMFCPopupMenu@@IAE@PAVCMFCToolBarsMenuPropertyPage@@PB_W@Z 00490b45 f   uafxcw:afxpopupmenu.obj
 0001:0008fcb0       ??0CMFCPopupMenu@@QAE@XZ   00490cb0 f   uafxcw:afxpopupmenu.obj
 0001:0008fe19       ??0CMFCShadowWnd@@AAE@PAVCMFCPopupMenu@@H@Z 00490e19 f i uafxcw:afxpopupmenu.obj
 0001:0008fe67       ??1CMFCPopupMenu@@UAE@XZ   00490e67 f   uafxcw:afxpopupmenu.obj
 0001:0008ff7b       ??1CMFCShadowWnd@@EAE@XZ   00490f7b f i uafxcw:afxpopupmenu.obj
 0001:0008ffb2       ??_ECMFCPopupMenu@@UAEPAXI@Z 00490fb2 f i uafxcw:afxpopupmenu.obj
 0001:0008ffb2       ??_GCMFCPopupMenu@@UAEPAXI@Z 00490fb2 f i uafxcw:afxpopupmenu.obj
 0001:0008ffd1       ??_ECMFCShadowWnd@@EAEPAXI@Z 00490fd1 f i uafxcw:afxpopupmenu.obj
 0001:0008ffd1       ??_GCMFCShadowWnd@@EAEPAXI@Z 00490fd1 f i uafxcw:afxpopupmenu.obj
 0001:0008fff0       ?ActivatePopupMenu@CMFCPopupMenu@@SGHPAVCFrameWnd@@PAV1@@Z 00490ff0 f   uafxcw:afxpopupmenu.obj
 0001:00090151       ?AdjustScroll@CMFCPopupMenu@@IAEHH@Z 00491151 f   uafxcw:afxpopupmenu.obj
 0001:00090419       ?CheckArea@CMFCPopupMenu@@QBE?AW4MENUAREA_TYPE@1@ABVCPoint@@@Z 00491419 f   uafxcw:afxpopupmenu.obj
 0001:00090558       ?CloseMenu@CMFCPopupMenu@@QAEXH@Z 00491558 f   uafxcw:afxpopupmenu.obj
 0001:000905f8       ?CollapseSubmenus@CMFCPopupMenu@@IAEXXZ 004915f8 f   uafxcw:afxpopupmenu.obj
 0001:00090645       ?Create@CMFCPopupMenu@@UAEHPAVCWnd@@HHPAUHMENU__@@HH@Z 00491645 f   uafxcw:afxpopupmenu.obj
 0001:000909ae       ?Create@CMFCShadowWnd@@UAEHXZ 004919ae f   uafxcw:afxpopupmenu.obj
 0001:00090a88       ?CreateTearOffBar@CMFCPopupMenu@@MAEPAVCPane@@PAVCFrameWnd@@IPB_W@Z 00491a88 f   uafxcw:afxpopupmenu.obj
 0001:00090db4       ?DoPaint@CMFCPopupMenu@@MAEXPAVCDC@@@Z 00491db4 f   uafxcw:afxpopupmenu.obj
 0001:00091299       ?DrawFade@CMFCPopupMenu@@MAEXPAVCDC@@@Z 00492299 f   uafxcw:afxpopupmenu.obj
 0001:000916a6       ?EnableResize@CMFCPopupMenu@@QAEXVCSize@@@Z 004926a6 f   uafxcw:afxpopupmenu.obj
 0001:000916ea       ?EnableVertResize@CMFCPopupMenu@@QAEXH@Z 004926ea f   uafxcw:afxpopupmenu.obj
 0001:0009170e       ?FindMenuWithConnectedFloaty@CMFCPopupMenu@@KGPAV1@XZ 0049270e f   uafxcw:afxpopupmenu.obj
 0001:0009174e       ?GetBorderSize@CMFCPopupMenu@@MBEHXZ 0049274e f   uafxcw:afxpopupmenu.obj
 0001:0009175d       ?GetMenuBar@CMFCPopupMenu@@UAEPAVCMFCPopupMenuBar@@XZ 0049275d f i uafxcw:afxpopupmenu.obj
 0001:00091764       ?GetMenuItem@CMFCPopupMenu@@QBEPAVCMFCToolBarMenuButton@@H@Z 00492764 f   uafxcw:afxpopupmenu.obj
 0001:00091777       ?GetMenuItemCount@CMFCPopupMenu@@QBEHXZ 00492777 f   uafxcw:afxpopupmenu.obj
 0001:00091786       ?GetMessageMap@CMFCShadowWnd@@MBEPBUAFX_MSGMAP@@XZ 00492786 f   uafxcw:afxpopupmenu.obj
 0001:0009178c       ?GetParentArea@CMFCPopupMenu@@UAEPAVCWnd@@AAVCRect@@@Z 0049278c f   uafxcw:afxpopupmenu.obj
 0001:000917e8       ?GetParentPopupMenu@CMFCPopupMenu@@QBEPAV1@XZ 004927e8 f   uafxcw:afxpopupmenu.obj
 0001:00091832       ?GetParentToolBar@CMFCPopupMenu@@QBEPAVCMFCToolBar@@XZ 00492832 f   uafxcw:afxpopupmenu.obj
 0001:0009184d       ?GetRuntimeClass@CMFCPopupMenu@@UBEPAUCRuntimeClass@@XZ 0049284d f   uafxcw:afxpopupmenu.obj
 0001:00091853       ?GetSafeActivePopupMenu@CMFCPopupMenu@@SGPAV1@XZ 00492853 f   uafxcw:afxpopupmenu.obj
 0001:00091883       ?GetSelItem@CMFCPopupMenu@@QAEPAVCMFCToolBarMenuButton@@XZ 00492883 f   uafxcw:afxpopupmenu.obj
 0001:000918a0       ?GetMessageMap@CMFCPopupMenu@@MBEPBUAFX_MSGMAP@@XZ 004928a0 f   uafxcw:afxpopupmenu.obj
 0001:000918a0       ?GetThisMessageMap@CMFCPopupMenu@@KGPBUAFX_MSGMAP@@XZ 004928a0 f   uafxcw:afxpopupmenu.obj
 0001:000918a6       ?HideRarelyUsedCommands@CMFCPopupMenu@@QBEHXZ 004928a6 f   uafxcw:afxpopupmenu.obj
 0001:000918b2       ?InCommand@CMFCPopupMenu@@UAEHXZ 004928b2 f i uafxcw:afxpopupmenu.obj
 0001:000918c6       ?InitMenuBar@CMFCPopupMenu@@MAEHXZ 004928c6 f   uafxcw:afxpopupmenu.obj
 0001:00091ea4       ?Initialize@CMFCPopupMenu@@IAEXXZ 00492ea4 f   uafxcw:afxpopupmenu.obj
 0001:000920c7       ?InsertItem@CMFCPopupMenu@@QAEHABVCMFCToolBarMenuButton@@H@Z 004930c7 f   uafxcw:afxpopupmenu.obj
 0001:000920dd       ?InsertSeparator@CMFCPopupMenu@@QAEHH@Z 004930dd f   uafxcw:afxpopupmenu.obj
 0001:000920f3       ?IsIdle@CMFCPopupMenu@@UBEHXZ 004930f3 f i uafxcw:afxpopupmenu.obj
 0001:00092107       ?IsScrollDnAvailable@CMFCPopupMenu@@MAEHXZ 00493107 f   uafxcw:afxpopupmenu.obj
 0001:00092181       ?IsScrollUpAvailable@CMFCPopupMenu@@MAEHXZ 00493181 f   uafxcw:afxpopupmenu.obj
 0001:00092197       ?NotifyParentDlg@CMFCPopupMenu@@IAEHH@Z 00493197 f   uafxcw:afxpopupmenu.obj
 0001:00092216       ?OnActivateApp@CMFCPopupMenu@@IAEXHK@Z 00493216 f   uafxcw:afxpopupmenu.obj
 0001:0009225b       ?OnCmdMsg@CMFCPopupMenu@@UAEHIHPAXPAUAFX_CMDHANDLERINFO@@@Z 0049325b f   uafxcw:afxpopupmenu.obj
 0001:00092293       ?OnCreate@CMFCPopupMenu@@IAEHPAUtagCREATESTRUCTW@@@Z 00493293 f   uafxcw:afxpopupmenu.obj
 0001:000923f9       ?OnDestroy@CMFCPopupMenu@@IAEXXZ 004933f9 f   uafxcw:afxpopupmenu.obj
 0001:000926ef       ?OnKeyDown@CMFCPopupMenu@@IAEXIII@Z 004936ef f   uafxcw:afxpopupmenu.obj
 0001:00092a8f       ?OnLButtonDown@CMFCPopupMenu@@IAEXIVCPoint@@@Z 00493a8f f   uafxcw:afxpopupmenu.obj
 0001:00092af0       ?OnLButtonUp@CMFCPopupMenu@@IAEXIVCPoint@@@Z 00493af0 f   uafxcw:afxpopupmenu.obj
 0001:00092b2d       ?OnMouseActivate@CMFCPopupMenu@@IAEHPAVCWnd@@II@Z 00493b2d f   uafxcw:afxpopupmenu.obj
 0001:00092b2d       ?OnMouseActivate@CMFCDropDownFrame@@IAEHPAVCWnd@@II@Z 00493b2d f   uafxcw:afxdropdowntoolbar.obj
 0001:00092b2d       ?OnMouseActivate@CMFCRibbonKeyTip@@IAEHPAVCWnd@@II@Z 00493b2d f   uafxcw:afxribbonkeytip.obj
 0001:00092b33       ?OnMouseMove@CMFCPopupMenu@@IAEXIVCPoint@@@Z 00493b33 f   uafxcw:afxpopupmenu.obj
 0001:00092c30       ?OnMouseWheel@CMFCPopupMenu@@IAEHIFVCPoint@@@Z 00493c30 f   uafxcw:afxpopupmenu.obj
 0001:00092c8e       ?OnNcHitTest@CMFCPopupMenu@@IAEJVCPoint@@@Z 00493c8e f   uafxcw:afxpopupmenu.obj
 0001:00092d71       ?OnNcLButtonDown@CMFCPopupMenu@@IAEXIVCPoint@@@Z 00493d71 f   uafxcw:afxpopupmenu.obj
 0001:00092db1       ?OnNotify@CMFCPopupMenu@@MAEHIJPAJ@Z 00493db1 f   uafxcw:afxpopupmenu.obj
 0001:00092e19       ?OnPaint@CMFCPopupMenu@@IAEXXZ 00493e19 f   uafxcw:afxpopupmenu.obj
 0001:00092e76       ?OnSetCursor@CMFCPopupMenu@@IAEHPAVCWnd@@II@Z 00493e76 f   uafxcw:afxpopupmenu.obj
 0001:00092f0e       ?OnShowWindow@CMFCPopupMenu@@IAEXHI@Z 00493f0e f   uafxcw:afxpopupmenu.obj
 0001:00092f2b       ?OnSize@CMFCPopupMenu@@IAEXIHH@Z 00493f2b f   uafxcw:afxpopupmenu.obj
 0001:00093028       ?OnSize@CMFCShadowWnd@@IAEXIHH@Z 00494028 f   uafxcw:afxpopupmenu.obj
 0001:00093177       ?OnTimer@CMFCPopupMenu@@IAEXI@Z 00494177 f   uafxcw:afxpopupmenu.obj
 0001:0009341a       ?OnVScroll@CMFCPopupMenu@@IAEXIIPAVCScrollBar@@@Z 0049441a f   uafxcw:afxpopupmenu.obj
 0001:00093592       ?OnWindowPosChanged@CMFCPopupMenu@@IAEXPAUtagWINDOWPOS@@@Z 00494592 f   uafxcw:afxpopupmenu.obj
 0001:000935db       ?PostCommand@CMFCPopupMenu@@QAEHI@Z 004945db f   uafxcw:afxpopupmenu.obj
 0001:0009361d       ?PostNcDestroy@CMFCPopupMenu@@MAEXXZ 0049461d f   uafxcw:afxpopupmenu.obj
 0001:00093649       ?PreTranslateMessage@CMFCPopupMenu@@UAEHPAUtagMSG@@@Z 00494649 f   uafxcw:afxpopupmenu.obj
 0001:00093718       ?RecalcLayout@CMFCPopupMenu@@UAEXH@Z 00494718 f   uafxcw:afxpopupmenu.obj
 0001:0009461a       ?RemoveAllItems@CMFCPopupMenu@@QAEXXZ 0049561a f   uafxcw:afxpopupmenu.obj
 0001:0009462c       ?RemoveItem@CMFCPopupMenu@@QAEHH@Z 0049562c f   uafxcw:afxpopupmenu.obj
 0001:00094642       ?Repos@CMFCShadowWnd@@AAEXXZ 00495642 f   uafxcw:afxpopupmenu.obj
 0001:0009473e       ?SaveState@CMFCPopupMenu@@UAEXXZ 0049573e f   uafxcw:afxpopupmenu.obj
 0001:000947ab       ?SetOffset@CMFCPopupMenuBar@@QAEXH@Z 004957ab f i uafxcw:afxpopupmenu.obj
 0001:000947cb       ?SetParentRibbonElement@CMFCPopupMenu@@QAEXPAVCMFCRibbonBaseElement@@@Z 004957cb f   uafxcw:afxpopupmenu.obj
 0001:000947e1       ?SetQuickMode@CMFCPopupMenu@@QAEXXZ 004957e1 f   uafxcw:afxpopupmenu.obj
 0001:00094801       ?SetScrollBar@CMFCPopupMenu@@IAEXXZ 00495801 f   uafxcw:afxpopupmenu.obj
 0001:00094a20       ?ShowAllCommands@CMFCPopupMenu@@QAEXXZ 00495a20 f   uafxcw:afxpopupmenu.obj
 0001:00094b1a       ?StartResize@CMFCPopupMenu@@IAEHXZ 00495b1a f   uafxcw:afxpopupmenu.obj
 0001:00094e4f       ?TearOff@CMFCPopupMenu@@MAEHVCPoint@@@Z 00495e4f f   uafxcw:afxpopupmenu.obj
 0001:00095169       ?TriggerResize@CMFCPopupMenu@@QAEXXZ 00496169 f   uafxcw:afxpopupmenu.obj
 0001:000951cb       ?UpdateAllShadows@CMFCPopupMenu@@SGXPAUtagRECT@@@Z 004961cb f   uafxcw:afxpopupmenu.obj
 0001:00095200       ?UpdateBottomWindows@CMFCPopupMenu@@IAEXH@Z 00496200 f   uafxcw:afxpopupmenu.obj
 0001:00095327       ?UpdateShadow@CMFCPopupMenu@@QAEXPAUtagRECT@@@Z 00496327 f   uafxcw:afxpopupmenu.obj
 0001:0009572e       ?get_accChild@CMFCPopupMenu@@MAEJUtagVARIANT@@PAPAUIDispatch@@@Z 0049672e f   uafxcw:afxpopupmenu.obj
 0001:0009577f       ?get_accChildCount@CMFCPopupMenu@@MAEJPAJ@Z 0049677f f   uafxcw:afxpopupmenu.obj
 0001:000957b5       ?get_accName@CMFCPopupMenu@@MAEJUtagVARIANT@@PAPA_W@Z 004967b5 f   uafxcw:afxpopupmenu.obj
 0001:00095869       ?get_accParent@CMFCPopupMenu@@MAEJPAPAUIDispatch@@@Z 00496869 f   uafxcw:afxpopupmenu.obj
 0001:000958bb       ?get_accRole@CMFCPopupMenu@@MAEJUtagVARIANT@@PAU2@@Z 004968bb f   uafxcw:afxpopupmenu.obj
 0001:00095919       ?get_accState@CMFCPopupMenu@@MAEJUtagVARIANT@@PAU2@@Z 00496919 f   uafxcw:afxpopupmenu.obj
 0001:00095977       ??0CFrameImpl@@QAE@PAVCFrameWnd@@@Z 00496977 f   uafxcw:afxframeimpl.obj
 0001:00095a70       ??1CFrameImpl@@UAE@XZ      00496a70 f   uafxcw:afxframeimpl.obj
 0001:00095b33       ??_G?$CList@PAVCFrameWnd@@PAV1@@@UAEPAXI@Z 00496b33 f i uafxcw:afxframeimpl.obj
 0001:00095b33       ??_E?$CList@PAVCFrameWnd@@PAV1@@@UAEPAXI@Z 00496b33 f i uafxcw:afxframeimpl.obj
 0001:00095b58       ??_GCFrameImpl@@UAEPAXI@Z  00496b58 f i uafxcw:afxframeimpl.obj
 0001:00095b58       ??_ECFrameImpl@@UAEPAXI@Z  00496b58 f i uafxcw:afxframeimpl.obj
 0001:00095b77       ?AddDefaultButtonsToCustomizePane@CFrameImpl@@IAEXPAVCMFCPopupMenu@@I@Z 00496b77 f   uafxcw:afxframeimpl.obj
 0001:00095dab       ?AddFrame@CFrameImpl@@SGXPAVCFrameWnd@@@Z 00496dab f   uafxcw:afxframeimpl.obj
 0001:00095ded       ?AddTearOffToolbar@CFrameImpl@@IAEXPAVCBasePane@@@Z 00496ded f   uafxcw:afxframeimpl.obj
 0001:00095df9       ?CreateNewToolBar@CFrameImpl@@IAEPBVCMFCToolBar@@PB_W@Z 00496df9 f   uafxcw:afxframeimpl.obj
 0001:00095f77       ?DeactivateMenu@CFrameImpl@@IAEXXZ 00496f77 f   uafxcw:afxframeimpl.obj
 0001:00095fc4       ?DeleteToolBar@CFrameImpl@@IAEHPAVCMFCToolBar@@@Z 00496fc4 f   uafxcw:afxframeimpl.obj
 0001:00096063       ?GetCaptionRect@CFrameImpl@@IAE?AVCRect@@XZ 00497063 f   uafxcw:afxframeimpl.obj
 0001:00096185       ?GetFreeCtrlBarID@CFrameImpl@@KGIIIABVCObList@@@Z 00497185 f   uafxcw:afxframeimpl.obj
 0001:000961ea       ?GetShellAutohideBars@AFX_GLOBAL_DATA@@QAEHXZ 004971ea f i uafxcw:afxframeimpl.obj
 0001:000962a6       ?GetSysButton@CFrameImpl@@IAEPAVCMFCCaptionButtonEx@@I@Z 004972a6 f   uafxcw:afxframeimpl.obj
 0001:000962e4       ?GetUserToolBarByIndex@CFrameImpl@@IBEPAVCMFCToolBar@@H@Z 004972e4 f   uafxcw:afxframeimpl.obj
 0001:000962fd       ?InitUserToolbars@CFrameImpl@@IAEXPB_WII@Z 004972fd f   uafxcw:afxframeimpl.obj
 0001:00096410       ?IsCustomizePane@CFrameImpl@@IBEHPBVCMFCPopupMenu@@@Z 00497410 f   uafxcw:afxframeimpl.obj
 0001:000964b2       ?IsEditFocused@CMFCDropDownListBox@@QBEHXZ 004974b2 f i uafxcw:afxframeimpl.obj
 0001:000964d1       ?IsHelpKey@CFrameImpl@@KGHPAUtagMSG@@@Z 004974d1 f   uafxcw:afxframeimpl.obj
 0001:0009651f       ?IsPrintPreview@CFrameImpl@@IAEHXZ 0049751f f   uafxcw:afxframeimpl.obj
 0001:00096535       ?IsUserDefinedToolbar@CFrameImpl@@IBEHPBVCMFCToolBar@@@Z 00497535 f   uafxcw:afxframeimpl.obj
 0001:00096559       ?LoadDockState@CFrameImpl@@IAEXPB_W@Z 00497559 f   uafxcw:afxframeimpl.obj
 0001:0009657d       ?LoadLargeIconsState@CFrameImpl@@IAEHXZ 0049757d f   uafxcw:afxframeimpl.obj
 0001:000965d6       ?LoadTearOffMenus@CFrameImpl@@IAEXXZ 004975d6 f   uafxcw:afxframeimpl.obj
 0001:000968dd       ?LoadUserToolbars@CFrameImpl@@IAEXXZ 004978dd f   uafxcw:afxframeimpl.obj
 0001:000969c1       ?OnActivateApp@CFrameImpl@@IAEXH@Z 004979c1 f   uafxcw:afxframeimpl.obj
 0001:00096a49       ?OnChangeVisualManager@CFrameImpl@@QAEXXZ 00497a49 f   uafxcw:afxframeimpl.obj
 0001:00096d07       ?OnCloseFrame@CFrameImpl@@IAEXXZ 00497d07 f   uafxcw:afxframeimpl.obj
 0001:00096d70       ?OnCompositionChanged@CFrameImpl@@IAEXXZ 00497d70 f   uafxcw:afxframeimpl.obj
 0001:00096da9       ?OnGetMinMaxInfo@CFrameImpl@@IAEXPAUtagMINMAXINFO@@@Z 00497da9 f   uafxcw:afxframeimpl.obj
 0001:00097022       ?OnLButtonDown@CFrameImpl@@IAEXVCPoint@@@Z 00498022 f   uafxcw:afxframeimpl.obj
 0001:00097050       ?OnLButtonUp@CFrameImpl@@IAEXVCPoint@@@Z 00498050 f   uafxcw:afxframeimpl.obj
 0001:000970fa       ?OnLoadFrame@CFrameImpl@@IAEXXZ 004980fa f   uafxcw:afxframeimpl.obj
 0001:00097183       ?OnMenuChar@CFrameImpl@@IAEHI@Z 00498183 f   uafxcw:afxframeimpl.obj
 0001:00097298       ?OnMouseMove@CFrameImpl@@IAEXVCPoint@@@Z 00498298 f   uafxcw:afxframeimpl.obj
 0001:000972dc       ?OnNcActivate@CFrameImpl@@IAEHH@Z 004982dc f   uafxcw:afxframeimpl.obj
 0001:0009743f       ?OnNcCalcSize@CFrameImpl@@IAEHHPAUtagNCCALCSIZE_PARAMS@@@Z 0049843f f   uafxcw:afxframeimpl.obj
 0001:000975ce       ?OnNcHitTest@CFrameImpl@@IAEIVCPoint@@@Z 004985ce f   uafxcw:afxframeimpl.obj
 0001:0009777d       ?OnNcMouseMove@CFrameImpl@@IAEXIVCPoint@@@Z 0049877d f   uafxcw:afxframeimpl.obj
 0001:000977a4       ?OnNcPaint@CFrameImpl@@IAEHXZ 004987a4 f   uafxcw:afxframeimpl.obj
 0001:0009784b       ?OnSetText@CFrameImpl@@IAEXPB_W@Z 0049884b f   uafxcw:afxframeimpl.obj
 0001:00097889       ?OnShowCustomizePane@CFrameImpl@@IAEHPAVCMFCPopupMenu@@I@Z 00498889 f   uafxcw:afxframeimpl.obj
 0001:00097928       ?OnShowPopupMenu@CFrameImpl@@IAEHPAVCMFCPopupMenu@@PAVCFrameWnd@@@Z 00498928 f   uafxcw:afxframeimpl.obj
 0001:00097ab0       ?OnTrackCaptionButtons@CFrameImpl@@IAEXVCPoint@@@Z 00498ab0 f   uafxcw:afxframeimpl.obj
 0001:00097b5d       ?OnWindowPosChanging@CFrameImpl@@IAEXPAUtagWINDOWPOS@@@Z 00498b5d f   uafxcw:afxframeimpl.obj
 0001:00097be5       ?ProcessKeyboard@CFrameImpl@@IAEHHPAH@Z 00498be5 f   uafxcw:afxframeimpl.obj
 0001:00097e72       ?ProcessMouseClick@CFrameImpl@@IAEHIUtagPOINT@@PAUHWND__@@@Z 00498e72 f   uafxcw:afxframeimpl.obj
 0001:00098442       ?ProcessMouseMove@CFrameImpl@@IAEHUtagPOINT@@@Z 00499442 f   uafxcw:afxframeimpl.obj
 0001:0009852a       ?ProcessMouseWheel@CFrameImpl@@IAEHIJ@Z 0049952a f   uafxcw:afxframeimpl.obj
 0001:000985e6       ?RedrawCaptionButton@CFrameImpl@@IAEXPAVCMFCCaptionButtonEx@@@Z 004995e6 f   uafxcw:afxframeimpl.obj
 0001:0009865d       ?RemoveFrame@CFrameImpl@@SGXPAVCFrameWnd@@@Z 0049965d f   uafxcw:afxframeimpl.obj
 0001:000986a7       ?RemoveTearOffToolbar@CFrameImpl@@IAEXPAVCBasePane@@@Z 004996a7 f   uafxcw:afxframeimpl.obj
 0001:000986cb       ?RestorePosition@CFrameImpl@@IAEXAAUtagCREATESTRUCTW@@@Z 004996cb f   uafxcw:afxframeimpl.obj
 0001:00098851       ?SaveDockState@CFrameImpl@@IAEXPB_W@Z 00499851 f   uafxcw:afxframeimpl.obj
 0001:0009886f       ?SaveTearOffMenus@CFrameImpl@@IAEXH@Z 0049986f f   uafxcw:afxframeimpl.obj
 0001:00098b1e       ?SaveUserToolbars@CFrameImpl@@IAEXH@Z 00499b1e f   uafxcw:afxframeimpl.obj
 0001:00098b77       ?SetDockState@CFrameImpl@@IAEXABVCDockState@@@Z 00499b77 f   uafxcw:afxframeimpl.obj
 0001:00098b89       ?SetMenuBar@CFrameImpl@@IAEXPAVCMFCMenuBar@@@Z 00499b89 f   uafxcw:afxframeimpl.obj
 0001:00098c04       ?ShowQuickCustomizePane@CFrameImpl@@IAEXPAVCMFCPopupMenu@@@Z 00499c04 f   uafxcw:afxframeimpl.obj
 0001:00098f90       ?StopCaptionButtonsTracking@CFrameImpl@@IAEXXZ 00499f90 f   uafxcw:afxframeimpl.obj
 0001:00098fed       ?StoreWindowPlacement@CFrameImpl@@IAEXXZ 00499fed f   uafxcw:afxframeimpl.obj
 0001:000990b1       ?UpdateCaption@CFrameImpl@@IAEXXZ 0049a0b1 f   uafxcw:afxframeimpl.obj
 0001:000992ad       ??$SerializeElements@UAFX_AUTOHIDE_DOCKSITE_SAVE_INFO@@@@YGXAAVCArchive@@PAUAFX_AUTOHIDE_DOCKSITE_SAVE_INFO@@H@Z 0049a2ad f i uafxcw:afxdockingmanager.obj
 0001:00099346       ??0?$CList@IAAI@@QAE@H@Z   0049a346 f i uafxcw:afxdockingmanager.obj
 0001:0009936c       ??0?$CList@PAUHWND__@@AAPAU1@@@QAE@H@Z 0049a36c f i uafxcw:afxdockingmanager.obj
 0001:00099392       ??0?$CList@UAFX_AUTOHIDE_DOCKSITE_SAVE_INFO@@AAU1@@@QAE@H@Z 0049a392 f i uafxcw:afxdockingmanager.obj
 0001:000993b8       ??0?$CMap@IIPAVCPane@@PAV1@@@QAE@H@Z 0049a3b8 f i uafxcw:afxdockingmanager.obj
 0001:000993e2       ??0AFX_AUTOHIDE_DOCKSITE_SAVE_INFO@@QAE@XZ 0049a3e2 f i uafxcw:afxdockingmanager.obj
 0001:00099426       ??0CDockingManager@@QAE@XZ 0049a426 f   uafxcw:afxdockingmanager.obj
 0001:000995ed       ??0CSmartDockingInfo@@QAE@XZ 0049a5ed f   uafxcw:afxdockingmanager.obj
 0001:00099637       ??1?$CList@IAAI@@UAE@XZ    0049a637 f i uafxcw:afxdockingmanager.obj
 0001:00099642       ??1?$CList@PAUHWND__@@AAPAU1@@@UAE@XZ 0049a642 f i uafxcw:afxdockingmanager.obj
 0001:0009964d       ??1?$CList@UAFX_AUTOHIDE_DOCKSITE_SAVE_INFO@@AAU1@@@UAE@XZ 0049a64d f i uafxcw:afxdockingmanager.obj
 0001:00099658       ??1?$CMap@IIPAVCPane@@PAV1@@@UAE@XZ 0049a658 f i uafxcw:afxdockingmanager.obj
 0001:00099663       ??1AFX_AUTOHIDE_DOCKSITE_SAVE_INFO@@QAE@XZ 0049a663 f i uafxcw:afxdockingmanager.obj
 0001:00099671       ??1CDockingManager@@UAE@XZ 0049a671 f   uafxcw:afxdockingmanager.obj
 0001:0009977a       ??_G?$CList@IAAI@@UAEPAXI@Z 0049a77a f i uafxcw:afxdockingmanager.obj
 0001:0009977a       ??_E?$CList@IAAI@@UAEPAXI@Z 0049a77a f i uafxcw:afxdockingmanager.obj
 0001:0009979f       ??_E?$CList@PAUHWND__@@AAPAU1@@@UAEPAXI@Z 0049a79f f i uafxcw:afxdockingmanager.obj
 0001:0009979f       ??_G?$CList@PAUHWND__@@AAPAU1@@@UAEPAXI@Z 0049a79f f i uafxcw:afxdockingmanager.obj
 0001:000997c4       ??_G?$CList@UAFX_AUTOHIDE_DOCKSITE_SAVE_INFO@@AAU1@@@UAEPAXI@Z 0049a7c4 f i uafxcw:afxdockingmanager.obj
 0001:000997c4       ??_E?$CList@UAFX_AUTOHIDE_DOCKSITE_SAVE_INFO@@AAU1@@@UAEPAXI@Z 0049a7c4 f i uafxcw:afxdockingmanager.obj
 0001:000997e9       ??_E?$CMap@IIPAVCPane@@PAV1@@@UAEPAXI@Z 0049a7e9 f i uafxcw:afxdockingmanager.obj
 0001:000997e9       ??_G?$CMap@IIPAVCPane@@PAV1@@@UAEPAXI@Z 0049a7e9 f i uafxcw:afxdockingmanager.obj
 0001:0009980e       ??_GAFX_AUTOHIDE_DOCKSITE_SAVE_INFO@@QAEPAXI@Z 0049a80e f i uafxcw:afxdockingmanager.obj
 0001:00099836       ??_GCDockingManager@@UAEPAXI@Z 0049a836 f i uafxcw:afxdockingmanager.obj
 0001:00099836       ??_ECDockingManager@@UAEPAXI@Z 0049a836 f i uafxcw:afxdockingmanager.obj
 0001:00099855       ??_GCSmartDockingInfo@@UAEPAXI@Z 0049a855 f i uafxcw:afxdockingmanager.obj
 0001:00099855       ??_GCCellObj@@UAEPAXI@Z    0049a855 f i uafxcw:afxcolorpickerctrl.obj
 0001:00099855       ??_ECCellObj@@UAEPAXI@Z    0049a855 f i uafxcw:afxcolorpickerctrl.obj
 0001:00099855       ??_ECSmartDockingInfo@@UAEPAXI@Z 0049a855 f i uafxcw:afxdockingmanager.obj
 0001:0009986f       ?AddDockSite@CDockingManager@@QAEHABUAFX_DOCKSITE_INFO@@PAPAVCDockSite@@@Z 0049a86f f   uafxcw:afxdockingmanager.obj
 0001:000998fd       ?AddHiddenMDITabbedBar@CDockingManager@@QAEXPAVCDockablePane@@@Z 0049a8fd f   uafxcw:afxdockingmanager.obj
 0001:00099925       ?AddMiniFrame@CDockingManager@@UAEHPAVCPaneFrameWnd@@@Z 0049a925 f   uafxcw:afxdockingmanager.obj
 0001:00099955       ?AddPane@CDockingManager@@QAEHPAVCBasePane@@HHH@Z 0049a955 f   uafxcw:afxdockingmanager.obj
 0001:00099a0d       ?AddTail@?$CList@PAUHWND__@@AAPAU1@@@QAEPAU__POSITION@@AAPAUHWND__@@@Z 0049aa0d f i uafxcw:afxdockingmanager.obj
 0001:00099a0d       ?AddTail@?$CList@IAAI@@QAEPAU__POSITION@@AAI@Z 0049aa0d f i uafxcw:afxdockingmanager.obj
 0001:00099a3b       ?AddTail@?$CList@IAAI@@QAEXPAV1@@Z 0049aa3b f i uafxcw:afxdockingmanager.obj
 0001:00099a6d       ?AddTail@?$CList@UAFX_AUTOHIDE_DOCKSITE_SAVE_INFO@@AAU1@@@QAEPAU__POSITION@@AAUAFX_AUTOHIDE_DOCKSITE_SAVE_INFO@@@Z 0049aa6d f i uafxcw:afxdockingmanager.obj
 0001:00099aa4       ?AdjustDockingLayout@CDockingManager@@UAEXPAX@Z 0049aaa4 f   uafxcw:afxdockingmanager.obj
 0001:00099fe6       ?AdjustPaneFrames@CDockingManager@@UAEXXZ 0049afe6 f   uafxcw:afxdockingmanager.obj
 0001:0009a068       ?AdjustRectToClientArea@CDockingManager@@UAEHAAVCRect@@K@Z 0049b068 f   uafxcw:afxdockingmanager.obj
 0001:0009a156       ?AlignAutoHidePane@CDockingManager@@QAEXPAVCPaneDivider@@H@Z 0049b156 f   uafxcw:afxdockingmanager.obj
 0001:0009a421       ?AlignByRect@CDockingManager@@IAEXABVCRect@@AAV2@KHH@Z 0049b421 f   uafxcw:afxdockingmanager.obj
 0001:0009a582       ?AutoHidePane@CDockingManager@@QAEPAVCMFCAutoHideBar@@PAVCDockablePane@@PAV2@@Z 0049b582 f   uafxcw:afxdockingmanager.obj
 0001:0009a6ca       ?BringBarsToTop@CDockingManager@@QAEXKH@Z 0049b6ca f   uafxcw:afxdockingmanager.obj
 0001:0009a74d       ?BuildPanesMenu@CDockingManager@@QAEXAAVCMenu@@H@Z 0049b74d f   uafxcw:afxdockingmanager.obj
 0001:0009ad4d       ?CalcExpectedDockedRect@CDockingManager@@QAEXPAVCWnd@@VCPoint@@AAVCRect@@AAHPAPAVCDockablePane@@@Z 0049bd4d f   uafxcw:afxdockingmanager.obj
 0001:0009b016       ?CalcPaneOffset@CDockingManager@@IAEXPAVCAutoHideDockSite@@@Z 0049c016 f   uafxcw:afxdockingmanager.obj
 0001:0009b212       ?Copy@AFX_AUTOHIDE_DOCKSITE_SAVE_INFO@@QAEAAU1@AAU1@@Z 0049c212 f i uafxcw:afxdockingmanager.obj
 0001:0009b273       ?Create@CDockingManager@@QAEHPAVCFrameWnd@@@Z 0049c273 f   uafxcw:afxdockingmanager.obj
 0001:0009b286       ?DeterminePaneAndStatus@CDockingManager@@UAE?AW4AFX_CS_STATUS@@VCPoint@@HKPAPAVCBasePane@@PBV4@2@Z 0049c286 f   uafxcw:afxdockingmanager.obj
 0001:0009b3f0       ?DockPane@CDockingManager@@QAEXPAVCBasePane@@IPBUtagRECT@@@Z 0049c3f0 f   uafxcw:afxdockingmanager.obj
 0001:0009b548       ?EnableAutoHidePanes@CDockingManager@@QAEHK@Z 0049c548 f   uafxcw:afxdockingmanager.obj
 0001:0009b67e       ?EnableDocking@CDockingManager@@QAEHK@Z 0049c67e f   uafxcw:afxdockingmanager.obj
 0001:0009b770       ?EnablePaneContextMenu@CDockingManager@@QAEXHIABV?$CStringT@_WV?$StrTraitMFC@_WV?$ChTraitsCRT@_W@ATL@@@@@ATL@@H@Z 0049c770 f   uafxcw:afxdockingmanager.obj
 0001:0009b7a0       ?Find@?$CList@PAUHWND__@@AAPAU1@@@QBEPAU__POSITION@@AAPAUHWND__@@PAU2@@Z 0049c7a0 f i uafxcw:afxdockingmanager.obj
 0001:0009b7d1       ?FindDockSite@CDockingManager@@UAEPAVCDockSite@@KH@Z 0049c7d1 f   uafxcw:afxdockingmanager.obj
 0001:0009b84f       ?FindDockSiteByPane@CDockingManager@@UAEPAVCDockSite@@PAVCPane@@@Z 0049c84f f   uafxcw:afxdockingmanager.obj
 0001:0009b8b0       ?FindPaneByID@CDockingManager@@UAEPAVCBasePane@@IH@Z 0049c8b0 f   uafxcw:afxdockingmanager.obj
 0001:0009ba44       ?FixupVirtualRects@CDockingManager@@UAEXXZ 0049ca44 f   uafxcw:afxdockingmanager.obj
 0001:0009ba93       ?FrameFromPoint@CDockingManager@@UBEPAVCPaneFrameWnd@@VCPoint@@PAV2@H@Z 0049ca93 f   uafxcw:afxdockingmanager.obj
 0001:0009bb47       ?GetPaneList@CDockingManager@@QAEXAAVCObList@@HPAUCRuntimeClass@@H@Z 0049cb47 f   uafxcw:afxdockingmanager.obj
 0001:0009bce5       ?HideAutoHidePanes@CDockingManager@@QAEXPAVCDockablePane@@H@Z 0049cce5 f   uafxcw:afxdockingmanager.obj
 0001:0009bd42       ?HideForPrintPreview@CDockingManager@@IAEXABVCObList@@@Z 0049cd42 f   uafxcw:afxdockingmanager.obj
 0001:0009be9b       ?InsertPane@CDockingManager@@QAEHPAVCBasePane@@0H@Z 0049ce9b f   uafxcw:afxdockingmanager.obj
 0001:0009bee6       ?IsPointNearDockSite@CDockingManager@@QBEHVCPoint@@AAKAAH@Z 0049cee6 f   uafxcw:afxdockingmanager.obj
 0001:0009bfb9       ?LoadState@CDockingManager@@UAEHPB_WI@Z 0049cfb9 f   uafxcw:afxdockingmanager.obj
 0001:0009c34a       ?LockUpdate@CDockingManager@@QAEXH@Z 0049d34a f   uafxcw:afxdockingmanager.obj
 0001:0009c444       ?NewNode@?$CList@UAFX_AUTOHIDE_DOCKSITE_SAVE_INFO@@AAU1@@@IAEPAUCNode@1@PAU21@0@Z 0049d444 f i uafxcw:afxdockingmanager.obj
 0001:0009c4b2       ?OnActivateFrame@CDockingManager@@UAEXH@Z 0049d4b2 f   uafxcw:afxdockingmanager.obj
 0001:0009c5f8       ?OnClosePopupMenu@CDockingManager@@QAEXXZ 0049d5f8 f   uafxcw:afxdockingmanager.obj
 0001:0009c600       ?OnMoveMiniFrame@CDockingManager@@UAEHPAVCWnd@@@Z 0049d600 f   uafxcw:afxdockingmanager.obj
 0001:0009c992       ?OnPaneContextMenu@CDockingManager@@QAEXVCPoint@@@Z 0049d992 f   uafxcw:afxdockingmanager.obj
 0001:0009ca5f       ?PaneFromPoint@CDockingManager@@UBEPAVCBasePane@@VCPoint@@HAAKPAUCRuntimeClass@@PBV2@@Z 0049da5f f   uafxcw:afxdockingmanager.obj
 0001:0009cacf       ?PaneFromPoint@CDockingManager@@UBEPAVCBasePane@@VCPoint@@H_NPAUCRuntimeClass@@HPBV2@@Z 0049dacf f   uafxcw:afxdockingmanager.obj
 0001:0009cc25       ?ProcessPaneContextMenuCommand@CDockingManager@@QAEHIHPAXPAUAFX_CMDHANDLERINFO@@@Z 0049dc25 f   uafxcw:afxdockingmanager.obj
 0001:0009cd1c       ?RecalcLayout@CDockingManager@@UAEXH@Z 0049dd1c f   uafxcw:afxdockingmanager.obj
 0001:0009cdff       ?RedrawAllMiniFrames@CDockingManager@@QAEXXZ 0049ddff f   uafxcw:afxdockingmanager.obj
 0001:0009ce68       ?RemoveAll@?$CList@UAFX_AUTOHIDE_DOCKSITE_SAVE_INFO@@AAU1@@@QAEXXZ 0049de68 f i uafxcw:afxdockingmanager.obj
 0001:0009ce9e       ?RemoveHiddenMDITabbedBar@CDockingManager@@QAEXPAVCDockablePane@@@Z 0049de9e f   uafxcw:afxdockingmanager.obj
 0001:0009ced4       ?RemoveMiniFrame@CDockingManager@@UAEHPAVCPaneFrameWnd@@@Z 0049ded4 f   uafxcw:afxdockingmanager.obj
 0001:0009cf02       ?RemovePaneFromDockManager@CDockingManager@@QAEXPAVCBasePane@@HHH0@Z 0049df02 f   uafxcw:afxdockingmanager.obj
 0001:0009cf6f       ?ResortMiniFramesForZOrder@CDockingManager@@QAEXXZ 0049df6f f   uafxcw:afxdockingmanager.obj
 0001:0009d022       ?SaveState@CDockingManager@@UAEHPB_WI@Z 0049e022 f   uafxcw:afxdockingmanager.obj
 0001:0009d2a8       ?SendMessageToMiniFrames@CDockingManager@@QAEHIIJ@Z 0049e2a8 f   uafxcw:afxdockingmanager.obj
 0001:0009d2fb       ?Serialize@?$CList@IAAI@@UAEXAAVCArchive@@@Z 0049e2fb f i uafxcw:afxdockingmanager.obj
 0001:0009d35e       ?Serialize@?$CList@PAUHWND__@@AAPAU1@@@UAEXAAVCArchive@@@Z 0049e35e f i uafxcw:afxdockingmanager.obj
 0001:0009d3c1       ?Serialize@?$CList@UAFX_AUTOHIDE_DOCKSITE_SAVE_INFO@@AAU1@@@UAEXAAVCArchive@@@Z 0049e3c1 f i uafxcw:afxdockingmanager.obj
 0001:0009d45c       ?Serialize@AFX_AUTOHIDE_DOCKSITE_SAVE_INFO@@QAEXAAVCArchive@@@Z 0049e45c f   uafxcw:afxdockingmanager.obj
 0001:0009d5b9       ?Serialize@CDockingManager@@UAEXAAVCArchive@@@Z 0049e5b9 f   uafxcw:afxdockingmanager.obj
 0001:0009de57       ?SetDockState@CDockingManager@@UAEXXZ 0049ee57 f   uafxcw:afxdockingmanager.obj
 0001:0009e738       ?SetDockingMode@CDockingManager@@SGXW4AFX_DOCK_TYPE@@W4AFX_SMARTDOCK_THEME@@@Z 0049f738 f   uafxcw:afxdockingmanager.obj
 0001:0009e760       ?SetPrintPreviewMode@CDockingManager@@QAEXHPAUCPrintPreviewState@@@Z 0049f760 f   uafxcw:afxdockingmanager.obj
 0001:0009e867       ?ShowDelayShowMiniFrames@CDockingManager@@UAEXH@Z 0049f867 f   uafxcw:afxdockingmanager.obj
 0001:0009e8f4       ?ShowPanes@CDockingManager@@UAEHH@Z 0049f8f4 f   uafxcw:afxdockingmanager.obj
 0001:0009ea83       ?Create@CPlex@@SGPAU1@AAPAU1@II@Z 0049fa83 f   uafxcw:plex.obj
 0001:0009eab4       ?FreeDataChain@CPlex@@QAEXXZ 0049fab4 f   uafxcw:plex.obj
 0001:0009eaca       ?AfxThrowArchiveException@@YGXHPB_W@Z 0049faca f   uafxcw:arcex.obj
 0001:0009eb0d       ?GetErrorMessage@CArchiveException@@UBEHPA_WIPAI@Z 0049fb0d f   uafxcw:arcex.obj
 0001:0009ebd9       ?GetRuntimeClass@CArchiveException@@UBEPAUCRuntimeClass@@XZ 0049fbd9 f   uafxcw:arcex.obj
 0001:0009ebdf       ??0?$CStringT@DV?$StrTraitMFC@DV?$ChTraitsCRT@D@ATL@@@@@ATL@@QAE@PB_W@Z 0049fbdf f i uafxcw:arccore.obj
 0001:0009ec23       ??0CArchive@@QAE@PAVCFile@@IHPAX@Z 0049fc23 f   uafxcw:arccore.obj
 0001:0009ed33       ??1CArchive@@QAE@XZ        0049fd33 f   uafxcw:arccore.obj
 0001:0009ed75       ??4?$CStringT@DV?$StrTraitMFC@DV?$ChTraitsCRT@D@ATL@@@@@ATL@@QAEAAV01@PB_W@Z 0049fd75 f i uafxcw:arccore.obj
 0001:0009edc8       ??5CArchive@@QAEAAV0@AAE@Z 0049fdc8 f i uafxcw:arccore.obj
 0001:0009ee0a       ??5CArchive@@QAEAAV0@AAG@Z 0049fe0a f i uafxcw:arccore.obj
 0001:0009ee51       ??5CArchive@@QAEAAV0@AA_K@Z 0049fe51 f i uafxcw:arccore.obj
 0001:0009ee9c       ??6CArchive@@QAEAAV0@E@Z   0049fe9c f i uafxcw:arccore.obj
 0001:0009eed6       ??6CArchive@@QAEAAV0@G@Z   0049fed6 f i uafxcw:arccore.obj
 0001:0009ef15       ??6CArchive@@QAEAAV0@_K@Z  0049ff15 f i uafxcw:arccore.obj
 0001:0009ef58       ?Abort@CArchive@@QAEXXZ    0049ff58 f   uafxcw:arccore.obj
 0001:0009efc5       ?AfxReadStringLength@@YGIAAVCArchive@@AAH@Z 0049ffc5 f   uafxcw:arccore.obj
 0001:0009f080       ?AfxWriteStringLength@@YGXAAVCArchive@@IH@Z 004a0080 f   uafxcw:arccore.obj
 0001:0009f102       ?CheckImplicitLoad@?$CStringT@DV?$StrTraitMFC@DV?$ChTraitsCRT@D@ATL@@@@@ATL@@AAE_NPBX@Z 004a0102 f i uafxcw:arccore.obj
 0001:0009f126       ?Close@CArchive@@QAEXXZ    004a0126 f   uafxcw:arccore.obj
 0001:0009f134       ?FillBuffer@CArchive@@QAEXI@Z 004a0134 f   uafxcw:arccore.obj
 0001:0009f23d       ?Flush@CArchive@@QAEXXZ    004a023d f   uafxcw:arccore.obj
